
C:\Users\itssh\Documents\MCUXpressoIDE_11.6.0_8187\workspace\PBKDF2\PBK\Debug\PBK.axf:     file format elf32-littlearm
C:\Users\itssh\Documents\MCUXpressoIDE_11.6.0_8187\workspace\PBKDF2\PBK\Debug\PBK.axf
architecture: armv6s-m, flags 0x00000112:
EXEC_P, HAS_SYMS, D_PAGED
start address 0x000000d5

Program Header:
    LOAD off    0x00010000 vaddr 0x00000000 paddr 0x00000000 align 2**16
         filesz 0x000050e0 memsz 0x000050e0 flags r-x
    LOAD off    0x0001f080 vaddr 0x1ffff080 paddr 0x000050e0 align 2**16
         filesz 0x00000008 memsz 0x00000008 flags rw-
    LOAD off    0x0000f000 vaddr 0x1ffff000 paddr 0x1ffff000 align 2**16
         filesz 0x00000000 memsz 0x00002e04 flags rw-
private flags = 0x5000200: [Version5 EABI] [soft-float ABI]

Sections:
Idx Name          Size      VMA       LMA       File off  Algn
  0 .text         000050e0  00000000  00000000  00010000  2**2
                  CONTENTS, ALLOC, LOAD, READONLY, CODE
  1 .data         00000008  1ffff080  000050e0  0001f080  2**2
                  CONTENTS, ALLOC, LOAD, DATA
  2 .bss          0000097c  1ffff088  1ffff088  0002f000  2**2
                  ALLOC
  3 .mtb_buffer_default 00000080  1ffff000  1ffff000  0002f000  2**7
                  ALLOC
  4 .uninit_RESERVED 00000000  1ffff080  1ffff080  0001f088  2**2
                  CONTENTS
  5 .noinit       00000000  1ffffa04  1ffffa04  00000000  2**2
                  ALLOC
  6 .heap         00000400  1ffffa04  1ffffa04  0002f000  2**2
                  ALLOC
  7 .heap2stackfill 00002000  1ffffe04  1ffffe04  0002f000  2**0
                  ALLOC
  8 .stack        00000000  20001000  20001000  0001f088  2**2
                  CONTENTS
  9 .debug_info   00007aea  00000000  00000000  0001f088  2**0
                  CONTENTS, READONLY, DEBUGGING, OCTETS
 10 .debug_abbrev 00001968  00000000  00000000  00026b72  2**0
                  CONTENTS, READONLY, DEBUGGING, OCTETS
 11 .debug_aranges 00000850  00000000  00000000  000284da  2**0
                  CONTENTS, READONLY, DEBUGGING, OCTETS
 12 .debug_ranges 00000738  00000000  00000000  00028d2a  2**0
                  CONTENTS, READONLY, DEBUGGING, OCTETS
 13 .debug_macro  00008f0d  00000000  00000000  00029462  2**0
                  CONTENTS, READONLY, DEBUGGING, OCTETS
 14 .debug_line   000057e9  00000000  00000000  0003236f  2**0
                  CONTENTS, READONLY, DEBUGGING, OCTETS
 15 .debug_str    00035ea1  00000000  00000000  00037b58  2**0
                  CONTENTS, READONLY, DEBUGGING, OCTETS
 16 .comment      00000049  00000000  00000000  0006d9f9  2**0
                  CONTENTS, READONLY
 17 .ARM.attributes 0000002a  00000000  00000000  0006da42  2**0
                  CONTENTS, READONLY
 18 .debug_frame  00001a18  00000000  00000000  0006da6c  2**2
                  CONTENTS, READONLY, DEBUGGING, OCTETS
SYMBOL TABLE:
00000000 l    d  .text	00000000 .text
1ffff080 l    d  .data	00000000 .data
1ffff088 l    d  .bss	00000000 .bss
1ffff000 l    d  .mtb_buffer_default	00000000 .mtb_buffer_default
1ffff080 l    d  .uninit_RESERVED	00000000 .uninit_RESERVED
1ffffa04 l    d  .noinit	00000000 .noinit
1ffffa04 l    d  .heap	00000000 .heap
1ffffe04 l    d  .heap2stackfill	00000000 .heap2stackfill
20001000 l    d  .stack	00000000 .stack
00000000 l    d  .debug_info	00000000 .debug_info
00000000 l    d  .debug_abbrev	00000000 .debug_abbrev
00000000 l    d  .debug_aranges	00000000 .debug_aranges
00000000 l    d  .debug_ranges	00000000 .debug_ranges
00000000 l    d  .debug_macro	00000000 .debug_macro
00000000 l    d  .debug_line	00000000 .debug_line
00000000 l    d  .debug_str	00000000 .debug_str
00000000 l    d  .comment	00000000 .comment
00000000 l    d  .ARM.attributes	00000000 .ARM.attributes
00000000 l    d  .debug_frame	00000000 .debug_frame
00000000 l    df *ABS*	00000000 startup_mkl25z4.c
00000000 l    df *ABS*	00000000 fsl_debug_console.c
000038f8 l     F .text	00000040 UART_EnableTx
00003938 l     F .text	00000040 UART_EnableRx
00003978 l     F .text	00000040 LPSCI_EnableTx
000039b8 l     F .text	00000040 LPSCI_EnableRx
1ffff088 l     O .bss	00000010 s_debugConsole
00000000 l    df *ABS*	00000000 isha.c
000039f8 l     F .text	000000f6 ISHAProcessMessageBlock
00003aee l     F .text	0000015c ISHAPadMessage
00000000 l    df *ABS*	00000000 main.c
000005bc l     F .text	00000154 time_pbkdf2_hmac_isha
00004428 l     O .text	00000016 __FUNCTION__.0
00000710 l     F .text	00000078 run_tests
00000000 l    df *ABS*	00000000 pbkdf2.c
000007d4 l     F .text	00000120 F
1ffff098 l     O .bss	00000800 saltplus.0
00000000 l    df *ABS*	00000000 pbkdf2_test.c
000009b0 l     F .text	00000070 hexdigit_to_int
00004e04 l     O .text	0000000a __FUNCTION__.2
00004e10 l     O .text	0000000f __FUNCTION__.1
00004e20 l     O .text	00000016 __FUNCTION__.0
00000000 l    df *ABS*	00000000 semihost_hardfault.c
00000fa2 l       .text	00000000 _MSP
00000fa6 l       .text	00000000 _process
00000fb2 l       .text	00000000 _semihost_return
00000000 l    df *ABS*	00000000 ticktime.c
00000fc4 l     F .text	0000002c NVIC_EnableIRQ
00000ff0 l     F .text	00000030 NVIC_ClearPendingIRQ
00001020 l     F .text	000000dc NVIC_SetPriority
1ffff898 l     O .bss	00000004 g_now
1ffff89c l     O .bss	00000004 g_timer
00000000 l    df *ABS*	00000000 fsl_clock.c
000011b4 l     F .text	00000034 CLOCK_SetEr32kClock
000011e8 l     F .text	00000038 CLOCK_SetPllFllSelClock
00003fa0 l     F .text	0000003e OSC_SetExtRefClkConfig
00003fde l     F .text	00000042 OSC_SetCapLoad
1ffff080 l     O .data	00000004 s_slowIrcFreq
00001220 l     F .text	00000028 CLOCK_GetMcgExtClkFreq
00001248 l     F .text	000000a8 CLOCK_GetFllExtRefClkFreq
000012f0 l     F .text	0000002c CLOCK_GetFllRefClkFreq
00004020 l     F .text	00000010 CLOCK_GetPll0RefFreq
0000131c l     F .text	0000004c CLOCK_GetOscRangeFromFreq
00004ecc l     O .text	00000010 fllFactorTable.1
00000000 l    df *ABS*	00000000 fsl_lpsci.c
0000184c l     F .text	00000034 CLOCK_EnableClock
1ffff8a4 l     O .bss	00000004 s_lpsciHandle
1ffff8a8 l     O .bss	00000004 s_lpsciIsr
00000000 l    df *ABS*	00000000 fsl_uart.c
00001d28 l     F .text	00000034 CLOCK_EnableClock
1ffff8ac l     O .bss	0000000c s_uartHandle
00004fa4 l     O .text	0000000c s_uartBases
00004fb0 l     O .text	0000000c s_uartClock
1ffff8b8 l     O .bss	00000004 s_uartIsr
00000000 l    df *ABS*	00000000 board.c
000020b4 l     F .text	00000038 CLOCK_SetLpsci0Clock
00000000 l    df *ABS*	00000000 clock_config.c
0000211c l     F .text	00000020 CLOCK_SetSimSafeDivs
0000213c l     F .text	0000001c CLOCK_SetXtal0Freq
00002158 l     F .text	0000003c CLOCK_CONFIG_SetFllExtRefDiv
00000000 l    df *ABS*	00000000 pin_mux.c
000021f8 l     F .text	00000034 CLOCK_EnableClock
0000222c l     F .text	00000040 PORT_SetPinMux
00000000 l    df *ABS*	00000000 system_MKL25Z4.c
00000000 l    df *ABS*	00000000 _cr_assert.c
00000000 l    df *ABS*	00000000 __sys_appexit.o
00000000 l    df *ABS*	00000000 _deferredlazyseek.c
00000000 l    df *ABS*	00000000 _fflush.c
00000000 l    df *ABS*	00000000 _writebuf.c
00000000 l    df *ABS*	00000000 alloc.c
00000000 l    df *ABS*	00000000 fseek.c
00000000 l    df *ABS*	00000000 ftell.c
00000000 l    df *ABS*	00000000 initio.c
00000000 l    df *ABS*	00000000 printf.c
0000416a l     F .text	00000004 no_fp_display
00000000 l    df *ABS*	00000000 setvbuf.c
00000000 l    df *ABS*	00000000 stdlib.c
00000000 l    df *ABS*	00000000 strlen.c
00000000 l    df *ABS*	00000000 _cr_sbrk.c
00000000 l    df *ABS*	00000000 _fdopen.c
00000000 l    df *ABS*	00000000 fclose.c
00000000 l    df *ABS*	00000000 fflush.c
00000000 l    df *ABS*	00000000 _cr_check_heap.c
00000000 l    df *ABS*	00000000 _do_fflush.c
00000000 l    df *ABS*	00000000 peripherals.c
00000000 l    df *ABS*	00000000 _cr__main.c
00000000 l    df *ABS*	00000000 memcpy.c
00000000 l    df *ABS*	00000000 memset.c
00000000 l    df *ABS*	00000000 fputs.c
00000000 l    df *ABS*	00000000 remove.c
00000000 l    df *ABS*	00000000 division_32.o
000041ca l       .text	00000000 idiv_negative
000041ee l       .text	00000000 idiv_divzero
00004196 l       .text	00000000 div_search4a
00004192 l       .text	00000000 div_search4
000041a2 l       .text	00000000 div_search1a
0000419e l       .text	00000000 div_search1
000041aa l       .text	00000000 div_loop1a
000041a8 l       .text	00000000 div_loop1
000041be l       .text	00000000 div1
000041ae l       .text	00000000 div2
000041b8 l       .text	00000000 div_loop2
000041d0 l       .text	00000000 idiv_neg1
000041d6 l       .text	00000000 idiv_neg2
000041e0 l       .text	00000000 idiv_sign
000041e6 l       .text	00000000 idiv_sign1
000041ec l       .text	00000000 idiv_ret
00000000 l    df *ABS*	00000000 division_idiv0.o
00000000 l    df *ABS*	00000000 llong.o
00000000 l    df *ABS*	00000000 memcpy.o
00004240 l       .text	00000000 copy1_start
00004236 l       .text	00000000 copy4
00004250 l       .text	00000000 copy1_ret
00004248 l       .text	00000000 copy1
0000426e l       .text	00000000 memset1
00004268 l       .text	00000000 memset4
0000427a l       .text	00000000 memset1_ret
00004272 l       .text	00000000 memset1a
00000000 l    df *ABS*	00000000 thumb1_switch_helpers.o
00000000 l    df *ABS*	00000000 __sys_close.o
00000000 l    df *ABS*	00000000 __sys_flen.o
00000000 l    df *ABS*	00000000 __sys_istty.o
00000000 l    df *ABS*	00000000 __sys_remove.o
00000000 l    df *ABS*	00000000 __sys_seek.o
00000000 l    df *ABS*	00000000 __sys_tmpnam.o
00000000 l    df *ABS*	00000000 __ciob.c
00000000 l    df *ABS*	00000000 mtb.c
000040f4 g     F .text	0000000c __main
00000400 g       .text	00000000 __FLASH_CONFIG_START__
00000000 g     O .text	000000c0 __Vectors
00002328 g     F .text	00000040 _deferredlazyseek
0000014c  w    F .text	00000002 PIT_DriverIRQHandler
0000014c  w    F .text	00000002 Reserved39_DriverIRQHandler
00001bf8 g     F .text	0000004c LPSCI_WriteBlocking
000000c0 g       .text	00000000 __section_table_start
0000231c g     F .text	00000000 __exit
0000018e  w    F .text	00000008 I2C0_IRQHandler
000042ca g     F .text	00000000 __sys_tmpnam
00000c5c g     F .text	00000110 test_hmac_isha
0000014c  w    F .text	00000002 DMA0_DriverIRQHandler
000020ec g     F .text	00000030 BOARD_InitDebugConsole
00000f94 g     F .text	0000002a HardFault_Handler
0000014c  w    F .text	00000002 SPI1_DriverIRQHandler
00000000 g       *ABS*	00000000 __vectors_start__
00000400 g       *ABS*	00000000 _HeapSize
0000014c  w    F .text	00000002 LPTMR0_DriverIRQHandler
00001164 g     F .text	00000018 SysTick_Handler
000035b0 g     F .text	00000070 _vsnprintf
000018c8 g     F .text	00000258 LPSCI_Init
000008f4 g     F .text	000000bc pbkdf2_hmac_isha
00000148  w    F .text	00000002 PendSV_Handler
00000142  w    F .text	00000002 NMI_Handler
000050e8 g       .noinit	00000000 __exidx_end
000000cc g       .text	00000000 __data_section_table_end
00001880 g     F .text	00000048 LPSCI_GetInstance
00000196  w    F .text	00000008 I2C1_IRQHandler
000001b6  w    F .text	00000008 UART1_IRQHandler
00002368 g     F .text	00000150 __flsbuf
0000015e  w    F .text	00000008 DMA2_IRQHandler
0000014c  w    F .text	00000002 TPM2_DriverIRQHandler
20003000 g       *ABS*	00000000 __top_SRAM
000001d6  w    F .text	00000008 TPM0_IRQHandler
1ffffa00 g     O .bss	00000004 errno
000050e0 g       .text	00000000 _etext
0000117c g     F .text	0000001c reset_timer
00001db0 g     F .text	000001e0 UART_Init
00000186  w    F .text	00000008 LLWU_IRQHandler
0000014c  w    F .text	00000002 TSI0_DriverIRQHandler
00003d7a g     F .text	0000009a ISHAInput
0000014c  w    F .text	00000002 RTC_Seconds_DriverIRQHandler
0000021e  w    F .text	00000008 TSI0_IRQHandler
000040f4  w    F .text	0000000c __CR_SEMIHOST
00002000 g       *ABS*	00000000 _StackSize
000001ae  w    F .text	00000008 UART0_IRQHandler
000040ce g     F .text	0000000e BOARD_InitBootClocks
00000132 g     F .text	00000010 bss_init
0000014c  w    F .text	00000002 LLWU_DriverIRQHandler
00004100 g     F .text	00000008 memcpy
00003670 g     F .text	0000004c setvbuf
00001b20 g     F .text	00000044 LPSCI_GetDefaultConfig
1ffffa04 g       .noinit	00000000 _noinit
0000014c  w    F .text	00000002 MCG_DriverIRQHandler
1ffff084 g     O .data	00000004 SystemCoreClock
00020000 g       *ABS*	00000000 __top_PROGRAM_FLASH
000001c6  w    F .text	00000008 ADC0_IRQHandler
00002580 g     F .text	000000cc malloc
0000416e g     F .text	00000012 remove
00000206  w    F .text	00000008 Reserved39_IRQHandler
20003000 g       *ABS*	00000000 __top_RAM
00000a20 g     F .text	0000023c test_isha
00004228 g     F .text	0000002c __aeabi_memcpy
0000206c g     F .text	00000024 UART1_DriverIRQHandler
0000429a g     F .text	00000000 __sys_flen
000001a6  w    F .text	00000008 SPI1_IRQHandler
0000014c  w    F .text	00000002 FTFA_DriverIRQHandler
0000014c  w    F .text	00000002 IntDefaultHandler
0000014c  w    F .text	00000002 USB0_DriverIRQHandler
1ffffe04 g       .heap	00000000 _pvHeapLimit
00003854 g     F .text	00000044 fflush
0000014c  w    F .text	00000002 DAC0_DriverIRQHandler
00000246  w    F .text	00000008 PORTD_IRQHandler
000050e8 g       .noinit	00000000 __exidx_start
000022d0 g     F .text	0000004c __assertion_failed
00004228 g     F .text	0000002c __aeabi_memcpy4
000041fa g     F .text	0000002e __aeabi_lmul
00003784 g     F .text	00000074 _fdopen
00004254 g     F .text	0000002a __aeabi_lowlevel_memset
1ffff000 g       *ABS*	00000000 __base_SRAM
00003740 g     F .text	00000044 _sbrk
0000014c  w    F .text	00000002 LVD_LVW_DriverIRQHandler
00001198 g     F .text	0000001c get_timer
0000014c  w    F .text	00000002 TPM0_DriverIRQHandler
000001e6  w    F .text	00000008 TPM2_IRQHandler
000017dc g     F .text	00000070 CLOCK_BootToPeeMode
000000c0 g       .text	00000000 __data_section_table
00005074 g     O .text	00000004 __num_Ciob_streams
00000410 g       .text	00000000 __FLASH_CONFIG_END__
000001ee  w    F .text	00000008 RTC_IRQHandler
1ffffa04 g       .bss	00000000 _ebss
00003c4a g     F .text	00000130 ISHAResult
000050e8 g       *ABS*	00000000 _image_size
00002870 g     F .text	00000d40 __vfprintf
0000014c  w    F .text	00000002 Reserved20_DriverIRQHandler
0000014c  w    F .text	00000002 DMA3_DriverIRQHandler
0000172c g     F .text	000000b0 CLOCK_SetPbeMode
1ffff970 g     O .bss	00000084 _exitvector
00000120 g     F .text	00000012 data_init
00004228 g     F .text	0000002c __aeabi_memcpy8
00002820 g     F .text	00000050 _terminateio
000001f6  w    F .text	00000008 RTC_Seconds_IRQHandler
0000014c  w    F .text	00000002 Reserved45_DriverIRQHandler
00004180 g     F .text	00000006 __aeabi_idiv
00002194 g     F .text	00000064 BOARD_BootClockRUN
00000226  w    F .text	00000008 MCG_IRQHandler
000001be  w    F .text	00000008 UART2_IRQHandler
0000266c g     F .text	000000f0 fseek
00001368 g     F .text	0000004c CLOCK_GetPllFllSelClkFreq
00000000 g       *ABS*	00000000 __base_Flash
0000226c g     F .text	0000004c BOARD_InitPins
000024b8 g     F .text	00000060 _fflush
0000016e  w    F .text	00000008 Reserved20_IRQHandler
0000427e g     F .text	00000010 __gnu_thumb1_case_shi
00001c44 g     F .text	000000c0 LPSCI_ReadBlocking
00001f90 g     F .text	00000044 UART_GetDefaultConfig
1ffff088 g       .bss	00000000 _bss
00001d5c g     F .text	00000054 UART_GetInstance
0000506c g     O .text	00000008 oscConfig_BOARD_BootClockRUN
0000014c  w    F .text	00000002 PORTA_DriverIRQHandler
0000014c  w    F .text	00000002 TPM1_DriverIRQHandler
00000d6c g     F .text	00000228 test_pbkdf2_hmac_isha
00001b64 g     F .text	00000094 LPSCI_ClearStatusFlags
00000000 g       *ABS*	00000000 _image_start
00020000 g       *ABS*	00000000 __top_Flash
1ffffa04 g       .noinit	00000000 _end_noinit
20003000 g       .stack	00000000 _vStackTop
000000d4 g       .text	00000000 __bss_section_table_end
00003898 g     F .text	00000018 __check_heap_overflow
0000014c  w    F .text	00000002 RTC_DriverIRQHandler
00000000 g       *ABS*	00000000 __base_PROGRAM_FLASH
0000020e  w    F .text	00000008 USB0_IRQHandler
00001604 g     F .text	00000094 CLOCK_EnablePll0
00000504  w    F .text	00000058 __sys_write
00004108 g     F .text	00000008 memset
00000788 g     F .text	0000004c main
000038b0 g     F .text	00000048 _do_fflush
0000275c g     F .text	00000048 ftell
000001fe  w    F .text	00000008 PIT_IRQHandler
00004186 g     F .text	00000072 __aeabi_uidiv
00000146  w    F .text	00000002 SVC_Handler
000037f8 g     F .text	0000005c fclose
00001470 g     F .text	00000070 CLOCK_GetPll0Freq
000040e6 g     F .text	0000000e BOARD_InitBootPins
00002090 g     F .text	00000024 UART2_DriverIRQHandler
000042be g     F .text	00000000 __sys_seek
00004030 g     F .text	00000016 CLOCK_SetExternalRefClkConfig
00001698 g     F .text	00000094 CLOCK_InitOsc0
0000014c  w    F .text	00000002 DMA1_DriverIRQHandler
00000166  w    F .text	00000008 DMA3_IRQHandler
00001fd4 g     F .text	00000098 UART_ReadBlocking
000022b8 g     F .text	00000018 SystemInit
0000014e  w    F .text	00000008 DMA0_IRQHandler
0000406c g     F .text	00000026 UART_GetStatusFlags
000000cc g       .text	00000000 __bss_section_table
0000014c  w    F .text	00000002 I2C1_DriverIRQHandler
000014e0 g     F .text	00000124 CLOCK_SetInternalRefClkConfig
0000428e g     F .text	00000000 __sys_close
00003efa g     F .text	00000042 cmp_bin
00000216  w    F .text	00000008 DAC0_IRQHandler
1ffff080 g       .uninit_RESERVED	00000000 _end_uninit_RESERVED
1ffff080 g       .uninit_RESERVED	00000000 _start_uninit_RESERVED
00002518 g     F .text	00000068 _Cwritebuf
00003e14 g     F .text	000000e6 hmac_isha
000010fc g     F .text	00000068 init_ticktime
00001d04 g     F .text	00000024 UART0_DriverIRQHandler
1ffff080 g       .data	00000000 _data
00000236  w    F .text	00000008 Reserved45_IRQHandler
1ffff9f4 g     O .bss	00000004 _number_of_exit_functions
1ffffa04 g       .heap	00000000 _pvHeapStart
000000d4 g       .text	00000000 __section_table_end
0000014c  w    F .text	00000002 SPI0_DriverIRQHandler
000013b4 g     F .text	00000038 CLOCK_SetSimConfig
000001de  w    F .text	00000008 TPM1_IRQHandler
00000410 g     F .text	000000f4 DbgConsole_Init
0000014c  w    F .text	00000002 ADC0_DriverIRQHandler
000042b2 g     F .text	00000000 __sys_remove
00004186 g     F .text	00000072 __aeabi_uidivmod
0000017e  w    F .text	00000008 LVD_LVW_IRQHandler
1ffff088 g       .data	00000000 _edata
0000019e  w    F .text	00000008 SPI0_IRQHandler
0000023e  w    F .text	00000008 PORTA_IRQHandler
000013ec g     F .text	00000084 CLOCK_GetFllFreq
0000014c  w    F .text	00000002 CMP0_DriverIRQHandler
1ffff9fc g     O .bss	00000004 __heaps
0000231c g     F .text	00000000 __sys_appexit
00000400 g     O .text	00000010 Flash_Config
00004046 g     F .text	00000026 LPSCI_GetStatusFlags
000040dc g     F .text	0000000a BOARD_InitBootPeripherals
000036bc g     F .text	0000002c exit
1ffff000 g       *ABS*	00000000 __base_RAM
00000000 g     O .text	000000c0 g_pfnVectors
00000176  w    F .text	00000008 FTFA_IRQHandler
000000d4 g     F .text	0000004c ResetISR
000050e8 g       *ABS*	00000000 _image_end
00003f3c g     F .text	00000064 hexstr_to_bytes
1ffff9f8 g     O .bss	00000004 __end_of_heap
0000055c g     F .text	00000060 ISHAReset
0000264c g     F .text	00000020 _Csys_alloc
00004092 g     F .text	0000003c UART_WriteBlocking
000041f8 g     F .text	00000002 __aeabi_idiv0
0000022e  w    F .text	00000008 LPTMR0_IRQHandler
00005058 g     O .text	0000000a mcgConfig_BOARD_BootClockRUN
000036e8 g     F .text	00000058 strlen
0000014c  w    F .text	00000002 DMA2_DriverIRQHandler
0000014c  w    F .text	00000002 PORTD_DriverIRQHandler
00003620 g     F .text	00000050 _printf
0000413c g     F .text	0000002e fputs
0000014c  w    F .text	00000002 I2C0_DriverIRQHandler
1ffff000 g     O .mtb_buffer_default	00000080 __mtb_buffer__
20001000 g       .stack	00000000 _vStackBase
000027a4 g     F .text	0000007c _initio
000001ce  w    F .text	00000008 CMP0_IRQHandler
00004180 g     F .text	00000006 __aeabi_idivmod
1ffff8bc g     O .bss	000000b4 __Ciob
000042a6 g     F .text	00000000 __sys_istty
1ffff8a0 g     O .bss	00000004 g_xtal0Freq
00000156  w    F .text	00000008 DMA1_IRQHandler
00004110 g     F .text	0000002c free
00005064 g     O .text	00000008 simConfig_BOARD_BootClockRUN



Disassembly of section .text:

00000000 <__Vectors>:
       0:	00 30 00 20 d5 00 00 00 43 01 00 00 95 0f 00 00     .0. ....C.......
	...
      2c:	47 01 00 00 00 00 00 00 00 00 00 00 49 01 00 00     G...........I...
      3c:	65 11 00 00 4f 01 00 00 57 01 00 00 5f 01 00 00     e...O...W..._...
      4c:	67 01 00 00 6f 01 00 00 77 01 00 00 7f 01 00 00     g...o...w.......
      5c:	87 01 00 00 8f 01 00 00 97 01 00 00 9f 01 00 00     ................
      6c:	a7 01 00 00 af 01 00 00 b7 01 00 00 bf 01 00 00     ................
      7c:	c7 01 00 00 cf 01 00 00 d7 01 00 00 df 01 00 00     ................
      8c:	e7 01 00 00 ef 01 00 00 f7 01 00 00 ff 01 00 00     ................
      9c:	07 02 00 00 0f 02 00 00 17 02 00 00 1f 02 00 00     ................
      ac:	27 02 00 00 2f 02 00 00 37 02 00 00 3f 02 00 00     '.../...7...?...
      bc:	47 02 00 00                                         G...

000000c0 <__data_section_table>:
      c0:	000050e0 	.word	0x000050e0
      c4:	1ffff080 	.word	0x1ffff080
      c8:	00000008 	.word	0x00000008

000000cc <__bss_section_table>:
      cc:	1ffff088 	.word	0x1ffff088
      d0:	0000097c 	.word	0x0000097c

000000d4 <ResetISR>:
      d4:	b510      	push	{r4, lr}
      d6:	b672      	cpsid	i
      d8:	f002 f8ee 	bl	22b8 <SystemInit>
      dc:	4b0d      	ldr	r3, [pc, #52]	; (114 <ResetISR+0x40>)
      de:	e007      	b.n	f0 <ResetISR+0x1c>
      e0:	6818      	ldr	r0, [r3, #0]
      e2:	6859      	ldr	r1, [r3, #4]
      e4:	001c      	movs	r4, r3
      e6:	340c      	adds	r4, #12
      e8:	689a      	ldr	r2, [r3, #8]
      ea:	f000 f819 	bl	120 <data_init>
      ee:	0023      	movs	r3, r4
      f0:	4a09      	ldr	r2, [pc, #36]	; (118 <ResetISR+0x44>)
      f2:	4293      	cmp	r3, r2
      f4:	d3f4      	bcc.n	e0 <ResetISR+0xc>
      f6:	e006      	b.n	106 <ResetISR+0x32>
      f8:	6818      	ldr	r0, [r3, #0]
      fa:	001c      	movs	r4, r3
      fc:	3408      	adds	r4, #8
      fe:	6859      	ldr	r1, [r3, #4]
     100:	f000 f817 	bl	132 <bss_init>
     104:	0023      	movs	r3, r4
     106:	4a05      	ldr	r2, [pc, #20]	; (11c <ResetISR+0x48>)
     108:	4293      	cmp	r3, r2
     10a:	d3f5      	bcc.n	f8 <ResetISR+0x24>
     10c:	b662      	cpsie	i
     10e:	f003 fff1 	bl	40f4 <__main>
     112:	e7fe      	b.n	112 <ResetISR+0x3e>
     114:	000000c0 	.word	0x000000c0
     118:	000000cc 	.word	0x000000cc
     11c:	000000d4 	.word	0x000000d4

00000120 <data_init>:
     120:	b510      	push	{r4, lr}
     122:	2300      	movs	r3, #0
     124:	e002      	b.n	12c <data_init+0xc>
     126:	c810      	ldmia	r0!, {r4}
     128:	c110      	stmia	r1!, {r4}
     12a:	3304      	adds	r3, #4
     12c:	4293      	cmp	r3, r2
     12e:	d3fa      	bcc.n	126 <data_init+0x6>
     130:	bd10      	pop	{r4, pc}

00000132 <bss_init>:
     132:	2300      	movs	r3, #0
     134:	e002      	b.n	13c <bss_init+0xa>
     136:	2200      	movs	r2, #0
     138:	c004      	stmia	r0!, {r2}
     13a:	3304      	adds	r3, #4
     13c:	428b      	cmp	r3, r1
     13e:	d3fa      	bcc.n	136 <bss_init+0x4>
     140:	4770      	bx	lr

00000142 <NMI_Handler>:
     142:	e7fe      	b.n	142 <NMI_Handler>
     144:	e7fe      	b.n	144 <NMI_Handler+0x2>

00000146 <SVC_Handler>:
     146:	e7fe      	b.n	146 <SVC_Handler>

00000148 <PendSV_Handler>:
     148:	e7fe      	b.n	148 <PendSV_Handler>
     14a:	e7fe      	b.n	14a <PendSV_Handler+0x2>

0000014c <ADC0_DriverIRQHandler>:
     14c:	e7fe      	b.n	14c <ADC0_DriverIRQHandler>

0000014e <DMA0_IRQHandler>:
     14e:	b510      	push	{r4, lr}
     150:	f7ff fffc 	bl	14c <ADC0_DriverIRQHandler>
     154:	bd10      	pop	{r4, pc}

00000156 <DMA1_IRQHandler>:
     156:	b510      	push	{r4, lr}
     158:	f7ff fff8 	bl	14c <ADC0_DriverIRQHandler>
     15c:	bd10      	pop	{r4, pc}

0000015e <DMA2_IRQHandler>:
     15e:	b510      	push	{r4, lr}
     160:	f7ff fff4 	bl	14c <ADC0_DriverIRQHandler>
     164:	bd10      	pop	{r4, pc}

00000166 <DMA3_IRQHandler>:
     166:	b510      	push	{r4, lr}
     168:	f7ff fff0 	bl	14c <ADC0_DriverIRQHandler>
     16c:	bd10      	pop	{r4, pc}

0000016e <Reserved20_IRQHandler>:
     16e:	b510      	push	{r4, lr}
     170:	f7ff ffec 	bl	14c <ADC0_DriverIRQHandler>
     174:	bd10      	pop	{r4, pc}

00000176 <FTFA_IRQHandler>:
     176:	b510      	push	{r4, lr}
     178:	f7ff ffe8 	bl	14c <ADC0_DriverIRQHandler>
     17c:	bd10      	pop	{r4, pc}

0000017e <LVD_LVW_IRQHandler>:
     17e:	b510      	push	{r4, lr}
     180:	f7ff ffe4 	bl	14c <ADC0_DriverIRQHandler>
     184:	bd10      	pop	{r4, pc}

00000186 <LLWU_IRQHandler>:
     186:	b510      	push	{r4, lr}
     188:	f7ff ffe0 	bl	14c <ADC0_DriverIRQHandler>
     18c:	bd10      	pop	{r4, pc}

0000018e <I2C0_IRQHandler>:
     18e:	b510      	push	{r4, lr}
     190:	f7ff ffdc 	bl	14c <ADC0_DriverIRQHandler>
     194:	bd10      	pop	{r4, pc}

00000196 <I2C1_IRQHandler>:
     196:	b510      	push	{r4, lr}
     198:	f7ff ffd8 	bl	14c <ADC0_DriverIRQHandler>
     19c:	bd10      	pop	{r4, pc}

0000019e <SPI0_IRQHandler>:
     19e:	b510      	push	{r4, lr}
     1a0:	f7ff ffd4 	bl	14c <ADC0_DriverIRQHandler>
     1a4:	bd10      	pop	{r4, pc}

000001a6 <SPI1_IRQHandler>:
     1a6:	b510      	push	{r4, lr}
     1a8:	f7ff ffd0 	bl	14c <ADC0_DriverIRQHandler>
     1ac:	bd10      	pop	{r4, pc}

000001ae <UART0_IRQHandler>:
     1ae:	b510      	push	{r4, lr}
     1b0:	f001 fda8 	bl	1d04 <UART0_DriverIRQHandler>
     1b4:	bd10      	pop	{r4, pc}

000001b6 <UART1_IRQHandler>:
     1b6:	b510      	push	{r4, lr}
     1b8:	f001 ff58 	bl	206c <UART1_DriverIRQHandler>
     1bc:	bd10      	pop	{r4, pc}

000001be <UART2_IRQHandler>:
     1be:	b510      	push	{r4, lr}
     1c0:	f001 ff66 	bl	2090 <UART2_DriverIRQHandler>
     1c4:	bd10      	pop	{r4, pc}

000001c6 <ADC0_IRQHandler>:
     1c6:	b510      	push	{r4, lr}
     1c8:	f7ff ffc0 	bl	14c <ADC0_DriverIRQHandler>
     1cc:	bd10      	pop	{r4, pc}

000001ce <CMP0_IRQHandler>:
     1ce:	b510      	push	{r4, lr}
     1d0:	f7ff ffbc 	bl	14c <ADC0_DriverIRQHandler>
     1d4:	bd10      	pop	{r4, pc}

000001d6 <TPM0_IRQHandler>:
     1d6:	b510      	push	{r4, lr}
     1d8:	f7ff ffb8 	bl	14c <ADC0_DriverIRQHandler>
     1dc:	bd10      	pop	{r4, pc}

000001de <TPM1_IRQHandler>:
     1de:	b510      	push	{r4, lr}
     1e0:	f7ff ffb4 	bl	14c <ADC0_DriverIRQHandler>
     1e4:	bd10      	pop	{r4, pc}

000001e6 <TPM2_IRQHandler>:
     1e6:	b510      	push	{r4, lr}
     1e8:	f7ff ffb0 	bl	14c <ADC0_DriverIRQHandler>
     1ec:	bd10      	pop	{r4, pc}

000001ee <RTC_IRQHandler>:
     1ee:	b510      	push	{r4, lr}
     1f0:	f7ff ffac 	bl	14c <ADC0_DriverIRQHandler>
     1f4:	bd10      	pop	{r4, pc}

000001f6 <RTC_Seconds_IRQHandler>:
     1f6:	b510      	push	{r4, lr}
     1f8:	f7ff ffa8 	bl	14c <ADC0_DriverIRQHandler>
     1fc:	bd10      	pop	{r4, pc}

000001fe <PIT_IRQHandler>:
     1fe:	b510      	push	{r4, lr}
     200:	f7ff ffa4 	bl	14c <ADC0_DriverIRQHandler>
     204:	bd10      	pop	{r4, pc}

00000206 <Reserved39_IRQHandler>:
     206:	b510      	push	{r4, lr}
     208:	f7ff ffa0 	bl	14c <ADC0_DriverIRQHandler>
     20c:	bd10      	pop	{r4, pc}

0000020e <USB0_IRQHandler>:
     20e:	b510      	push	{r4, lr}
     210:	f7ff ff9c 	bl	14c <ADC0_DriverIRQHandler>
     214:	bd10      	pop	{r4, pc}

00000216 <DAC0_IRQHandler>:
     216:	b510      	push	{r4, lr}
     218:	f7ff ff98 	bl	14c <ADC0_DriverIRQHandler>
     21c:	bd10      	pop	{r4, pc}

0000021e <TSI0_IRQHandler>:
     21e:	b510      	push	{r4, lr}
     220:	f7ff ff94 	bl	14c <ADC0_DriverIRQHandler>
     224:	bd10      	pop	{r4, pc}

00000226 <MCG_IRQHandler>:
     226:	b510      	push	{r4, lr}
     228:	f7ff ff90 	bl	14c <ADC0_DriverIRQHandler>
     22c:	bd10      	pop	{r4, pc}

0000022e <LPTMR0_IRQHandler>:
     22e:	b510      	push	{r4, lr}
     230:	f7ff ff8c 	bl	14c <ADC0_DriverIRQHandler>
     234:	bd10      	pop	{r4, pc}

00000236 <Reserved45_IRQHandler>:
     236:	b510      	push	{r4, lr}
     238:	f7ff ff88 	bl	14c <ADC0_DriverIRQHandler>
     23c:	bd10      	pop	{r4, pc}

0000023e <PORTA_IRQHandler>:
     23e:	b510      	push	{r4, lr}
     240:	f7ff ff84 	bl	14c <ADC0_DriverIRQHandler>
     244:	bd10      	pop	{r4, pc}

00000246 <PORTD_IRQHandler>:
     246:	b510      	push	{r4, lr}
     248:	f7ff ff80 	bl	14c <ADC0_DriverIRQHandler>
     24c:	bd10      	pop	{r4, pc}
     24e:	ffff ffff 			; <UNDEFINED> instruction: 0xffffffff
     252:	ffff ffff 			; <UNDEFINED> instruction: 0xffffffff
     256:	ffff ffff 			; <UNDEFINED> instruction: 0xffffffff
     25a:	ffff ffff 			; <UNDEFINED> instruction: 0xffffffff
     25e:	ffff ffff 			; <UNDEFINED> instruction: 0xffffffff
     262:	ffff ffff 			; <UNDEFINED> instruction: 0xffffffff
     266:	ffff ffff 			; <UNDEFINED> instruction: 0xffffffff
     26a:	ffff ffff 			; <UNDEFINED> instruction: 0xffffffff
     26e:	ffff ffff 			; <UNDEFINED> instruction: 0xffffffff
     272:	ffff ffff 			; <UNDEFINED> instruction: 0xffffffff
     276:	ffff ffff 			; <UNDEFINED> instruction: 0xffffffff
     27a:	ffff ffff 			; <UNDEFINED> instruction: 0xffffffff
     27e:	ffff ffff 			; <UNDEFINED> instruction: 0xffffffff
     282:	ffff ffff 			; <UNDEFINED> instruction: 0xffffffff
     286:	ffff ffff 			; <UNDEFINED> instruction: 0xffffffff
     28a:	ffff ffff 			; <UNDEFINED> instruction: 0xffffffff
     28e:	ffff ffff 			; <UNDEFINED> instruction: 0xffffffff
     292:	ffff ffff 			; <UNDEFINED> instruction: 0xffffffff
     296:	ffff ffff 			; <UNDEFINED> instruction: 0xffffffff
     29a:	ffff ffff 			; <UNDEFINED> instruction: 0xffffffff
     29e:	ffff ffff 			; <UNDEFINED> instruction: 0xffffffff
     2a2:	ffff ffff 			; <UNDEFINED> instruction: 0xffffffff
     2a6:	ffff ffff 			; <UNDEFINED> instruction: 0xffffffff
     2aa:	ffff ffff 			; <UNDEFINED> instruction: 0xffffffff
     2ae:	ffff ffff 			; <UNDEFINED> instruction: 0xffffffff
     2b2:	ffff ffff 			; <UNDEFINED> instruction: 0xffffffff
     2b6:	ffff ffff 			; <UNDEFINED> instruction: 0xffffffff
     2ba:	ffff ffff 			; <UNDEFINED> instruction: 0xffffffff
     2be:	ffff ffff 			; <UNDEFINED> instruction: 0xffffffff
     2c2:	ffff ffff 			; <UNDEFINED> instruction: 0xffffffff
     2c6:	ffff ffff 			; <UNDEFINED> instruction: 0xffffffff
     2ca:	ffff ffff 			; <UNDEFINED> instruction: 0xffffffff
     2ce:	ffff ffff 			; <UNDEFINED> instruction: 0xffffffff
     2d2:	ffff ffff 			; <UNDEFINED> instruction: 0xffffffff
     2d6:	ffff ffff 			; <UNDEFINED> instruction: 0xffffffff
     2da:	ffff ffff 			; <UNDEFINED> instruction: 0xffffffff
     2de:	ffff ffff 			; <UNDEFINED> instruction: 0xffffffff
     2e2:	ffff ffff 			; <UNDEFINED> instruction: 0xffffffff
     2e6:	ffff ffff 			; <UNDEFINED> instruction: 0xffffffff
     2ea:	ffff ffff 			; <UNDEFINED> instruction: 0xffffffff
     2ee:	ffff ffff 			; <UNDEFINED> instruction: 0xffffffff
     2f2:	ffff ffff 			; <UNDEFINED> instruction: 0xffffffff
     2f6:	ffff ffff 			; <UNDEFINED> instruction: 0xffffffff
     2fa:	ffff ffff 			; <UNDEFINED> instruction: 0xffffffff
     2fe:	ffff ffff 			; <UNDEFINED> instruction: 0xffffffff
     302:	ffff ffff 			; <UNDEFINED> instruction: 0xffffffff
     306:	ffff ffff 			; <UNDEFINED> instruction: 0xffffffff
     30a:	ffff ffff 			; <UNDEFINED> instruction: 0xffffffff
     30e:	ffff ffff 			; <UNDEFINED> instruction: 0xffffffff
     312:	ffff ffff 			; <UNDEFINED> instruction: 0xffffffff
     316:	ffff ffff 			; <UNDEFINED> instruction: 0xffffffff
     31a:	ffff ffff 			; <UNDEFINED> instruction: 0xffffffff
     31e:	ffff ffff 			; <UNDEFINED> instruction: 0xffffffff
     322:	ffff ffff 			; <UNDEFINED> instruction: 0xffffffff
     326:	ffff ffff 			; <UNDEFINED> instruction: 0xffffffff
     32a:	ffff ffff 			; <UNDEFINED> instruction: 0xffffffff
     32e:	ffff ffff 			; <UNDEFINED> instruction: 0xffffffff
     332:	ffff ffff 			; <UNDEFINED> instruction: 0xffffffff
     336:	ffff ffff 			; <UNDEFINED> instruction: 0xffffffff
     33a:	ffff ffff 			; <UNDEFINED> instruction: 0xffffffff
     33e:	ffff ffff 			; <UNDEFINED> instruction: 0xffffffff
     342:	ffff ffff 			; <UNDEFINED> instruction: 0xffffffff
     346:	ffff ffff 			; <UNDEFINED> instruction: 0xffffffff
     34a:	ffff ffff 			; <UNDEFINED> instruction: 0xffffffff
     34e:	ffff ffff 			; <UNDEFINED> instruction: 0xffffffff
     352:	ffff ffff 			; <UNDEFINED> instruction: 0xffffffff
     356:	ffff ffff 			; <UNDEFINED> instruction: 0xffffffff
     35a:	ffff ffff 			; <UNDEFINED> instruction: 0xffffffff
     35e:	ffff ffff 			; <UNDEFINED> instruction: 0xffffffff
     362:	ffff ffff 			; <UNDEFINED> instruction: 0xffffffff
     366:	ffff ffff 			; <UNDEFINED> instruction: 0xffffffff
     36a:	ffff ffff 			; <UNDEFINED> instruction: 0xffffffff
     36e:	ffff ffff 			; <UNDEFINED> instruction: 0xffffffff
     372:	ffff ffff 			; <UNDEFINED> instruction: 0xffffffff
     376:	ffff ffff 			; <UNDEFINED> instruction: 0xffffffff
     37a:	ffff ffff 			; <UNDEFINED> instruction: 0xffffffff
     37e:	ffff ffff 			; <UNDEFINED> instruction: 0xffffffff
     382:	ffff ffff 			; <UNDEFINED> instruction: 0xffffffff
     386:	ffff ffff 			; <UNDEFINED> instruction: 0xffffffff
     38a:	ffff ffff 			; <UNDEFINED> instruction: 0xffffffff
     38e:	ffff ffff 			; <UNDEFINED> instruction: 0xffffffff
     392:	ffff ffff 			; <UNDEFINED> instruction: 0xffffffff
     396:	ffff ffff 			; <UNDEFINED> instruction: 0xffffffff
     39a:	ffff ffff 			; <UNDEFINED> instruction: 0xffffffff
     39e:	ffff ffff 			; <UNDEFINED> instruction: 0xffffffff
     3a2:	ffff ffff 			; <UNDEFINED> instruction: 0xffffffff
     3a6:	ffff ffff 			; <UNDEFINED> instruction: 0xffffffff
     3aa:	ffff ffff 			; <UNDEFINED> instruction: 0xffffffff
     3ae:	ffff ffff 			; <UNDEFINED> instruction: 0xffffffff
     3b2:	ffff ffff 			; <UNDEFINED> instruction: 0xffffffff
     3b6:	ffff ffff 			; <UNDEFINED> instruction: 0xffffffff
     3ba:	ffff ffff 			; <UNDEFINED> instruction: 0xffffffff
     3be:	ffff ffff 			; <UNDEFINED> instruction: 0xffffffff
     3c2:	ffff ffff 			; <UNDEFINED> instruction: 0xffffffff
     3c6:	ffff ffff 			; <UNDEFINED> instruction: 0xffffffff
     3ca:	ffff ffff 			; <UNDEFINED> instruction: 0xffffffff
     3ce:	ffff ffff 			; <UNDEFINED> instruction: 0xffffffff
     3d2:	ffff ffff 			; <UNDEFINED> instruction: 0xffffffff
     3d6:	ffff ffff 			; <UNDEFINED> instruction: 0xffffffff
     3da:	ffff ffff 			; <UNDEFINED> instruction: 0xffffffff
     3de:	ffff ffff 			; <UNDEFINED> instruction: 0xffffffff
     3e2:	ffff ffff 			; <UNDEFINED> instruction: 0xffffffff
     3e6:	ffff ffff 			; <UNDEFINED> instruction: 0xffffffff
     3ea:	ffff ffff 			; <UNDEFINED> instruction: 0xffffffff
     3ee:	ffff ffff 			; <UNDEFINED> instruction: 0xffffffff
     3f2:	ffff ffff 			; <UNDEFINED> instruction: 0xffffffff
     3f6:	ffff ffff 			; <UNDEFINED> instruction: 0xffffffff
     3fa:	ffff ffff 			; <UNDEFINED> instruction: 0xffffffff
     3fe:	Address 0x000003fe is out of bounds.


00000400 <Flash_Config>:
     400:	ffff ffff ffff ffff ffff ffff fffe ffff     ................

00000410 <DbgConsole_Init>:
     410:	b590      	push	{r4, r7, lr}
     412:	b089      	sub	sp, #36	; 0x24
     414:	af00      	add	r7, sp, #0
     416:	60f8      	str	r0, [r7, #12]
     418:	60b9      	str	r1, [r7, #8]
     41a:	603b      	str	r3, [r7, #0]
     41c:	1dfb      	adds	r3, r7, #7
     41e:	701a      	strb	r2, [r3, #0]
     420:	4b33      	ldr	r3, [pc, #204]	; (4f0 <DbgConsole_Init+0xe0>)
     422:	781b      	ldrb	r3, [r3, #0]
     424:	2b00      	cmp	r3, #0
     426:	d001      	beq.n	42c <DbgConsole_Init+0x1c>
     428:	2301      	movs	r3, #1
     42a:	e05c      	b.n	4e6 <DbgConsole_Init+0xd6>
     42c:	4b30      	ldr	r3, [pc, #192]	; (4f0 <DbgConsole_Init+0xe0>)
     42e:	1dfa      	adds	r2, r7, #7
     430:	7812      	ldrb	r2, [r2, #0]
     432:	701a      	strb	r2, [r3, #0]
     434:	1dfb      	adds	r3, r7, #7
     436:	781b      	ldrb	r3, [r3, #0]
     438:	2b06      	cmp	r3, #6
     43a:	d005      	beq.n	448 <DbgConsole_Init+0x38>
     43c:	dc50      	bgt.n	4e0 <DbgConsole_Init+0xd0>
     43e:	2b01      	cmp	r3, #1
     440:	d002      	beq.n	448 <DbgConsole_Init+0x38>
     442:	2b03      	cmp	r3, #3
     444:	d026      	beq.n	494 <DbgConsole_Init+0x84>
     446:	e04b      	b.n	4e0 <DbgConsole_Init+0xd0>
     448:	68fa      	ldr	r2, [r7, #12]
     44a:	4b29      	ldr	r3, [pc, #164]	; (4f0 <DbgConsole_Init+0xe0>)
     44c:	605a      	str	r2, [r3, #4]
     44e:	2418      	movs	r4, #24
     450:	193b      	adds	r3, r7, r4
     452:	0018      	movs	r0, r3
     454:	f001 fd9c 	bl	1f90 <UART_GetDefaultConfig>
     458:	0021      	movs	r1, r4
     45a:	187b      	adds	r3, r7, r1
     45c:	68ba      	ldr	r2, [r7, #8]
     45e:	601a      	str	r2, [r3, #0]
     460:	4b23      	ldr	r3, [pc, #140]	; (4f0 <DbgConsole_Init+0xe0>)
     462:	685b      	ldr	r3, [r3, #4]
     464:	683a      	ldr	r2, [r7, #0]
     466:	1879      	adds	r1, r7, r1
     468:	0018      	movs	r0, r3
     46a:	f001 fca1 	bl	1db0 <UART_Init>
     46e:	4b20      	ldr	r3, [pc, #128]	; (4f0 <DbgConsole_Init+0xe0>)
     470:	685b      	ldr	r3, [r3, #4]
     472:	2101      	movs	r1, #1
     474:	0018      	movs	r0, r3
     476:	f003 fa3f 	bl	38f8 <UART_EnableTx>
     47a:	4b1d      	ldr	r3, [pc, #116]	; (4f0 <DbgConsole_Init+0xe0>)
     47c:	685b      	ldr	r3, [r3, #4]
     47e:	2101      	movs	r1, #1
     480:	0018      	movs	r0, r3
     482:	f003 fa59 	bl	3938 <UART_EnableRx>
     486:	4b1a      	ldr	r3, [pc, #104]	; (4f0 <DbgConsole_Init+0xe0>)
     488:	4a1a      	ldr	r2, [pc, #104]	; (4f4 <DbgConsole_Init+0xe4>)
     48a:	609a      	str	r2, [r3, #8]
     48c:	4b18      	ldr	r3, [pc, #96]	; (4f0 <DbgConsole_Init+0xe0>)
     48e:	4a1a      	ldr	r2, [pc, #104]	; (4f8 <DbgConsole_Init+0xe8>)
     490:	60da      	str	r2, [r3, #12]
     492:	e027      	b.n	4e4 <DbgConsole_Init+0xd4>
     494:	68fa      	ldr	r2, [r7, #12]
     496:	4b16      	ldr	r3, [pc, #88]	; (4f0 <DbgConsole_Init+0xe0>)
     498:	605a      	str	r2, [r3, #4]
     49a:	2410      	movs	r4, #16
     49c:	193b      	adds	r3, r7, r4
     49e:	0018      	movs	r0, r3
     4a0:	f001 fb3e 	bl	1b20 <LPSCI_GetDefaultConfig>
     4a4:	0021      	movs	r1, r4
     4a6:	187b      	adds	r3, r7, r1
     4a8:	68ba      	ldr	r2, [r7, #8]
     4aa:	601a      	str	r2, [r3, #0]
     4ac:	4b10      	ldr	r3, [pc, #64]	; (4f0 <DbgConsole_Init+0xe0>)
     4ae:	685b      	ldr	r3, [r3, #4]
     4b0:	683a      	ldr	r2, [r7, #0]
     4b2:	1879      	adds	r1, r7, r1
     4b4:	0018      	movs	r0, r3
     4b6:	f001 fa07 	bl	18c8 <LPSCI_Init>
     4ba:	4b0d      	ldr	r3, [pc, #52]	; (4f0 <DbgConsole_Init+0xe0>)
     4bc:	685b      	ldr	r3, [r3, #4]
     4be:	2101      	movs	r1, #1
     4c0:	0018      	movs	r0, r3
     4c2:	f003 fa59 	bl	3978 <LPSCI_EnableTx>
     4c6:	4b0a      	ldr	r3, [pc, #40]	; (4f0 <DbgConsole_Init+0xe0>)
     4c8:	685b      	ldr	r3, [r3, #4]
     4ca:	2101      	movs	r1, #1
     4cc:	0018      	movs	r0, r3
     4ce:	f003 fa73 	bl	39b8 <LPSCI_EnableRx>
     4d2:	4b07      	ldr	r3, [pc, #28]	; (4f0 <DbgConsole_Init+0xe0>)
     4d4:	4a09      	ldr	r2, [pc, #36]	; (4fc <DbgConsole_Init+0xec>)
     4d6:	609a      	str	r2, [r3, #8]
     4d8:	4b05      	ldr	r3, [pc, #20]	; (4f0 <DbgConsole_Init+0xe0>)
     4da:	4a09      	ldr	r2, [pc, #36]	; (500 <DbgConsole_Init+0xf0>)
     4dc:	60da      	str	r2, [r3, #12]
     4de:	e001      	b.n	4e4 <DbgConsole_Init+0xd4>
     4e0:	2304      	movs	r3, #4
     4e2:	e000      	b.n	4e6 <DbgConsole_Init+0xd6>
     4e4:	2300      	movs	r3, #0
     4e6:	0018      	movs	r0, r3
     4e8:	46bd      	mov	sp, r7
     4ea:	b009      	add	sp, #36	; 0x24
     4ec:	bd90      	pop	{r4, r7, pc}
     4ee:	46c0      	nop			; (mov r8, r8)
     4f0:	1ffff088 	.word	0x1ffff088
     4f4:	00004093 	.word	0x00004093
     4f8:	00001fd5 	.word	0x00001fd5
     4fc:	00001bf9 	.word	0x00001bf9
     500:	00001c45 	.word	0x00001c45

00000504 <__sys_write>:
     504:	b590      	push	{r4, r7, lr}
     506:	b085      	sub	sp, #20
     508:	af00      	add	r7, sp, #0
     50a:	60f8      	str	r0, [r7, #12]
     50c:	60b9      	str	r1, [r7, #8]
     50e:	607a      	str	r2, [r7, #4]
     510:	68bb      	ldr	r3, [r7, #8]
     512:	2b00      	cmp	r3, #0
     514:	d102      	bne.n	51c <__sys_write+0x18>
     516:	2301      	movs	r3, #1
     518:	425b      	negs	r3, r3
     51a:	e018      	b.n	54e <__sys_write+0x4a>
     51c:	68fb      	ldr	r3, [r7, #12]
     51e:	2b01      	cmp	r3, #1
     520:	d005      	beq.n	52e <__sys_write+0x2a>
     522:	68fb      	ldr	r3, [r7, #12]
     524:	2b02      	cmp	r3, #2
     526:	d002      	beq.n	52e <__sys_write+0x2a>
     528:	2301      	movs	r3, #1
     52a:	425b      	negs	r3, r3
     52c:	e00f      	b.n	54e <__sys_write+0x4a>
     52e:	4b0a      	ldr	r3, [pc, #40]	; (558 <__sys_write+0x54>)
     530:	781b      	ldrb	r3, [r3, #0]
     532:	2b00      	cmp	r3, #0
     534:	d102      	bne.n	53c <__sys_write+0x38>
     536:	2301      	movs	r3, #1
     538:	425b      	negs	r3, r3
     53a:	e008      	b.n	54e <__sys_write+0x4a>
     53c:	4b06      	ldr	r3, [pc, #24]	; (558 <__sys_write+0x54>)
     53e:	689c      	ldr	r4, [r3, #8]
     540:	4b05      	ldr	r3, [pc, #20]	; (558 <__sys_write+0x54>)
     542:	685b      	ldr	r3, [r3, #4]
     544:	687a      	ldr	r2, [r7, #4]
     546:	68b9      	ldr	r1, [r7, #8]
     548:	0018      	movs	r0, r3
     54a:	47a0      	blx	r4
     54c:	2300      	movs	r3, #0
     54e:	0018      	movs	r0, r3
     550:	46bd      	mov	sp, r7
     552:	b005      	add	sp, #20
     554:	bd90      	pop	{r4, r7, pc}
     556:	46c0      	nop			; (mov r8, r8)
     558:	1ffff088 	.word	0x1ffff088

0000055c <ISHAReset>:
     55c:	b580      	push	{r7, lr}
     55e:	b082      	sub	sp, #8
     560:	af00      	add	r7, sp, #0
     562:	6078      	str	r0, [r7, #4]
     564:	6879      	ldr	r1, [r7, #4]
     566:	2200      	movs	r2, #0
     568:	2300      	movs	r3, #0
     56a:	618a      	str	r2, [r1, #24]
     56c:	61cb      	str	r3, [r1, #28]
     56e:	687b      	ldr	r3, [r7, #4]
     570:	2200      	movs	r2, #0
     572:	661a      	str	r2, [r3, #96]	; 0x60
     574:	687b      	ldr	r3, [r7, #4]
     576:	4a0c      	ldr	r2, [pc, #48]	; (5a8 <ISHAReset+0x4c>)
     578:	601a      	str	r2, [r3, #0]
     57a:	687b      	ldr	r3, [r7, #4]
     57c:	4a0b      	ldr	r2, [pc, #44]	; (5ac <ISHAReset+0x50>)
     57e:	605a      	str	r2, [r3, #4]
     580:	687b      	ldr	r3, [r7, #4]
     582:	4a0b      	ldr	r2, [pc, #44]	; (5b0 <ISHAReset+0x54>)
     584:	609a      	str	r2, [r3, #8]
     586:	687b      	ldr	r3, [r7, #4]
     588:	4a0a      	ldr	r2, [pc, #40]	; (5b4 <ISHAReset+0x58>)
     58a:	60da      	str	r2, [r3, #12]
     58c:	687b      	ldr	r3, [r7, #4]
     58e:	4a0a      	ldr	r2, [pc, #40]	; (5b8 <ISHAReset+0x5c>)
     590:	611a      	str	r2, [r3, #16]
     592:	687b      	ldr	r3, [r7, #4]
     594:	2200      	movs	r2, #0
     596:	665a      	str	r2, [r3, #100]	; 0x64
     598:	687b      	ldr	r3, [r7, #4]
     59a:	2200      	movs	r2, #0
     59c:	669a      	str	r2, [r3, #104]	; 0x68
     59e:	46c0      	nop			; (mov r8, r8)
     5a0:	46bd      	mov	sp, r7
     5a2:	b002      	add	sp, #8
     5a4:	bd80      	pop	{r7, pc}
     5a6:	46c0      	nop			; (mov r8, r8)
     5a8:	67452301 	.word	0x67452301
     5ac:	efcdab89 	.word	0xefcdab89
     5b0:	98badcfe 	.word	0x98badcfe
     5b4:	10325476 	.word	0x10325476
     5b8:	c3d2e1f0 	.word	0xc3d2e1f0

000005bc <time_pbkdf2_hmac_isha>:
     5bc:	b5f0      	push	{r4, r5, r6, r7, lr}
     5be:	4c47      	ldr	r4, [pc, #284]	; (6dc <time_pbkdf2_hmac_isha+0x120>)
     5c0:	44a5      	add	sp, r4
     5c2:	af04      	add	r7, sp, #16
     5c4:	4b46      	ldr	r3, [pc, #280]	; (6e0 <time_pbkdf2_hmac_isha+0x124>)
     5c6:	4a47      	ldr	r2, [pc, #284]	; (6e4 <time_pbkdf2_hmac_isha+0x128>)
     5c8:	18ba      	adds	r2, r7, r2
     5ca:	6013      	str	r3, [r2, #0]
     5cc:	4b46      	ldr	r3, [pc, #280]	; (6e8 <time_pbkdf2_hmac_isha+0x12c>)
     5ce:	2283      	movs	r2, #131	; 0x83
     5d0:	00d2      	lsls	r2, r2, #3
     5d2:	18ba      	adds	r2, r7, r2
     5d4:	6013      	str	r3, [r2, #0]
     5d6:	2380      	movs	r3, #128	; 0x80
     5d8:	015b      	lsls	r3, r3, #5
     5da:	4a44      	ldr	r2, [pc, #272]	; (6ec <time_pbkdf2_hmac_isha+0x130>)
     5dc:	18ba      	adds	r2, r7, r2
     5de:	6013      	str	r3, [r2, #0]
     5e0:	2330      	movs	r3, #48	; 0x30
     5e2:	2282      	movs	r2, #130	; 0x82
     5e4:	00d2      	lsls	r2, r2, #3
     5e6:	18b9      	adds	r1, r7, r2
     5e8:	600b      	str	r3, [r1, #0]
     5ea:	4b41      	ldr	r3, [pc, #260]	; (6f0 <time_pbkdf2_hmac_isha+0x134>)
     5ec:	4941      	ldr	r1, [pc, #260]	; (6f4 <time_pbkdf2_hmac_isha+0x138>)
     5ee:	1879      	adds	r1, r7, r1
     5f0:	600b      	str	r3, [r1, #0]
     5f2:	2300      	movs	r3, #0
     5f4:	2181      	movs	r1, #129	; 0x81
     5f6:	00c9      	lsls	r1, r1, #3
     5f8:	1879      	adds	r1, r7, r1
     5fa:	600b      	str	r3, [r1, #0]
     5fc:	18bb      	adds	r3, r7, r2
     5fe:	681a      	ldr	r2, [r3, #0]
     600:	2380      	movs	r3, #128	; 0x80
     602:	009b      	lsls	r3, r3, #2
     604:	429a      	cmp	r2, r3
     606:	d903      	bls.n	610 <time_pbkdf2_hmac_isha+0x54>
     608:	4b3b      	ldr	r3, [pc, #236]	; (6f8 <time_pbkdf2_hmac_isha+0x13c>)
     60a:	0018      	movs	r0, r3
     60c:	f001 fe60 	bl	22d0 <__assertion_failed>
     610:	2582      	movs	r5, #130	; 0x82
     612:	00ed      	lsls	r5, r5, #3
     614:	197b      	adds	r3, r7, r5
     616:	681a      	ldr	r2, [r3, #0]
     618:	4b36      	ldr	r3, [pc, #216]	; (6f4 <time_pbkdf2_hmac_isha+0x138>)
     61a:	18fb      	adds	r3, r7, r3
     61c:	6819      	ldr	r1, [r3, #0]
     61e:	003b      	movs	r3, r7
     620:	0018      	movs	r0, r3
     622:	f003 fc8b 	bl	3f3c <hexstr_to_bytes>
     626:	4e2f      	ldr	r6, [pc, #188]	; (6e4 <time_pbkdf2_hmac_isha+0x128>)
     628:	19bb      	adds	r3, r7, r6
     62a:	681b      	ldr	r3, [r3, #0]
     62c:	0018      	movs	r0, r3
     62e:	f003 f85b 	bl	36e8 <strlen>
     632:	0003      	movs	r3, r0
     634:	4c31      	ldr	r4, [pc, #196]	; (6fc <time_pbkdf2_hmac_isha+0x140>)
     636:	193a      	adds	r2, r7, r4
     638:	6013      	str	r3, [r2, #0]
     63a:	2383      	movs	r3, #131	; 0x83
     63c:	00db      	lsls	r3, r3, #3
     63e:	18fa      	adds	r2, r7, r3
     640:	6813      	ldr	r3, [r2, #0]
     642:	0018      	movs	r0, r3
     644:	f003 f850 	bl	36e8 <strlen>
     648:	0003      	movs	r3, r0
     64a:	2280      	movs	r2, #128	; 0x80
     64c:	00d2      	lsls	r2, r2, #3
     64e:	18b9      	adds	r1, r7, r2
     650:	600b      	str	r3, [r1, #0]
     652:	f000 fd93 	bl	117c <reset_timer>
     656:	1939      	adds	r1, r7, r4
     658:	6809      	ldr	r1, [r1, #0]
     65a:	2280      	movs	r2, #128	; 0x80
     65c:	00d2      	lsls	r2, r2, #3
     65e:	18ba      	adds	r2, r7, r2
     660:	6814      	ldr	r4, [r2, #0]
     662:	2383      	movs	r3, #131	; 0x83
     664:	00db      	lsls	r3, r3, #3
     666:	18fb      	adds	r3, r7, r3
     668:	681a      	ldr	r2, [r3, #0]
     66a:	19bb      	adds	r3, r7, r6
     66c:	6818      	ldr	r0, [r3, #0]
     66e:	2680      	movs	r6, #128	; 0x80
     670:	00b6      	lsls	r6, r6, #2
     672:	19bb      	adds	r3, r7, r6
     674:	9302      	str	r3, [sp, #8]
     676:	197b      	adds	r3, r7, r5
     678:	681b      	ldr	r3, [r3, #0]
     67a:	9301      	str	r3, [sp, #4]
     67c:	4b1b      	ldr	r3, [pc, #108]	; (6ec <time_pbkdf2_hmac_isha+0x130>)
     67e:	18fb      	adds	r3, r7, r3
     680:	681b      	ldr	r3, [r3, #0]
     682:	9300      	str	r3, [sp, #0]
     684:	0023      	movs	r3, r4
     686:	f000 f935 	bl	8f4 <pbkdf2_hmac_isha>
     68a:	f000 fd85 	bl	1198 <get_timer>
     68e:	0003      	movs	r3, r0
     690:	2481      	movs	r4, #129	; 0x81
     692:	00e4      	lsls	r4, r4, #3
     694:	1939      	adds	r1, r7, r4
     696:	600b      	str	r3, [r1, #0]
     698:	1979      	adds	r1, r7, r5
     69a:	680a      	ldr	r2, [r1, #0]
     69c:	0039      	movs	r1, r7
     69e:	19bb      	adds	r3, r7, r6
     6a0:	0018      	movs	r0, r3
     6a2:	f003 fc2a 	bl	3efa <cmp_bin>
     6a6:	1e03      	subs	r3, r0, #0
     6a8:	d00e      	beq.n	6c8 <time_pbkdf2_hmac_isha+0x10c>
     6aa:	1939      	adds	r1, r7, r4
     6ac:	680b      	ldr	r3, [r1, #0]
     6ae:	210a      	movs	r1, #10
     6b0:	0018      	movs	r0, r3
     6b2:	f003 fd68 	bl	4186 <__aeabi_uidiv>
     6b6:	0003      	movs	r3, r0
     6b8:	4a0c      	ldr	r2, [pc, #48]	; (6ec <time_pbkdf2_hmac_isha+0x130>)
     6ba:	18ba      	adds	r2, r7, r2
     6bc:	6812      	ldr	r2, [r2, #0]
     6be:	4910      	ldr	r1, [pc, #64]	; (700 <time_pbkdf2_hmac_isha+0x144>)
     6c0:	4810      	ldr	r0, [pc, #64]	; (704 <time_pbkdf2_hmac_isha+0x148>)
     6c2:	f002 ffad 	bl	3620 <_printf>
     6c6:	e003      	b.n	6d0 <time_pbkdf2_hmac_isha+0x114>
     6c8:	4b0f      	ldr	r3, [pc, #60]	; (708 <time_pbkdf2_hmac_isha+0x14c>)
     6ca:	0018      	movs	r0, r3
     6cc:	f002 ffa8 	bl	3620 <_printf>
     6d0:	46c0      	nop			; (mov r8, r8)
     6d2:	46bd      	mov	sp, r7
     6d4:	4b0d      	ldr	r3, [pc, #52]	; (70c <time_pbkdf2_hmac_isha+0x150>)
     6d6:	449d      	add	sp, r3
     6d8:	bdf0      	pop	{r4, r5, r6, r7, pc}
     6da:	46c0      	nop			; (mov r8, r8)
     6dc:	fffffbcc 	.word	0xfffffbcc
     6e0:	000042d8 	.word	0x000042d8
     6e4:	0000041c 	.word	0x0000041c
     6e8:	000042e0 	.word	0x000042e0
     6ec:	00000414 	.word	0x00000414
     6f0:	000042ec 	.word	0x000042ec
     6f4:	0000040c 	.word	0x0000040c
     6f8:	00004350 	.word	0x00004350
     6fc:	00000404 	.word	0x00000404
     700:	00004428 	.word	0x00004428
     704:	0000437c 	.word	0x0000437c
     708:	000043a0 	.word	0x000043a0
     70c:	00000424 	.word	0x00000424

00000710 <run_tests>:
     710:	b580      	push	{r7, lr}
     712:	b082      	sub	sp, #8
     714:	af00      	add	r7, sp, #0
     716:	1dfb      	adds	r3, r7, #7
     718:	2201      	movs	r2, #1
     71a:	701a      	strb	r2, [r3, #0]
     71c:	f000 f980 	bl	a20 <test_isha>
     720:	0003      	movs	r3, r0
     722:	001a      	movs	r2, r3
     724:	1dfb      	adds	r3, r7, #7
     726:	781b      	ldrb	r3, [r3, #0]
     728:	401a      	ands	r2, r3
     72a:	1dfb      	adds	r3, r7, #7
     72c:	1e51      	subs	r1, r2, #1
     72e:	418a      	sbcs	r2, r1
     730:	701a      	strb	r2, [r3, #0]
     732:	f000 fa93 	bl	c5c <test_hmac_isha>
     736:	0003      	movs	r3, r0
     738:	001a      	movs	r2, r3
     73a:	1dfb      	adds	r3, r7, #7
     73c:	781b      	ldrb	r3, [r3, #0]
     73e:	401a      	ands	r2, r3
     740:	1dfb      	adds	r3, r7, #7
     742:	1e51      	subs	r1, r2, #1
     744:	418a      	sbcs	r2, r1
     746:	701a      	strb	r2, [r3, #0]
     748:	f000 fb10 	bl	d6c <test_pbkdf2_hmac_isha>
     74c:	0003      	movs	r3, r0
     74e:	001a      	movs	r2, r3
     750:	1dfb      	adds	r3, r7, #7
     752:	781b      	ldrb	r3, [r3, #0]
     754:	401a      	ands	r2, r3
     756:	1dfb      	adds	r3, r7, #7
     758:	1e51      	subs	r1, r2, #1
     75a:	418a      	sbcs	r2, r1
     75c:	701a      	strb	r2, [r3, #0]
     75e:	1dfb      	adds	r3, r7, #7
     760:	781b      	ldrb	r3, [r3, #0]
     762:	2b00      	cmp	r3, #0
     764:	d109      	bne.n	77a <run_tests+0x6a>
     766:	4b07      	ldr	r3, [pc, #28]	; (784 <run_tests+0x74>)
     768:	0018      	movs	r0, r3
     76a:	f002 ff59 	bl	3620 <_printf>
     76e:	2301      	movs	r3, #1
     770:	425b      	negs	r3, r3
     772:	0018      	movs	r0, r3
     774:	f002 ffa2 	bl	36bc <exit>
     778:	e000      	b.n	77c <run_tests+0x6c>
     77a:	46c0      	nop			; (mov r8, r8)
     77c:	46bd      	mov	sp, r7
     77e:	b002      	add	sp, #8
     780:	bd80      	pop	{r7, pc}
     782:	46c0      	nop			; (mov r8, r8)
     784:	000043b8 	.word	0x000043b8

00000788 <main>:
     788:	b580      	push	{r7, lr}
     78a:	af00      	add	r7, sp, #0
     78c:	f003 fcab 	bl	40e6 <BOARD_InitBootPins>
     790:	f003 fc9d 	bl	40ce <BOARD_InitBootClocks>
     794:	f003 fca2 	bl	40dc <BOARD_InitBootPeripherals>
     798:	f001 fca8 	bl	20ec <BOARD_InitDebugConsole>
     79c:	f000 fcae 	bl	10fc <init_ticktime>
     7a0:	4b09      	ldr	r3, [pc, #36]	; (7c8 <main+0x40>)
     7a2:	0018      	movs	r0, r3
     7a4:	f002 ff3c 	bl	3620 <_printf>
     7a8:	f7ff ffb2 	bl	710 <run_tests>
     7ac:	4b07      	ldr	r3, [pc, #28]	; (7cc <main+0x44>)
     7ae:	0018      	movs	r0, r3
     7b0:	f002 ff36 	bl	3620 <_printf>
     7b4:	4b06      	ldr	r3, [pc, #24]	; (7d0 <main+0x48>)
     7b6:	0018      	movs	r0, r3
     7b8:	f002 ff32 	bl	3620 <_printf>
     7bc:	f7ff fefe 	bl	5bc <time_pbkdf2_hmac_isha>
     7c0:	2300      	movs	r3, #0
     7c2:	0018      	movs	r0, r3
     7c4:	46bd      	mov	sp, r7
     7c6:	bd80      	pop	{r7, pc}
     7c8:	000043dc 	.word	0x000043dc
     7cc:	000043f8 	.word	0x000043f8
     7d0:	0000440c 	.word	0x0000440c

000007d4 <F>:
     7d4:	b590      	push	{r4, r7, lr}
     7d6:	b091      	sub	sp, #68	; 0x44
     7d8:	af02      	add	r7, sp, #8
     7da:	60f8      	str	r0, [r7, #12]
     7dc:	60b9      	str	r1, [r7, #8]
     7de:	607a      	str	r2, [r7, #4]
     7e0:	603b      	str	r3, [r7, #0]
     7e2:	2300      	movs	r3, #0
     7e4:	637b      	str	r3, [r7, #52]	; 0x34
     7e6:	683b      	ldr	r3, [r7, #0]
     7e8:	1d1a      	adds	r2, r3, #4
     7ea:	2380      	movs	r3, #128	; 0x80
     7ec:	011b      	lsls	r3, r3, #4
     7ee:	429a      	cmp	r2, r3
     7f0:	d90f      	bls.n	812 <F+0x3e>
     7f2:	4b3e      	ldr	r3, [pc, #248]	; (8ec <F+0x118>)
     7f4:	0018      	movs	r0, r3
     7f6:	f001 fd6b 	bl	22d0 <__assertion_failed>
     7fa:	687a      	ldr	r2, [r7, #4]
     7fc:	6b7b      	ldr	r3, [r7, #52]	; 0x34
     7fe:	18d3      	adds	r3, r2, r3
     800:	7819      	ldrb	r1, [r3, #0]
     802:	4a3b      	ldr	r2, [pc, #236]	; (8f0 <F+0x11c>)
     804:	6b7b      	ldr	r3, [r7, #52]	; 0x34
     806:	18d3      	adds	r3, r2, r3
     808:	1c0a      	adds	r2, r1, #0
     80a:	701a      	strb	r2, [r3, #0]
     80c:	6b7b      	ldr	r3, [r7, #52]	; 0x34
     80e:	3301      	adds	r3, #1
     810:	637b      	str	r3, [r7, #52]	; 0x34
     812:	6b7a      	ldr	r2, [r7, #52]	; 0x34
     814:	683b      	ldr	r3, [r7, #0]
     816:	429a      	cmp	r2, r3
     818:	d3ef      	bcc.n	7fa <F+0x26>
     81a:	6cfb      	ldr	r3, [r7, #76]	; 0x4c
     81c:	ba1b      	rev	r3, r3
     81e:	64fb      	str	r3, [r7, #76]	; 0x4c
     820:	234c      	movs	r3, #76	; 0x4c
     822:	18fb      	adds	r3, r7, r3
     824:	62bb      	str	r3, [r7, #40]	; 0x28
     826:	6abb      	ldr	r3, [r7, #40]	; 0x28
     828:	7819      	ldrb	r1, [r3, #0]
     82a:	4a31      	ldr	r2, [pc, #196]	; (8f0 <F+0x11c>)
     82c:	6b7b      	ldr	r3, [r7, #52]	; 0x34
     82e:	18d3      	adds	r3, r2, r3
     830:	1c0a      	adds	r2, r1, #0
     832:	701a      	strb	r2, [r3, #0]
     834:	6b7b      	ldr	r3, [r7, #52]	; 0x34
     836:	3301      	adds	r3, #1
     838:	6aba      	ldr	r2, [r7, #40]	; 0x28
     83a:	7851      	ldrb	r1, [r2, #1]
     83c:	4a2c      	ldr	r2, [pc, #176]	; (8f0 <F+0x11c>)
     83e:	54d1      	strb	r1, [r2, r3]
     840:	6b7b      	ldr	r3, [r7, #52]	; 0x34
     842:	3302      	adds	r3, #2
     844:	6aba      	ldr	r2, [r7, #40]	; 0x28
     846:	7891      	ldrb	r1, [r2, #2]
     848:	4a29      	ldr	r2, [pc, #164]	; (8f0 <F+0x11c>)
     84a:	54d1      	strb	r1, [r2, r3]
     84c:	6b7b      	ldr	r3, [r7, #52]	; 0x34
     84e:	3303      	adds	r3, #3
     850:	6aba      	ldr	r2, [r7, #40]	; 0x28
     852:	78d1      	ldrb	r1, [r2, #3]
     854:	4a26      	ldr	r2, [pc, #152]	; (8f0 <F+0x11c>)
     856:	54d1      	strb	r1, [r2, r3]
     858:	683b      	ldr	r3, [r7, #0]
     85a:	1d1c      	adds	r4, r3, #4
     85c:	4a24      	ldr	r2, [pc, #144]	; (8f0 <F+0x11c>)
     85e:	68b9      	ldr	r1, [r7, #8]
     860:	68f8      	ldr	r0, [r7, #12]
     862:	2314      	movs	r3, #20
     864:	18fb      	adds	r3, r7, r3
     866:	9300      	str	r3, [sp, #0]
     868:	0023      	movs	r3, r4
     86a:	f003 fad3 	bl	3e14 <hmac_isha>
     86e:	2314      	movs	r3, #20
     870:	637b      	str	r3, [r7, #52]	; 0x34
     872:	e008      	b.n	886 <F+0xb2>
     874:	6d3a      	ldr	r2, [r7, #80]	; 0x50
     876:	6b7b      	ldr	r3, [r7, #52]	; 0x34
     878:	18d3      	adds	r3, r2, r3
     87a:	2214      	movs	r2, #20
     87c:	18b9      	adds	r1, r7, r2
     87e:	6b7a      	ldr	r2, [r7, #52]	; 0x34
     880:	188a      	adds	r2, r1, r2
     882:	7812      	ldrb	r2, [r2, #0]
     884:	701a      	strb	r2, [r3, #0]
     886:	6b7b      	ldr	r3, [r7, #52]	; 0x34
     888:	1e5a      	subs	r2, r3, #1
     88a:	637a      	str	r2, [r7, #52]	; 0x34
     88c:	2b00      	cmp	r3, #0
     88e:	d1f1      	bne.n	874 <F+0xa0>
     890:	6cbb      	ldr	r3, [r7, #72]	; 0x48
     892:	633b      	str	r3, [r7, #48]	; 0x30
     894:	e01f      	b.n	8d6 <F+0x102>
     896:	2314      	movs	r3, #20
     898:	18fa      	adds	r2, r7, r3
     89a:	68b9      	ldr	r1, [r7, #8]
     89c:	68f8      	ldr	r0, [r7, #12]
     89e:	18fb      	adds	r3, r7, r3
     8a0:	9300      	str	r3, [sp, #0]
     8a2:	2314      	movs	r3, #20
     8a4:	f003 fab6 	bl	3e14 <hmac_isha>
     8a8:	2314      	movs	r3, #20
     8aa:	62fb      	str	r3, [r7, #44]	; 0x2c
     8ac:	e00e      	b.n	8cc <F+0xf8>
     8ae:	6afb      	ldr	r3, [r7, #44]	; 0x2c
     8b0:	6d3a      	ldr	r2, [r7, #80]	; 0x50
     8b2:	18d3      	adds	r3, r2, r3
     8b4:	7819      	ldrb	r1, [r3, #0]
     8b6:	2314      	movs	r3, #20
     8b8:	18fa      	adds	r2, r7, r3
     8ba:	6afb      	ldr	r3, [r7, #44]	; 0x2c
     8bc:	18d3      	adds	r3, r2, r3
     8be:	781a      	ldrb	r2, [r3, #0]
     8c0:	6afb      	ldr	r3, [r7, #44]	; 0x2c
     8c2:	6d38      	ldr	r0, [r7, #80]	; 0x50
     8c4:	18c3      	adds	r3, r0, r3
     8c6:	404a      	eors	r2, r1
     8c8:	b2d2      	uxtb	r2, r2
     8ca:	701a      	strb	r2, [r3, #0]
     8cc:	6afb      	ldr	r3, [r7, #44]	; 0x2c
     8ce:	1e5a      	subs	r2, r3, #1
     8d0:	62fa      	str	r2, [r7, #44]	; 0x2c
     8d2:	2b00      	cmp	r3, #0
     8d4:	d1eb      	bne.n	8ae <F+0xda>
     8d6:	6b3b      	ldr	r3, [r7, #48]	; 0x30
     8d8:	3b01      	subs	r3, #1
     8da:	633b      	str	r3, [r7, #48]	; 0x30
     8dc:	6b3b      	ldr	r3, [r7, #48]	; 0x30
     8de:	2b00      	cmp	r3, #0
     8e0:	d1d9      	bne.n	896 <F+0xc2>
     8e2:	46c0      	nop			; (mov r8, r8)
     8e4:	46c0      	nop			; (mov r8, r8)
     8e6:	46bd      	mov	sp, r7
     8e8:	b00f      	add	sp, #60	; 0x3c
     8ea:	bd90      	pop	{r4, r7, pc}
     8ec:	00004440 	.word	0x00004440
     8f0:	1ffff098 	.word	0x1ffff098

000008f4 <pbkdf2_hmac_isha>:
     8f4:	b5f0      	push	{r4, r5, r6, r7, lr}
     8f6:	4c28      	ldr	r4, [pc, #160]	; (998 <pbkdf2_hmac_isha+0xa4>)
     8f8:	44a5      	add	sp, r4
     8fa:	af04      	add	r7, sp, #16
     8fc:	60f8      	str	r0, [r7, #12]
     8fe:	60b9      	str	r1, [r7, #8]
     900:	607a      	str	r2, [r7, #4]
     902:	603b      	str	r3, [r7, #0]
     904:	4b25      	ldr	r3, [pc, #148]	; (99c <pbkdf2_hmac_isha+0xa8>)
     906:	18fb      	adds	r3, r7, r3
     908:	681a      	ldr	r2, [r3, #0]
     90a:	23a0      	movs	r3, #160	; 0xa0
     90c:	011b      	lsls	r3, r3, #4
     90e:	429a      	cmp	r2, r3
     910:	d303      	bcc.n	91a <pbkdf2_hmac_isha+0x26>
     912:	4b23      	ldr	r3, [pc, #140]	; (9a0 <pbkdf2_hmac_isha+0xac>)
     914:	0018      	movs	r0, r3
     916:	f001 fcdb 	bl	22d0 <__assertion_failed>
     91a:	4b20      	ldr	r3, [pc, #128]	; (99c <pbkdf2_hmac_isha+0xa8>)
     91c:	18fb      	adds	r3, r7, r3
     91e:	681b      	ldr	r3, [r3, #0]
     920:	2114      	movs	r1, #20
     922:	0018      	movs	r0, r3
     924:	f003 fc2f 	bl	4186 <__aeabi_uidiv>
     928:	0003      	movs	r3, r0
     92a:	1c5c      	adds	r4, r3, #1
     92c:	e016      	b.n	95c <pbkdf2_hmac_isha+0x68>
     92e:	1c62      	adds	r2, r4, #1
     930:	0023      	movs	r3, r4
     932:	009b      	lsls	r3, r3, #2
     934:	191b      	adds	r3, r3, r4
     936:	009b      	lsls	r3, r3, #2
     938:	0019      	movs	r1, r3
     93a:	2310      	movs	r3, #16
     93c:	18fb      	adds	r3, r7, r3
     93e:	185b      	adds	r3, r3, r1
     940:	683e      	ldr	r6, [r7, #0]
     942:	687d      	ldr	r5, [r7, #4]
     944:	68b9      	ldr	r1, [r7, #8]
     946:	68f8      	ldr	r0, [r7, #12]
     948:	9302      	str	r3, [sp, #8]
     94a:	9201      	str	r2, [sp, #4]
     94c:	4b15      	ldr	r3, [pc, #84]	; (9a4 <pbkdf2_hmac_isha+0xb0>)
     94e:	18fb      	adds	r3, r7, r3
     950:	681b      	ldr	r3, [r3, #0]
     952:	9300      	str	r3, [sp, #0]
     954:	0033      	movs	r3, r6
     956:	002a      	movs	r2, r5
     958:	f7ff ff3c 	bl	7d4 <F>
     95c:	0023      	movs	r3, r4
     95e:	1e5c      	subs	r4, r3, #1
     960:	2b00      	cmp	r3, #0
     962:	d1e4      	bne.n	92e <pbkdf2_hmac_isha+0x3a>
     964:	4b0d      	ldr	r3, [pc, #52]	; (99c <pbkdf2_hmac_isha+0xa8>)
     966:	18fb      	adds	r3, r7, r3
     968:	681c      	ldr	r4, [r3, #0]
     96a:	e00b      	b.n	984 <pbkdf2_hmac_isha+0x90>
     96c:	23a3      	movs	r3, #163	; 0xa3
     96e:	011b      	lsls	r3, r3, #4
     970:	18fb      	adds	r3, r7, r3
     972:	681b      	ldr	r3, [r3, #0]
     974:	191b      	adds	r3, r3, r4
     976:	4a0c      	ldr	r2, [pc, #48]	; (9a8 <pbkdf2_hmac_isha+0xb4>)
     978:	21a1      	movs	r1, #161	; 0xa1
     97a:	0109      	lsls	r1, r1, #4
     97c:	1852      	adds	r2, r2, r1
     97e:	19d2      	adds	r2, r2, r7
     980:	5d12      	ldrb	r2, [r2, r4]
     982:	701a      	strb	r2, [r3, #0]
     984:	0023      	movs	r3, r4
     986:	1e5c      	subs	r4, r3, #1
     988:	2b00      	cmp	r3, #0
     98a:	d1ef      	bne.n	96c <pbkdf2_hmac_isha+0x78>
     98c:	46c0      	nop			; (mov r8, r8)
     98e:	46c0      	nop			; (mov r8, r8)
     990:	46bd      	mov	sp, r7
     992:	4b06      	ldr	r3, [pc, #24]	; (9ac <pbkdf2_hmac_isha+0xb8>)
     994:	449d      	add	sp, r3
     996:	bdf0      	pop	{r4, r5, r6, r7, pc}
     998:	fffff5dc 	.word	0xfffff5dc
     99c:	00000a2c 	.word	0x00000a2c
     9a0:	00004470 	.word	0x00004470
     9a4:	00000a28 	.word	0x00000a28
     9a8:	fffff600 	.word	0xfffff600
     9ac:	00000a14 	.word	0x00000a14

000009b0 <hexdigit_to_int>:
     9b0:	b580      	push	{r7, lr}
     9b2:	b082      	sub	sp, #8
     9b4:	af00      	add	r7, sp, #0
     9b6:	0002      	movs	r2, r0
     9b8:	1dfb      	adds	r3, r7, #7
     9ba:	701a      	strb	r2, [r3, #0]
     9bc:	1dfb      	adds	r3, r7, #7
     9be:	781b      	ldrb	r3, [r3, #0]
     9c0:	2b60      	cmp	r3, #96	; 0x60
     9c2:	d908      	bls.n	9d6 <hexdigit_to_int+0x26>
     9c4:	1dfb      	adds	r3, r7, #7
     9c6:	781b      	ldrb	r3, [r3, #0]
     9c8:	2b66      	cmp	r3, #102	; 0x66
     9ca:	d804      	bhi.n	9d6 <hexdigit_to_int+0x26>
     9cc:	1dfb      	adds	r3, r7, #7
     9ce:	781b      	ldrb	r3, [r3, #0]
     9d0:	3b57      	subs	r3, #87	; 0x57
     9d2:	b2db      	uxtb	r3, r3
     9d4:	e01d      	b.n	a12 <hexdigit_to_int+0x62>
     9d6:	1dfb      	adds	r3, r7, #7
     9d8:	781b      	ldrb	r3, [r3, #0]
     9da:	2b40      	cmp	r3, #64	; 0x40
     9dc:	d908      	bls.n	9f0 <hexdigit_to_int+0x40>
     9de:	1dfb      	adds	r3, r7, #7
     9e0:	781b      	ldrb	r3, [r3, #0]
     9e2:	2b46      	cmp	r3, #70	; 0x46
     9e4:	d804      	bhi.n	9f0 <hexdigit_to_int+0x40>
     9e6:	1dfb      	adds	r3, r7, #7
     9e8:	781b      	ldrb	r3, [r3, #0]
     9ea:	3b37      	subs	r3, #55	; 0x37
     9ec:	b2db      	uxtb	r3, r3
     9ee:	e010      	b.n	a12 <hexdigit_to_int+0x62>
     9f0:	1dfb      	adds	r3, r7, #7
     9f2:	781b      	ldrb	r3, [r3, #0]
     9f4:	2b2f      	cmp	r3, #47	; 0x2f
     9f6:	d908      	bls.n	a0a <hexdigit_to_int+0x5a>
     9f8:	1dfb      	adds	r3, r7, #7
     9fa:	781b      	ldrb	r3, [r3, #0]
     9fc:	2b39      	cmp	r3, #57	; 0x39
     9fe:	d804      	bhi.n	a0a <hexdigit_to_int+0x5a>
     a00:	1dfb      	adds	r3, r7, #7
     a02:	781b      	ldrb	r3, [r3, #0]
     a04:	3b30      	subs	r3, #48	; 0x30
     a06:	b2db      	uxtb	r3, r3
     a08:	e003      	b.n	a12 <hexdigit_to_int+0x62>
     a0a:	4b04      	ldr	r3, [pc, #16]	; (a1c <hexdigit_to_int+0x6c>)
     a0c:	0018      	movs	r0, r3
     a0e:	f001 fc5f 	bl	22d0 <__assertion_failed>
     a12:	0018      	movs	r0, r3
     a14:	46bd      	mov	sp, r7
     a16:	b002      	add	sp, #8
     a18:	bd80      	pop	{r7, pc}
     a1a:	46c0      	nop			; (mov r8, r8)
     a1c:	00004c60 	.word	0x00004c60

00000a20 <test_isha>:
     a20:	b5f0      	push	{r4, r5, r6, r7, lr}
     a22:	b0b7      	sub	sp, #220	; 0xdc
     a24:	af00      	add	r7, sp, #0
     a26:	239c      	movs	r3, #156	; 0x9c
     a28:	18fb      	adds	r3, r7, r3
     a2a:	4a88      	ldr	r2, [pc, #544]	; (c4c <test_isha+0x22c>)
     a2c:	ca13      	ldmia	r2!, {r0, r1, r4}
     a2e:	c313      	stmia	r3!, {r0, r1, r4}
     a30:	ca13      	ldmia	r2!, {r0, r1, r4}
     a32:	c313      	stmia	r3!, {r0, r1, r4}
     a34:	ca03      	ldmia	r2!, {r0, r1}
     a36:	c303      	stmia	r3!, {r0, r1}
     a38:	2304      	movs	r3, #4
     a3a:	22c0      	movs	r2, #192	; 0xc0
     a3c:	18ba      	adds	r2, r7, r2
     a3e:	6013      	str	r3, [r2, #0]
     a40:	2300      	movs	r3, #0
     a42:	22d4      	movs	r2, #212	; 0xd4
     a44:	18ba      	adds	r2, r7, r2
     a46:	6013      	str	r3, [r2, #0]
     a48:	2300      	movs	r3, #0
     a4a:	22cc      	movs	r2, #204	; 0xcc
     a4c:	18ba      	adds	r2, r7, r2
     a4e:	6013      	str	r3, [r2, #0]
     a50:	e055      	b.n	afe <test_isha+0xde>
     a52:	259c      	movs	r5, #156	; 0x9c
     a54:	197b      	adds	r3, r7, r5
     a56:	24cc      	movs	r4, #204	; 0xcc
     a58:	193a      	adds	r2, r7, r4
     a5a:	6812      	ldr	r2, [r2, #0]
     a5c:	00d2      	lsls	r2, r2, #3
     a5e:	58d3      	ldr	r3, [r2, r3]
     a60:	0018      	movs	r0, r3
     a62:	f002 fe41 	bl	36e8 <strlen>
     a66:	0003      	movs	r3, r0
     a68:	26d0      	movs	r6, #208	; 0xd0
     a6a:	19ba      	adds	r2, r7, r6
     a6c:	6013      	str	r3, [r2, #0]
     a6e:	197a      	adds	r2, r7, r5
     a70:	193b      	adds	r3, r7, r4
     a72:	681b      	ldr	r3, [r3, #0]
     a74:	00db      	lsls	r3, r3, #3
     a76:	18d3      	adds	r3, r2, r3
     a78:	3304      	adds	r3, #4
     a7a:	6819      	ldr	r1, [r3, #0]
     a7c:	2388      	movs	r3, #136	; 0x88
     a7e:	18fb      	adds	r3, r7, r3
     a80:	2214      	movs	r2, #20
     a82:	0018      	movs	r0, r3
     a84:	f003 fa5a 	bl	3f3c <hexstr_to_bytes>
     a88:	003b      	movs	r3, r7
     a8a:	0018      	movs	r0, r3
     a8c:	f7ff fd66 	bl	55c <ISHAReset>
     a90:	197b      	adds	r3, r7, r5
     a92:	193a      	adds	r2, r7, r4
     a94:	6812      	ldr	r2, [r2, #0]
     a96:	00d2      	lsls	r2, r2, #3
     a98:	58d1      	ldr	r1, [r2, r3]
     a9a:	19ba      	adds	r2, r7, r6
     a9c:	6812      	ldr	r2, [r2, #0]
     a9e:	003b      	movs	r3, r7
     aa0:	0018      	movs	r0, r3
     aa2:	f003 f96a 	bl	3d7a <ISHAInput>
     aa6:	2574      	movs	r5, #116	; 0x74
     aa8:	197a      	adds	r2, r7, r5
     aaa:	003b      	movs	r3, r7
     aac:	0011      	movs	r1, r2
     aae:	0018      	movs	r0, r3
     ab0:	f003 f8cb 	bl	3c4a <ISHAResult>
     ab4:	2388      	movs	r3, #136	; 0x88
     ab6:	18f9      	adds	r1, r7, r3
     ab8:	197b      	adds	r3, r7, r5
     aba:	2214      	movs	r2, #20
     abc:	0018      	movs	r0, r3
     abe:	f003 fa1c 	bl	3efa <cmp_bin>
     ac2:	1e03      	subs	r3, r0, #0
     ac4:	d00d      	beq.n	ae2 <test_isha+0xc2>
     ac6:	193b      	adds	r3, r7, r4
     ac8:	681a      	ldr	r2, [r3, #0]
     aca:	4961      	ldr	r1, [pc, #388]	; (c50 <test_isha+0x230>)
     acc:	4b61      	ldr	r3, [pc, #388]	; (c54 <test_isha+0x234>)
     ace:	0018      	movs	r0, r3
     ad0:	f002 fda6 	bl	3620 <_printf>
     ad4:	22d4      	movs	r2, #212	; 0xd4
     ad6:	18bb      	adds	r3, r7, r2
     ad8:	681b      	ldr	r3, [r3, #0]
     ada:	3301      	adds	r3, #1
     adc:	18ba      	adds	r2, r7, r2
     ade:	6013      	str	r3, [r2, #0]
     ae0:	e007      	b.n	af2 <test_isha+0xd2>
     ae2:	23cc      	movs	r3, #204	; 0xcc
     ae4:	18fb      	adds	r3, r7, r3
     ae6:	681a      	ldr	r2, [r3, #0]
     ae8:	4959      	ldr	r1, [pc, #356]	; (c50 <test_isha+0x230>)
     aea:	4b5b      	ldr	r3, [pc, #364]	; (c58 <test_isha+0x238>)
     aec:	0018      	movs	r0, r3
     aee:	f002 fd97 	bl	3620 <_printf>
     af2:	22cc      	movs	r2, #204	; 0xcc
     af4:	18bb      	adds	r3, r7, r2
     af6:	681b      	ldr	r3, [r3, #0]
     af8:	3301      	adds	r3, #1
     afa:	18ba      	adds	r2, r7, r2
     afc:	6013      	str	r3, [r2, #0]
     afe:	23cc      	movs	r3, #204	; 0xcc
     b00:	18fb      	adds	r3, r7, r3
     b02:	681a      	ldr	r2, [r3, #0]
     b04:	23c0      	movs	r3, #192	; 0xc0
     b06:	18fb      	adds	r3, r7, r3
     b08:	681b      	ldr	r3, [r3, #0]
     b0a:	429a      	cmp	r2, r3
     b0c:	dba1      	blt.n	a52 <test_isha+0x32>
     b0e:	2300      	movs	r3, #0
     b10:	22c8      	movs	r2, #200	; 0xc8
     b12:	18ba      	adds	r2, r7, r2
     b14:	6013      	str	r3, [r2, #0]
     b16:	e082      	b.n	c1e <test_isha+0x1fe>
     b18:	249c      	movs	r4, #156	; 0x9c
     b1a:	193b      	adds	r3, r7, r4
     b1c:	25c8      	movs	r5, #200	; 0xc8
     b1e:	197a      	adds	r2, r7, r5
     b20:	6812      	ldr	r2, [r2, #0]
     b22:	00d2      	lsls	r2, r2, #3
     b24:	58d3      	ldr	r3, [r2, r3]
     b26:	22c4      	movs	r2, #196	; 0xc4
     b28:	18ba      	adds	r2, r7, r2
     b2a:	6013      	str	r3, [r2, #0]
     b2c:	193b      	adds	r3, r7, r4
     b2e:	197a      	adds	r2, r7, r5
     b30:	6812      	ldr	r2, [r2, #0]
     b32:	00d2      	lsls	r2, r2, #3
     b34:	58d3      	ldr	r3, [r2, r3]
     b36:	0018      	movs	r0, r3
     b38:	f002 fdd6 	bl	36e8 <strlen>
     b3c:	0003      	movs	r3, r0
     b3e:	22d0      	movs	r2, #208	; 0xd0
     b40:	18ba      	adds	r2, r7, r2
     b42:	6013      	str	r3, [r2, #0]
     b44:	193a      	adds	r2, r7, r4
     b46:	197b      	adds	r3, r7, r5
     b48:	681b      	ldr	r3, [r3, #0]
     b4a:	00db      	lsls	r3, r3, #3
     b4c:	18d3      	adds	r3, r2, r3
     b4e:	3304      	adds	r3, #4
     b50:	6819      	ldr	r1, [r3, #0]
     b52:	2388      	movs	r3, #136	; 0x88
     b54:	18fb      	adds	r3, r7, r3
     b56:	2214      	movs	r2, #20
     b58:	0018      	movs	r0, r3
     b5a:	f003 f9ef 	bl	3f3c <hexstr_to_bytes>
     b5e:	003b      	movs	r3, r7
     b60:	0018      	movs	r0, r3
     b62:	f7ff fcfb 	bl	55c <ISHAReset>
     b66:	e020      	b.n	baa <test_isha+0x18a>
     b68:	23d0      	movs	r3, #208	; 0xd0
     b6a:	18fb      	adds	r3, r7, r3
     b6c:	681b      	ldr	r3, [r3, #0]
     b6e:	2b0a      	cmp	r3, #10
     b70:	dd00      	ble.n	b74 <test_isha+0x154>
     b72:	230a      	movs	r3, #10
     b74:	24bc      	movs	r4, #188	; 0xbc
     b76:	193a      	adds	r2, r7, r4
     b78:	6013      	str	r3, [r2, #0]
     b7a:	193b      	adds	r3, r7, r4
     b7c:	681a      	ldr	r2, [r3, #0]
     b7e:	25c4      	movs	r5, #196	; 0xc4
     b80:	197b      	adds	r3, r7, r5
     b82:	6819      	ldr	r1, [r3, #0]
     b84:	003b      	movs	r3, r7
     b86:	0018      	movs	r0, r3
     b88:	f003 f8f7 	bl	3d7a <ISHAInput>
     b8c:	21d0      	movs	r1, #208	; 0xd0
     b8e:	187b      	adds	r3, r7, r1
     b90:	681a      	ldr	r2, [r3, #0]
     b92:	193b      	adds	r3, r7, r4
     b94:	681b      	ldr	r3, [r3, #0]
     b96:	1ad3      	subs	r3, r2, r3
     b98:	187a      	adds	r2, r7, r1
     b9a:	6013      	str	r3, [r2, #0]
     b9c:	193b      	adds	r3, r7, r4
     b9e:	681b      	ldr	r3, [r3, #0]
     ba0:	197a      	adds	r2, r7, r5
     ba2:	6812      	ldr	r2, [r2, #0]
     ba4:	18d3      	adds	r3, r2, r3
     ba6:	197a      	adds	r2, r7, r5
     ba8:	6013      	str	r3, [r2, #0]
     baa:	23d0      	movs	r3, #208	; 0xd0
     bac:	18fb      	adds	r3, r7, r3
     bae:	681b      	ldr	r3, [r3, #0]
     bb0:	2b00      	cmp	r3, #0
     bb2:	dcd9      	bgt.n	b68 <test_isha+0x148>
     bb4:	2474      	movs	r4, #116	; 0x74
     bb6:	193a      	adds	r2, r7, r4
     bb8:	003b      	movs	r3, r7
     bba:	0011      	movs	r1, r2
     bbc:	0018      	movs	r0, r3
     bbe:	f003 f844 	bl	3c4a <ISHAResult>
     bc2:	2388      	movs	r3, #136	; 0x88
     bc4:	18f9      	adds	r1, r7, r3
     bc6:	193b      	adds	r3, r7, r4
     bc8:	2214      	movs	r2, #20
     bca:	0018      	movs	r0, r3
     bcc:	f003 f995 	bl	3efa <cmp_bin>
     bd0:	1e03      	subs	r3, r0, #0
     bd2:	d012      	beq.n	bfa <test_isha+0x1da>
     bd4:	23c8      	movs	r3, #200	; 0xc8
     bd6:	18fb      	adds	r3, r7, r3
     bd8:	681a      	ldr	r2, [r3, #0]
     bda:	23c0      	movs	r3, #192	; 0xc0
     bdc:	18fb      	adds	r3, r7, r3
     bde:	681b      	ldr	r3, [r3, #0]
     be0:	18d2      	adds	r2, r2, r3
     be2:	491b      	ldr	r1, [pc, #108]	; (c50 <test_isha+0x230>)
     be4:	4b1b      	ldr	r3, [pc, #108]	; (c54 <test_isha+0x234>)
     be6:	0018      	movs	r0, r3
     be8:	f002 fd1a 	bl	3620 <_printf>
     bec:	22d4      	movs	r2, #212	; 0xd4
     bee:	18bb      	adds	r3, r7, r2
     bf0:	681b      	ldr	r3, [r3, #0]
     bf2:	3301      	adds	r3, #1
     bf4:	18ba      	adds	r2, r7, r2
     bf6:	6013      	str	r3, [r2, #0]
     bf8:	e00b      	b.n	c12 <test_isha+0x1f2>
     bfa:	23c8      	movs	r3, #200	; 0xc8
     bfc:	18fb      	adds	r3, r7, r3
     bfe:	681a      	ldr	r2, [r3, #0]
     c00:	23c0      	movs	r3, #192	; 0xc0
     c02:	18fb      	adds	r3, r7, r3
     c04:	681b      	ldr	r3, [r3, #0]
     c06:	18d2      	adds	r2, r2, r3
     c08:	4911      	ldr	r1, [pc, #68]	; (c50 <test_isha+0x230>)
     c0a:	4b13      	ldr	r3, [pc, #76]	; (c58 <test_isha+0x238>)
     c0c:	0018      	movs	r0, r3
     c0e:	f002 fd07 	bl	3620 <_printf>
     c12:	22c8      	movs	r2, #200	; 0xc8
     c14:	18bb      	adds	r3, r7, r2
     c16:	681b      	ldr	r3, [r3, #0]
     c18:	3301      	adds	r3, #1
     c1a:	18ba      	adds	r2, r7, r2
     c1c:	6013      	str	r3, [r2, #0]
     c1e:	23c8      	movs	r3, #200	; 0xc8
     c20:	18fb      	adds	r3, r7, r3
     c22:	681a      	ldr	r2, [r3, #0]
     c24:	21c0      	movs	r1, #192	; 0xc0
     c26:	187b      	adds	r3, r7, r1
     c28:	681b      	ldr	r3, [r3, #0]
     c2a:	429a      	cmp	r2, r3
     c2c:	da00      	bge.n	c30 <test_isha+0x210>
     c2e:	e773      	b.n	b18 <test_isha+0xf8>
     c30:	187b      	adds	r3, r7, r1
     c32:	681b      	ldr	r3, [r3, #0]
     c34:	005b      	lsls	r3, r3, #1
     c36:	22d4      	movs	r2, #212	; 0xd4
     c38:	18ba      	adds	r2, r7, r2
     c3a:	6812      	ldr	r2, [r2, #0]
     c3c:	1ad3      	subs	r3, r2, r3
     c3e:	425a      	negs	r2, r3
     c40:	4153      	adcs	r3, r2
     c42:	b2db      	uxtb	r3, r3
     c44:	0018      	movs	r0, r3
     c46:	46bd      	mov	sp, r7
     c48:	b037      	add	sp, #220	; 0xdc
     c4a:	bdf0      	pop	{r4, r5, r6, r7, pc}
     c4c:	00004ca8 	.word	0x00004ca8
     c50:	00004e04 	.word	0x00004e04
     c54:	00004c78 	.word	0x00004c78
     c58:	00004c90 	.word	0x00004c90

00000c5c <test_hmac_isha>:
     c5c:	b5f0      	push	{r4, r5, r6, r7, lr}
     c5e:	b09b      	sub	sp, #108	; 0x6c
     c60:	af02      	add	r7, sp, #8
     c62:	2328      	movs	r3, #40	; 0x28
     c64:	18fb      	adds	r3, r7, r3
     c66:	4a3d      	ldr	r2, [pc, #244]	; (d5c <test_hmac_isha+0x100>)
     c68:	ca13      	ldmia	r2!, {r0, r1, r4}
     c6a:	c313      	stmia	r3!, {r0, r1, r4}
     c6c:	ca13      	ldmia	r2!, {r0, r1, r4}
     c6e:	c313      	stmia	r3!, {r0, r1, r4}
     c70:	ca13      	ldmia	r2!, {r0, r1, r4}
     c72:	c313      	stmia	r3!, {r0, r1, r4}
     c74:	2303      	movs	r3, #3
     c76:	657b      	str	r3, [r7, #84]	; 0x54
     c78:	2300      	movs	r3, #0
     c7a:	65fb      	str	r3, [r7, #92]	; 0x5c
     c7c:	2300      	movs	r3, #0
     c7e:	65bb      	str	r3, [r7, #88]	; 0x58
     c80:	e05d      	b.n	d3e <test_hmac_isha+0xe2>
     c82:	2428      	movs	r4, #40	; 0x28
     c84:	1939      	adds	r1, r7, r4
     c86:	6dba      	ldr	r2, [r7, #88]	; 0x58
     c88:	0013      	movs	r3, r2
     c8a:	005b      	lsls	r3, r3, #1
     c8c:	189b      	adds	r3, r3, r2
     c8e:	009b      	lsls	r3, r3, #2
     c90:	585b      	ldr	r3, [r3, r1]
     c92:	0018      	movs	r0, r3
     c94:	f002 fd28 	bl	36e8 <strlen>
     c98:	0003      	movs	r3, r0
     c9a:	653b      	str	r3, [r7, #80]	; 0x50
     c9c:	1939      	adds	r1, r7, r4
     c9e:	6dba      	ldr	r2, [r7, #88]	; 0x58
     ca0:	0013      	movs	r3, r2
     ca2:	005b      	lsls	r3, r3, #1
     ca4:	189b      	adds	r3, r3, r2
     ca6:	009b      	lsls	r3, r3, #2
     ca8:	18cb      	adds	r3, r1, r3
     caa:	3304      	adds	r3, #4
     cac:	681b      	ldr	r3, [r3, #0]
     cae:	0018      	movs	r0, r3
     cb0:	f002 fd1a 	bl	36e8 <strlen>
     cb4:	0003      	movs	r3, r0
     cb6:	64fb      	str	r3, [r7, #76]	; 0x4c
     cb8:	1939      	adds	r1, r7, r4
     cba:	6dba      	ldr	r2, [r7, #88]	; 0x58
     cbc:	0013      	movs	r3, r2
     cbe:	005b      	lsls	r3, r3, #1
     cc0:	189b      	adds	r3, r3, r2
     cc2:	009b      	lsls	r3, r3, #2
     cc4:	18cb      	adds	r3, r1, r3
     cc6:	3308      	adds	r3, #8
     cc8:	6819      	ldr	r1, [r3, #0]
     cca:	2614      	movs	r6, #20
     ccc:	19bb      	adds	r3, r7, r6
     cce:	2214      	movs	r2, #20
     cd0:	0018      	movs	r0, r3
     cd2:	f003 f933 	bl	3f3c <hexstr_to_bytes>
     cd6:	0025      	movs	r5, r4
     cd8:	1939      	adds	r1, r7, r4
     cda:	6dba      	ldr	r2, [r7, #88]	; 0x58
     cdc:	0013      	movs	r3, r2
     cde:	005b      	lsls	r3, r3, #1
     ce0:	189b      	adds	r3, r3, r2
     ce2:	009b      	lsls	r3, r3, #2
     ce4:	5858      	ldr	r0, [r3, r1]
     ce6:	6d3c      	ldr	r4, [r7, #80]	; 0x50
     ce8:	1979      	adds	r1, r7, r5
     cea:	6dba      	ldr	r2, [r7, #88]	; 0x58
     cec:	0013      	movs	r3, r2
     cee:	005b      	lsls	r3, r3, #1
     cf0:	189b      	adds	r3, r3, r2
     cf2:	009b      	lsls	r3, r3, #2
     cf4:	18cb      	adds	r3, r1, r3
     cf6:	3304      	adds	r3, #4
     cf8:	681a      	ldr	r2, [r3, #0]
     cfa:	6cf9      	ldr	r1, [r7, #76]	; 0x4c
     cfc:	003b      	movs	r3, r7
     cfe:	9300      	str	r3, [sp, #0]
     d00:	000b      	movs	r3, r1
     d02:	0021      	movs	r1, r4
     d04:	f003 f886 	bl	3e14 <hmac_isha>
     d08:	19b9      	adds	r1, r7, r6
     d0a:	003b      	movs	r3, r7
     d0c:	2214      	movs	r2, #20
     d0e:	0018      	movs	r0, r3
     d10:	f003 f8f3 	bl	3efa <cmp_bin>
     d14:	1e03      	subs	r3, r0, #0
     d16:	d009      	beq.n	d2c <test_hmac_isha+0xd0>
     d18:	6dba      	ldr	r2, [r7, #88]	; 0x58
     d1a:	4911      	ldr	r1, [pc, #68]	; (d60 <test_hmac_isha+0x104>)
     d1c:	4b11      	ldr	r3, [pc, #68]	; (d64 <test_hmac_isha+0x108>)
     d1e:	0018      	movs	r0, r3
     d20:	f002 fc7e 	bl	3620 <_printf>
     d24:	6dfb      	ldr	r3, [r7, #92]	; 0x5c
     d26:	3301      	adds	r3, #1
     d28:	65fb      	str	r3, [r7, #92]	; 0x5c
     d2a:	e005      	b.n	d38 <test_hmac_isha+0xdc>
     d2c:	6dba      	ldr	r2, [r7, #88]	; 0x58
     d2e:	490c      	ldr	r1, [pc, #48]	; (d60 <test_hmac_isha+0x104>)
     d30:	4b0d      	ldr	r3, [pc, #52]	; (d68 <test_hmac_isha+0x10c>)
     d32:	0018      	movs	r0, r3
     d34:	f002 fc74 	bl	3620 <_printf>
     d38:	6dbb      	ldr	r3, [r7, #88]	; 0x58
     d3a:	3301      	adds	r3, #1
     d3c:	65bb      	str	r3, [r7, #88]	; 0x58
     d3e:	6dba      	ldr	r2, [r7, #88]	; 0x58
     d40:	6d7b      	ldr	r3, [r7, #84]	; 0x54
     d42:	429a      	cmp	r2, r3
     d44:	db9d      	blt.n	c82 <test_hmac_isha+0x26>
     d46:	6d7a      	ldr	r2, [r7, #84]	; 0x54
     d48:	6dfb      	ldr	r3, [r7, #92]	; 0x5c
     d4a:	1ad3      	subs	r3, r2, r3
     d4c:	425a      	negs	r2, r3
     d4e:	4153      	adcs	r3, r2
     d50:	b2db      	uxtb	r3, r3
     d52:	0018      	movs	r0, r3
     d54:	46bd      	mov	sp, r7
     d56:	b019      	add	sp, #100	; 0x64
     d58:	bdf0      	pop	{r4, r5, r6, r7, pc}
     d5a:	46c0      	nop			; (mov r8, r8)
     d5c:	00004cc8 	.word	0x00004cc8
     d60:	00004e10 	.word	0x00004e10
     d64:	00004c78 	.word	0x00004c78
     d68:	00004c90 	.word	0x00004c90

00000d6c <test_pbkdf2_hmac_isha>:
     d6c:	b5f0      	push	{r4, r5, r6, r7, lr}
     d6e:	4c7f      	ldr	r4, [pc, #508]	; (f6c <test_pbkdf2_hmac_isha+0x200>)
     d70:	44a5      	add	sp, r4
     d72:	af04      	add	r7, sp, #16
     d74:	2380      	movs	r3, #128	; 0x80
     d76:	00db      	lsls	r3, r3, #3
     d78:	18fa      	adds	r2, r7, r3
     d7a:	4b7d      	ldr	r3, [pc, #500]	; (f70 <test_pbkdf2_hmac_isha+0x204>)
     d7c:	0010      	movs	r0, r2
     d7e:	0019      	movs	r1, r3
     d80:	23dc      	movs	r3, #220	; 0xdc
     d82:	001a      	movs	r2, r3
     d84:	f003 f9bc 	bl	4100 <memcpy>
     d88:	230b      	movs	r3, #11
     d8a:	4a7a      	ldr	r2, [pc, #488]	; (f74 <test_pbkdf2_hmac_isha+0x208>)
     d8c:	18ba      	adds	r2, r7, r2
     d8e:	6013      	str	r3, [r2, #0]
     d90:	2300      	movs	r3, #0
     d92:	4a79      	ldr	r2, [pc, #484]	; (f78 <test_pbkdf2_hmac_isha+0x20c>)
     d94:	18ba      	adds	r2, r7, r2
     d96:	6013      	str	r3, [r2, #0]
     d98:	2300      	movs	r3, #0
     d9a:	229d      	movs	r2, #157	; 0x9d
     d9c:	00d2      	lsls	r2, r2, #3
     d9e:	18ba      	adds	r2, r7, r2
     da0:	6013      	str	r3, [r2, #0]
     da2:	e0ca      	b.n	f3a <test_pbkdf2_hmac_isha+0x1ce>
     da4:	2480      	movs	r4, #128	; 0x80
     da6:	00e4      	lsls	r4, r4, #3
     da8:	1939      	adds	r1, r7, r4
     daa:	259d      	movs	r5, #157	; 0x9d
     dac:	00ed      	lsls	r5, r5, #3
     dae:	197b      	adds	r3, r7, r5
     db0:	681a      	ldr	r2, [r3, #0]
     db2:	0013      	movs	r3, r2
     db4:	009b      	lsls	r3, r3, #2
     db6:	189b      	adds	r3, r3, r2
     db8:	009b      	lsls	r3, r3, #2
     dba:	585b      	ldr	r3, [r3, r1]
     dbc:	0018      	movs	r0, r3
     dbe:	f002 fc93 	bl	36e8 <strlen>
     dc2:	0003      	movs	r3, r0
     dc4:	229c      	movs	r2, #156	; 0x9c
     dc6:	00d2      	lsls	r2, r2, #3
     dc8:	18ba      	adds	r2, r7, r2
     dca:	6013      	str	r3, [r2, #0]
     dcc:	1939      	adds	r1, r7, r4
     dce:	197b      	adds	r3, r7, r5
     dd0:	681a      	ldr	r2, [r3, #0]
     dd2:	0013      	movs	r3, r2
     dd4:	009b      	lsls	r3, r3, #2
     dd6:	189b      	adds	r3, r3, r2
     dd8:	009b      	lsls	r3, r3, #2
     dda:	18cb      	adds	r3, r1, r3
     ddc:	3304      	adds	r3, #4
     dde:	681b      	ldr	r3, [r3, #0]
     de0:	0018      	movs	r0, r3
     de2:	f002 fc81 	bl	36e8 <strlen>
     de6:	0003      	movs	r3, r0
     de8:	4a64      	ldr	r2, [pc, #400]	; (f7c <test_pbkdf2_hmac_isha+0x210>)
     dea:	18ba      	adds	r2, r7, r2
     dec:	6013      	str	r3, [r2, #0]
     dee:	1939      	adds	r1, r7, r4
     df0:	197b      	adds	r3, r7, r5
     df2:	681a      	ldr	r2, [r3, #0]
     df4:	0013      	movs	r3, r2
     df6:	009b      	lsls	r3, r3, #2
     df8:	189b      	adds	r3, r3, r2
     dfa:	009b      	lsls	r3, r3, #2
     dfc:	18cb      	adds	r3, r1, r3
     dfe:	330c      	adds	r3, #12
     e00:	681a      	ldr	r2, [r3, #0]
     e02:	2380      	movs	r3, #128	; 0x80
     e04:	009b      	lsls	r3, r3, #2
     e06:	429a      	cmp	r2, r3
     e08:	d903      	bls.n	e12 <test_pbkdf2_hmac_isha+0xa6>
     e0a:	4b5d      	ldr	r3, [pc, #372]	; (f80 <test_pbkdf2_hmac_isha+0x214>)
     e0c:	0018      	movs	r0, r3
     e0e:	f001 fa5f 	bl	22d0 <__assertion_failed>
     e12:	2580      	movs	r5, #128	; 0x80
     e14:	00ed      	lsls	r5, r5, #3
     e16:	1979      	adds	r1, r7, r5
     e18:	249d      	movs	r4, #157	; 0x9d
     e1a:	00e4      	lsls	r4, r4, #3
     e1c:	193b      	adds	r3, r7, r4
     e1e:	681a      	ldr	r2, [r3, #0]
     e20:	0013      	movs	r3, r2
     e22:	009b      	lsls	r3, r3, #2
     e24:	189b      	adds	r3, r3, r2
     e26:	009b      	lsls	r3, r3, #2
     e28:	18cb      	adds	r3, r1, r3
     e2a:	3310      	adds	r3, #16
     e2c:	6818      	ldr	r0, [r3, #0]
     e2e:	1979      	adds	r1, r7, r5
     e30:	193b      	adds	r3, r7, r4
     e32:	681a      	ldr	r2, [r3, #0]
     e34:	0013      	movs	r3, r2
     e36:	009b      	lsls	r3, r3, #2
     e38:	189b      	adds	r3, r3, r2
     e3a:	009b      	lsls	r3, r3, #2
     e3c:	18cb      	adds	r3, r1, r3
     e3e:	330c      	adds	r3, #12
     e40:	681a      	ldr	r2, [r3, #0]
     e42:	2380      	movs	r3, #128	; 0x80
     e44:	009b      	lsls	r3, r3, #2
     e46:	18fb      	adds	r3, r7, r3
     e48:	0001      	movs	r1, r0
     e4a:	0018      	movs	r0, r3
     e4c:	f003 f876 	bl	3f3c <hexstr_to_bytes>
     e50:	002e      	movs	r6, r5
     e52:	1979      	adds	r1, r7, r5
     e54:	0020      	movs	r0, r4
     e56:	183a      	adds	r2, r7, r0
     e58:	6812      	ldr	r2, [r2, #0]
     e5a:	0013      	movs	r3, r2
     e5c:	009b      	lsls	r3, r3, #2
     e5e:	189b      	adds	r3, r3, r2
     e60:	009b      	lsls	r3, r3, #2
     e62:	585c      	ldr	r4, [r3, r1]
     e64:	229c      	movs	r2, #156	; 0x9c
     e66:	00d2      	lsls	r2, r2, #3
     e68:	18ba      	adds	r2, r7, r2
     e6a:	6815      	ldr	r5, [r2, #0]
     e6c:	19b9      	adds	r1, r7, r6
     e6e:	183a      	adds	r2, r7, r0
     e70:	6812      	ldr	r2, [r2, #0]
     e72:	0013      	movs	r3, r2
     e74:	009b      	lsls	r3, r3, #2
     e76:	189b      	adds	r3, r3, r2
     e78:	009b      	lsls	r3, r3, #2
     e7a:	18cb      	adds	r3, r1, r3
     e7c:	3304      	adds	r3, #4
     e7e:	681e      	ldr	r6, [r3, #0]
     e80:	4a3e      	ldr	r2, [pc, #248]	; (f7c <test_pbkdf2_hmac_isha+0x210>)
     e82:	18ba      	adds	r2, r7, r2
     e84:	6812      	ldr	r2, [r2, #0]
     e86:	4694      	mov	ip, r2
     e88:	2380      	movs	r3, #128	; 0x80
     e8a:	00db      	lsls	r3, r3, #3
     e8c:	18f9      	adds	r1, r7, r3
     e8e:	183a      	adds	r2, r7, r0
     e90:	6812      	ldr	r2, [r2, #0]
     e92:	0013      	movs	r3, r2
     e94:	009b      	lsls	r3, r3, #2
     e96:	189b      	adds	r3, r3, r2
     e98:	009b      	lsls	r3, r3, #2
     e9a:	18cb      	adds	r3, r1, r3
     e9c:	3308      	adds	r3, #8
     e9e:	6819      	ldr	r1, [r3, #0]
     ea0:	2280      	movs	r2, #128	; 0x80
     ea2:	00d2      	lsls	r2, r2, #3
     ea4:	18b8      	adds	r0, r7, r2
     ea6:	239d      	movs	r3, #157	; 0x9d
     ea8:	00db      	lsls	r3, r3, #3
     eaa:	18fa      	adds	r2, r7, r3
     eac:	6812      	ldr	r2, [r2, #0]
     eae:	0013      	movs	r3, r2
     eb0:	009b      	lsls	r3, r3, #2
     eb2:	189b      	adds	r3, r3, r2
     eb4:	009b      	lsls	r3, r3, #2
     eb6:	18c3      	adds	r3, r0, r3
     eb8:	330c      	adds	r3, #12
     eba:	681b      	ldr	r3, [r3, #0]
     ebc:	003a      	movs	r2, r7
     ebe:	9202      	str	r2, [sp, #8]
     ec0:	9301      	str	r3, [sp, #4]
     ec2:	9100      	str	r1, [sp, #0]
     ec4:	4663      	mov	r3, ip
     ec6:	0032      	movs	r2, r6
     ec8:	0029      	movs	r1, r5
     eca:	0020      	movs	r0, r4
     ecc:	f7ff fd12 	bl	8f4 <pbkdf2_hmac_isha>
     ed0:	2280      	movs	r2, #128	; 0x80
     ed2:	00d2      	lsls	r2, r2, #3
     ed4:	18b9      	adds	r1, r7, r2
     ed6:	249d      	movs	r4, #157	; 0x9d
     ed8:	00e4      	lsls	r4, r4, #3
     eda:	193a      	adds	r2, r7, r4
     edc:	6812      	ldr	r2, [r2, #0]
     ede:	0013      	movs	r3, r2
     ee0:	009b      	lsls	r3, r3, #2
     ee2:	189b      	adds	r3, r3, r2
     ee4:	009b      	lsls	r3, r3, #2
     ee6:	18cb      	adds	r3, r1, r3
     ee8:	330c      	adds	r3, #12
     eea:	681a      	ldr	r2, [r3, #0]
     eec:	2380      	movs	r3, #128	; 0x80
     eee:	009b      	lsls	r3, r3, #2
     ef0:	18f9      	adds	r1, r7, r3
     ef2:	003b      	movs	r3, r7
     ef4:	0018      	movs	r0, r3
     ef6:	f003 f800 	bl	3efa <cmp_bin>
     efa:	1e03      	subs	r3, r0, #0
     efc:	d00d      	beq.n	f1a <test_pbkdf2_hmac_isha+0x1ae>
     efe:	193b      	adds	r3, r7, r4
     f00:	681a      	ldr	r2, [r3, #0]
     f02:	4920      	ldr	r1, [pc, #128]	; (f84 <test_pbkdf2_hmac_isha+0x218>)
     f04:	4b20      	ldr	r3, [pc, #128]	; (f88 <test_pbkdf2_hmac_isha+0x21c>)
     f06:	0018      	movs	r0, r3
     f08:	f002 fb8a 	bl	3620 <_printf>
     f0c:	4a1a      	ldr	r2, [pc, #104]	; (f78 <test_pbkdf2_hmac_isha+0x20c>)
     f0e:	18bb      	adds	r3, r7, r2
     f10:	681b      	ldr	r3, [r3, #0]
     f12:	3301      	adds	r3, #1
     f14:	18ba      	adds	r2, r7, r2
     f16:	6013      	str	r3, [r2, #0]
     f18:	e008      	b.n	f2c <test_pbkdf2_hmac_isha+0x1c0>
     f1a:	239d      	movs	r3, #157	; 0x9d
     f1c:	00db      	lsls	r3, r3, #3
     f1e:	18fb      	adds	r3, r7, r3
     f20:	681a      	ldr	r2, [r3, #0]
     f22:	4918      	ldr	r1, [pc, #96]	; (f84 <test_pbkdf2_hmac_isha+0x218>)
     f24:	4b19      	ldr	r3, [pc, #100]	; (f8c <test_pbkdf2_hmac_isha+0x220>)
     f26:	0018      	movs	r0, r3
     f28:	f002 fb7a 	bl	3620 <_printf>
     f2c:	229d      	movs	r2, #157	; 0x9d
     f2e:	00d2      	lsls	r2, r2, #3
     f30:	18bb      	adds	r3, r7, r2
     f32:	681b      	ldr	r3, [r3, #0]
     f34:	3301      	adds	r3, #1
     f36:	18ba      	adds	r2, r7, r2
     f38:	6013      	str	r3, [r2, #0]
     f3a:	239d      	movs	r3, #157	; 0x9d
     f3c:	00db      	lsls	r3, r3, #3
     f3e:	18fb      	adds	r3, r7, r3
     f40:	681a      	ldr	r2, [r3, #0]
     f42:	490c      	ldr	r1, [pc, #48]	; (f74 <test_pbkdf2_hmac_isha+0x208>)
     f44:	187b      	adds	r3, r7, r1
     f46:	681b      	ldr	r3, [r3, #0]
     f48:	429a      	cmp	r2, r3
     f4a:	da00      	bge.n	f4e <test_pbkdf2_hmac_isha+0x1e2>
     f4c:	e72a      	b.n	da4 <test_pbkdf2_hmac_isha+0x38>
     f4e:	187b      	adds	r3, r7, r1
     f50:	681a      	ldr	r2, [r3, #0]
     f52:	4b09      	ldr	r3, [pc, #36]	; (f78 <test_pbkdf2_hmac_isha+0x20c>)
     f54:	18fb      	adds	r3, r7, r3
     f56:	681b      	ldr	r3, [r3, #0]
     f58:	1ad3      	subs	r3, r2, r3
     f5a:	425a      	negs	r2, r3
     f5c:	4153      	adcs	r3, r2
     f5e:	b2db      	uxtb	r3, r3
     f60:	0018      	movs	r0, r3
     f62:	46bd      	mov	sp, r7
     f64:	4b0a      	ldr	r3, [pc, #40]	; (f90 <test_pbkdf2_hmac_isha+0x224>)
     f66:	449d      	add	sp, r3
     f68:	bdf0      	pop	{r4, r5, r6, r7, pc}
     f6a:	46c0      	nop			; (mov r8, r8)
     f6c:	fffffafc 	.word	0xfffffafc
     f70:	00004cec 	.word	0x00004cec
     f74:	000004e4 	.word	0x000004e4
     f78:	000004ec 	.word	0x000004ec
     f7c:	000004dc 	.word	0x000004dc
     f80:	00004dc8 	.word	0x00004dc8
     f84:	00004e20 	.word	0x00004e20
     f88:	00004c78 	.word	0x00004c78
     f8c:	00004c90 	.word	0x00004c90
     f90:	000004f4 	.word	0x000004f4

00000f94 <HardFault_Handler>:
     f94:	2004      	movs	r0, #4
     f96:	4671      	mov	r1, lr
     f98:	4208      	tst	r0, r1
     f9a:	d002      	beq.n	fa2 <_MSP>
     f9c:	f3ef 8009 	mrs	r0, PSP
     fa0:	e001      	b.n	fa6 <_process>

00000fa2 <_MSP>:
     fa2:	f3ef 8008 	mrs	r0, MSP

00000fa6 <_process>:
     fa6:	6981      	ldr	r1, [r0, #24]
     fa8:	880a      	ldrh	r2, [r1, #0]
     faa:	4b05      	ldr	r3, [pc, #20]	; (fc0 <_semihost_return+0xe>)
     fac:	429a      	cmp	r2, r3
     fae:	d000      	beq.n	fb2 <_semihost_return>
     fb0:	e7fe      	b.n	fb0 <_process+0xa>

00000fb2 <_semihost_return>:
     fb2:	3102      	adds	r1, #2
     fb4:	6181      	str	r1, [r0, #24]
     fb6:	2120      	movs	r1, #32
     fb8:	6001      	str	r1, [r0, #0]
     fba:	4770      	bx	lr
     fbc:	46c0      	nop			; (mov r8, r8)
     fbe:	0000      	.short	0x0000
     fc0:	0000beab 	.word	0x0000beab

00000fc4 <NVIC_EnableIRQ>:
     fc4:	b580      	push	{r7, lr}
     fc6:	b082      	sub	sp, #8
     fc8:	af00      	add	r7, sp, #0
     fca:	0002      	movs	r2, r0
     fcc:	1dfb      	adds	r3, r7, #7
     fce:	701a      	strb	r2, [r3, #0]
     fd0:	1dfb      	adds	r3, r7, #7
     fd2:	781b      	ldrb	r3, [r3, #0]
     fd4:	001a      	movs	r2, r3
     fd6:	231f      	movs	r3, #31
     fd8:	401a      	ands	r2, r3
     fda:	4b04      	ldr	r3, [pc, #16]	; (fec <NVIC_EnableIRQ+0x28>)
     fdc:	2101      	movs	r1, #1
     fde:	4091      	lsls	r1, r2
     fe0:	000a      	movs	r2, r1
     fe2:	601a      	str	r2, [r3, #0]
     fe4:	46c0      	nop			; (mov r8, r8)
     fe6:	46bd      	mov	sp, r7
     fe8:	b002      	add	sp, #8
     fea:	bd80      	pop	{r7, pc}
     fec:	e000e100 	.word	0xe000e100

00000ff0 <NVIC_ClearPendingIRQ>:
     ff0:	b580      	push	{r7, lr}
     ff2:	b082      	sub	sp, #8
     ff4:	af00      	add	r7, sp, #0
     ff6:	0002      	movs	r2, r0
     ff8:	1dfb      	adds	r3, r7, #7
     ffa:	701a      	strb	r2, [r3, #0]
     ffc:	1dfb      	adds	r3, r7, #7
     ffe:	781b      	ldrb	r3, [r3, #0]
    1000:	001a      	movs	r2, r3
    1002:	231f      	movs	r3, #31
    1004:	4013      	ands	r3, r2
    1006:	4905      	ldr	r1, [pc, #20]	; (101c <NVIC_ClearPendingIRQ+0x2c>)
    1008:	2201      	movs	r2, #1
    100a:	409a      	lsls	r2, r3
    100c:	23c0      	movs	r3, #192	; 0xc0
    100e:	005b      	lsls	r3, r3, #1
    1010:	50ca      	str	r2, [r1, r3]
    1012:	46c0      	nop			; (mov r8, r8)
    1014:	46bd      	mov	sp, r7
    1016:	b002      	add	sp, #8
    1018:	bd80      	pop	{r7, pc}
    101a:	46c0      	nop			; (mov r8, r8)
    101c:	e000e100 	.word	0xe000e100

00001020 <NVIC_SetPriority>:
    1020:	b590      	push	{r4, r7, lr}
    1022:	b083      	sub	sp, #12
    1024:	af00      	add	r7, sp, #0
    1026:	0002      	movs	r2, r0
    1028:	6039      	str	r1, [r7, #0]
    102a:	1dfb      	adds	r3, r7, #7
    102c:	701a      	strb	r2, [r3, #0]
    102e:	1dfb      	adds	r3, r7, #7
    1030:	781b      	ldrb	r3, [r3, #0]
    1032:	2b7f      	cmp	r3, #127	; 0x7f
    1034:	d932      	bls.n	109c <NVIC_SetPriority+0x7c>
    1036:	4a2f      	ldr	r2, [pc, #188]	; (10f4 <NVIC_SetPriority+0xd4>)
    1038:	1dfb      	adds	r3, r7, #7
    103a:	781b      	ldrb	r3, [r3, #0]
    103c:	0019      	movs	r1, r3
    103e:	230f      	movs	r3, #15
    1040:	400b      	ands	r3, r1
    1042:	3b08      	subs	r3, #8
    1044:	089b      	lsrs	r3, r3, #2
    1046:	3306      	adds	r3, #6
    1048:	009b      	lsls	r3, r3, #2
    104a:	18d3      	adds	r3, r2, r3
    104c:	3304      	adds	r3, #4
    104e:	681b      	ldr	r3, [r3, #0]
    1050:	1dfa      	adds	r2, r7, #7
    1052:	7812      	ldrb	r2, [r2, #0]
    1054:	0011      	movs	r1, r2
    1056:	2203      	movs	r2, #3
    1058:	400a      	ands	r2, r1
    105a:	00d2      	lsls	r2, r2, #3
    105c:	21ff      	movs	r1, #255	; 0xff
    105e:	4091      	lsls	r1, r2
    1060:	000a      	movs	r2, r1
    1062:	43d2      	mvns	r2, r2
    1064:	401a      	ands	r2, r3
    1066:	0011      	movs	r1, r2
    1068:	683b      	ldr	r3, [r7, #0]
    106a:	019b      	lsls	r3, r3, #6
    106c:	22ff      	movs	r2, #255	; 0xff
    106e:	401a      	ands	r2, r3
    1070:	1dfb      	adds	r3, r7, #7
    1072:	781b      	ldrb	r3, [r3, #0]
    1074:	0018      	movs	r0, r3
    1076:	2303      	movs	r3, #3
    1078:	4003      	ands	r3, r0
    107a:	00db      	lsls	r3, r3, #3
    107c:	409a      	lsls	r2, r3
    107e:	481d      	ldr	r0, [pc, #116]	; (10f4 <NVIC_SetPriority+0xd4>)
    1080:	1dfb      	adds	r3, r7, #7
    1082:	781b      	ldrb	r3, [r3, #0]
    1084:	001c      	movs	r4, r3
    1086:	230f      	movs	r3, #15
    1088:	4023      	ands	r3, r4
    108a:	3b08      	subs	r3, #8
    108c:	089b      	lsrs	r3, r3, #2
    108e:	430a      	orrs	r2, r1
    1090:	3306      	adds	r3, #6
    1092:	009b      	lsls	r3, r3, #2
    1094:	18c3      	adds	r3, r0, r3
    1096:	3304      	adds	r3, #4
    1098:	601a      	str	r2, [r3, #0]
    109a:	e027      	b.n	10ec <NVIC_SetPriority+0xcc>
    109c:	4a16      	ldr	r2, [pc, #88]	; (10f8 <NVIC_SetPriority+0xd8>)
    109e:	1dfb      	adds	r3, r7, #7
    10a0:	781b      	ldrb	r3, [r3, #0]
    10a2:	b25b      	sxtb	r3, r3
    10a4:	089b      	lsrs	r3, r3, #2
    10a6:	33c0      	adds	r3, #192	; 0xc0
    10a8:	009b      	lsls	r3, r3, #2
    10aa:	589b      	ldr	r3, [r3, r2]
    10ac:	1dfa      	adds	r2, r7, #7
    10ae:	7812      	ldrb	r2, [r2, #0]
    10b0:	0011      	movs	r1, r2
    10b2:	2203      	movs	r2, #3
    10b4:	400a      	ands	r2, r1
    10b6:	00d2      	lsls	r2, r2, #3
    10b8:	21ff      	movs	r1, #255	; 0xff
    10ba:	4091      	lsls	r1, r2
    10bc:	000a      	movs	r2, r1
    10be:	43d2      	mvns	r2, r2
    10c0:	401a      	ands	r2, r3
    10c2:	0011      	movs	r1, r2
    10c4:	683b      	ldr	r3, [r7, #0]
    10c6:	019b      	lsls	r3, r3, #6
    10c8:	22ff      	movs	r2, #255	; 0xff
    10ca:	401a      	ands	r2, r3
    10cc:	1dfb      	adds	r3, r7, #7
    10ce:	781b      	ldrb	r3, [r3, #0]
    10d0:	0018      	movs	r0, r3
    10d2:	2303      	movs	r3, #3
    10d4:	4003      	ands	r3, r0
    10d6:	00db      	lsls	r3, r3, #3
    10d8:	409a      	lsls	r2, r3
    10da:	4807      	ldr	r0, [pc, #28]	; (10f8 <NVIC_SetPriority+0xd8>)
    10dc:	1dfb      	adds	r3, r7, #7
    10de:	781b      	ldrb	r3, [r3, #0]
    10e0:	b25b      	sxtb	r3, r3
    10e2:	089b      	lsrs	r3, r3, #2
    10e4:	430a      	orrs	r2, r1
    10e6:	33c0      	adds	r3, #192	; 0xc0
    10e8:	009b      	lsls	r3, r3, #2
    10ea:	501a      	str	r2, [r3, r0]
    10ec:	46c0      	nop			; (mov r8, r8)
    10ee:	46bd      	mov	sp, r7
    10f0:	b003      	add	sp, #12
    10f2:	bd90      	pop	{r4, r7, pc}
    10f4:	e000ed00 	.word	0xe000ed00
    10f8:	e000e100 	.word	0xe000e100

000010fc <init_ticktime>:
    10fc:	b580      	push	{r7, lr}
    10fe:	af00      	add	r7, sp, #0
    1100:	4b15      	ldr	r3, [pc, #84]	; (1158 <init_ticktime+0x5c>)
    1102:	2296      	movs	r2, #150	; 0x96
    1104:	0052      	lsls	r2, r2, #1
    1106:	605a      	str	r2, [r3, #4]
    1108:	2301      	movs	r3, #1
    110a:	425b      	negs	r3, r3
    110c:	2103      	movs	r1, #3
    110e:	0018      	movs	r0, r3
    1110:	f7ff ff86 	bl	1020 <NVIC_SetPriority>
    1114:	2301      	movs	r3, #1
    1116:	425b      	negs	r3, r3
    1118:	0018      	movs	r0, r3
    111a:	f7ff ff69 	bl	ff0 <NVIC_ClearPendingIRQ>
    111e:	2301      	movs	r3, #1
    1120:	425b      	negs	r3, r3
    1122:	0018      	movs	r0, r3
    1124:	f7ff ff4e 	bl	fc4 <NVIC_EnableIRQ>
    1128:	4b0b      	ldr	r3, [pc, #44]	; (1158 <init_ticktime+0x5c>)
    112a:	2200      	movs	r2, #0
    112c:	609a      	str	r2, [r3, #8]
    112e:	4b0a      	ldr	r3, [pc, #40]	; (1158 <init_ticktime+0x5c>)
    1130:	681a      	ldr	r2, [r3, #0]
    1132:	4b09      	ldr	r3, [pc, #36]	; (1158 <init_ticktime+0x5c>)
    1134:	2104      	movs	r1, #4
    1136:	438a      	bics	r2, r1
    1138:	601a      	str	r2, [r3, #0]
    113a:	4b07      	ldr	r3, [pc, #28]	; (1158 <init_ticktime+0x5c>)
    113c:	681a      	ldr	r2, [r3, #0]
    113e:	4b06      	ldr	r3, [pc, #24]	; (1158 <init_ticktime+0x5c>)
    1140:	2103      	movs	r1, #3
    1142:	430a      	orrs	r2, r1
    1144:	601a      	str	r2, [r3, #0]
    1146:	4b05      	ldr	r3, [pc, #20]	; (115c <init_ticktime+0x60>)
    1148:	2200      	movs	r2, #0
    114a:	601a      	str	r2, [r3, #0]
    114c:	4b04      	ldr	r3, [pc, #16]	; (1160 <init_ticktime+0x64>)
    114e:	2200      	movs	r2, #0
    1150:	601a      	str	r2, [r3, #0]
    1152:	46c0      	nop			; (mov r8, r8)
    1154:	46bd      	mov	sp, r7
    1156:	bd80      	pop	{r7, pc}
    1158:	e000e010 	.word	0xe000e010
    115c:	1ffff898 	.word	0x1ffff898
    1160:	1ffff89c 	.word	0x1ffff89c

00001164 <SysTick_Handler>:
    1164:	b580      	push	{r7, lr}
    1166:	af00      	add	r7, sp, #0
    1168:	4b03      	ldr	r3, [pc, #12]	; (1178 <SysTick_Handler+0x14>)
    116a:	681b      	ldr	r3, [r3, #0]
    116c:	1c5a      	adds	r2, r3, #1
    116e:	4b02      	ldr	r3, [pc, #8]	; (1178 <SysTick_Handler+0x14>)
    1170:	601a      	str	r2, [r3, #0]
    1172:	46c0      	nop			; (mov r8, r8)
    1174:	46bd      	mov	sp, r7
    1176:	bd80      	pop	{r7, pc}
    1178:	1ffff898 	.word	0x1ffff898

0000117c <reset_timer>:
    117c:	b580      	push	{r7, lr}
    117e:	af00      	add	r7, sp, #0
    1180:	4b03      	ldr	r3, [pc, #12]	; (1190 <reset_timer+0x14>)
    1182:	681a      	ldr	r2, [r3, #0]
    1184:	4b03      	ldr	r3, [pc, #12]	; (1194 <reset_timer+0x18>)
    1186:	601a      	str	r2, [r3, #0]
    1188:	46c0      	nop			; (mov r8, r8)
    118a:	46bd      	mov	sp, r7
    118c:	bd80      	pop	{r7, pc}
    118e:	46c0      	nop			; (mov r8, r8)
    1190:	1ffff898 	.word	0x1ffff898
    1194:	1ffff89c 	.word	0x1ffff89c

00001198 <get_timer>:
    1198:	b580      	push	{r7, lr}
    119a:	af00      	add	r7, sp, #0
    119c:	4b03      	ldr	r3, [pc, #12]	; (11ac <get_timer+0x14>)
    119e:	681a      	ldr	r2, [r3, #0]
    11a0:	4b03      	ldr	r3, [pc, #12]	; (11b0 <get_timer+0x18>)
    11a2:	681b      	ldr	r3, [r3, #0]
    11a4:	1ad3      	subs	r3, r2, r3
    11a6:	0018      	movs	r0, r3
    11a8:	46bd      	mov	sp, r7
    11aa:	bd80      	pop	{r7, pc}
    11ac:	1ffff898 	.word	0x1ffff898
    11b0:	1ffff89c 	.word	0x1ffff89c

000011b4 <CLOCK_SetEr32kClock>:
    11b4:	b580      	push	{r7, lr}
    11b6:	b082      	sub	sp, #8
    11b8:	af00      	add	r7, sp, #0
    11ba:	6078      	str	r0, [r7, #4]
    11bc:	4b08      	ldr	r3, [pc, #32]	; (11e0 <CLOCK_SetEr32kClock+0x2c>)
    11be:	681b      	ldr	r3, [r3, #0]
    11c0:	4a08      	ldr	r2, [pc, #32]	; (11e4 <CLOCK_SetEr32kClock+0x30>)
    11c2:	4013      	ands	r3, r2
    11c4:	0019      	movs	r1, r3
    11c6:	687b      	ldr	r3, [r7, #4]
    11c8:	049a      	lsls	r2, r3, #18
    11ca:	23c0      	movs	r3, #192	; 0xc0
    11cc:	031b      	lsls	r3, r3, #12
    11ce:	401a      	ands	r2, r3
    11d0:	4b03      	ldr	r3, [pc, #12]	; (11e0 <CLOCK_SetEr32kClock+0x2c>)
    11d2:	430a      	orrs	r2, r1
    11d4:	601a      	str	r2, [r3, #0]
    11d6:	46c0      	nop			; (mov r8, r8)
    11d8:	46bd      	mov	sp, r7
    11da:	b002      	add	sp, #8
    11dc:	bd80      	pop	{r7, pc}
    11de:	46c0      	nop			; (mov r8, r8)
    11e0:	40047000 	.word	0x40047000
    11e4:	fff3ffff 	.word	0xfff3ffff

000011e8 <CLOCK_SetPllFllSelClock>:
    11e8:	b580      	push	{r7, lr}
    11ea:	b082      	sub	sp, #8
    11ec:	af00      	add	r7, sp, #0
    11ee:	6078      	str	r0, [r7, #4]
    11f0:	4a08      	ldr	r2, [pc, #32]	; (1214 <CLOCK_SetPllFllSelClock+0x2c>)
    11f2:	4b09      	ldr	r3, [pc, #36]	; (1218 <CLOCK_SetPllFllSelClock+0x30>)
    11f4:	58d3      	ldr	r3, [r2, r3]
    11f6:	4a09      	ldr	r2, [pc, #36]	; (121c <CLOCK_SetPllFllSelClock+0x34>)
    11f8:	401a      	ands	r2, r3
    11fa:	687b      	ldr	r3, [r7, #4]
    11fc:	0419      	lsls	r1, r3, #16
    11fe:	2380      	movs	r3, #128	; 0x80
    1200:	025b      	lsls	r3, r3, #9
    1202:	400b      	ands	r3, r1
    1204:	4903      	ldr	r1, [pc, #12]	; (1214 <CLOCK_SetPllFllSelClock+0x2c>)
    1206:	4313      	orrs	r3, r2
    1208:	4a03      	ldr	r2, [pc, #12]	; (1218 <CLOCK_SetPllFllSelClock+0x30>)
    120a:	508b      	str	r3, [r1, r2]
    120c:	46c0      	nop			; (mov r8, r8)
    120e:	46bd      	mov	sp, r7
    1210:	b002      	add	sp, #8
    1212:	bd80      	pop	{r7, pc}
    1214:	40047000 	.word	0x40047000
    1218:	00001004 	.word	0x00001004
    121c:	fffeffff 	.word	0xfffeffff

00001220 <CLOCK_GetMcgExtClkFreq>:
    1220:	b580      	push	{r7, lr}
    1222:	af00      	add	r7, sp, #0
    1224:	4b06      	ldr	r3, [pc, #24]	; (1240 <CLOCK_GetMcgExtClkFreq+0x20>)
    1226:	681b      	ldr	r3, [r3, #0]
    1228:	2b00      	cmp	r3, #0
    122a:	d103      	bne.n	1234 <CLOCK_GetMcgExtClkFreq+0x14>
    122c:	4b05      	ldr	r3, [pc, #20]	; (1244 <CLOCK_GetMcgExtClkFreq+0x24>)
    122e:	0018      	movs	r0, r3
    1230:	f001 f84e 	bl	22d0 <__assertion_failed>
    1234:	4b02      	ldr	r3, [pc, #8]	; (1240 <CLOCK_GetMcgExtClkFreq+0x20>)
    1236:	681b      	ldr	r3, [r3, #0]
    1238:	0018      	movs	r0, r3
    123a:	46bd      	mov	sp, r7
    123c:	bd80      	pop	{r7, pc}
    123e:	46c0      	nop			; (mov r8, r8)
    1240:	1ffff8a0 	.word	0x1ffff8a0
    1244:	00004e38 	.word	0x00004e38

00001248 <CLOCK_GetFllExtRefClkFreq>:
    1248:	b580      	push	{r7, lr}
    124a:	b082      	sub	sp, #8
    124c:	af00      	add	r7, sp, #0
    124e:	f7ff ffe7 	bl	1220 <CLOCK_GetMcgExtClkFreq>
    1252:	0003      	movs	r3, r0
    1254:	607b      	str	r3, [r7, #4]
    1256:	687b      	ldr	r3, [r7, #4]
    1258:	2b00      	cmp	r3, #0
    125a:	d101      	bne.n	1260 <CLOCK_GetFllExtRefClkFreq+0x18>
    125c:	687b      	ldr	r3, [r7, #4]
    125e:	e041      	b.n	12e4 <CLOCK_GetFllExtRefClkFreq+0x9c>
    1260:	4b22      	ldr	r3, [pc, #136]	; (12ec <CLOCK_GetFllExtRefClkFreq+0xa4>)
    1262:	781b      	ldrb	r3, [r3, #0]
    1264:	b2db      	uxtb	r3, r3
    1266:	08db      	lsrs	r3, r3, #3
    1268:	b2da      	uxtb	r2, r3
    126a:	1cfb      	adds	r3, r7, #3
    126c:	2107      	movs	r1, #7
    126e:	400a      	ands	r2, r1
    1270:	701a      	strb	r2, [r3, #0]
    1272:	1cfb      	adds	r3, r7, #3
    1274:	781b      	ldrb	r3, [r3, #0]
    1276:	687a      	ldr	r2, [r7, #4]
    1278:	40da      	lsrs	r2, r3
    127a:	0013      	movs	r3, r2
    127c:	607b      	str	r3, [r7, #4]
    127e:	4b1b      	ldr	r3, [pc, #108]	; (12ec <CLOCK_GetFllExtRefClkFreq+0xa4>)
    1280:	785b      	ldrb	r3, [r3, #1]
    1282:	b2db      	uxtb	r3, r3
    1284:	091b      	lsrs	r3, r3, #4
    1286:	b2da      	uxtb	r2, r3
    1288:	1cbb      	adds	r3, r7, #2
    128a:	2103      	movs	r1, #3
    128c:	400a      	ands	r2, r1
    128e:	701a      	strb	r2, [r3, #0]
    1290:	1cbb      	adds	r3, r7, #2
    1292:	781b      	ldrb	r3, [r3, #0]
    1294:	2b00      	cmp	r3, #0
    1296:	d023      	beq.n	12e0 <CLOCK_GetFllExtRefClkFreq+0x98>
    1298:	1cfb      	adds	r3, r7, #3
    129a:	781b      	ldrb	r3, [r3, #0]
    129c:	2b07      	cmp	r3, #7
    129e:	d014      	beq.n	12ca <CLOCK_GetFllExtRefClkFreq+0x82>
    12a0:	dc1b      	bgt.n	12da <CLOCK_GetFllExtRefClkFreq+0x92>
    12a2:	2b05      	cmp	r3, #5
    12a4:	dc02      	bgt.n	12ac <CLOCK_GetFllExtRefClkFreq+0x64>
    12a6:	2b00      	cmp	r3, #0
    12a8:	da03      	bge.n	12b2 <CLOCK_GetFllExtRefClkFreq+0x6a>
    12aa:	e016      	b.n	12da <CLOCK_GetFllExtRefClkFreq+0x92>
    12ac:	2b06      	cmp	r3, #6
    12ae:	d004      	beq.n	12ba <CLOCK_GetFllExtRefClkFreq+0x72>
    12b0:	e013      	b.n	12da <CLOCK_GetFllExtRefClkFreq+0x92>
    12b2:	687b      	ldr	r3, [r7, #4]
    12b4:	095b      	lsrs	r3, r3, #5
    12b6:	607b      	str	r3, [r7, #4]
    12b8:	e013      	b.n	12e2 <CLOCK_GetFllExtRefClkFreq+0x9a>
    12ba:	687b      	ldr	r3, [r7, #4]
    12bc:	2114      	movs	r1, #20
    12be:	0018      	movs	r0, r3
    12c0:	f002 ff61 	bl	4186 <__aeabi_uidiv>
    12c4:	0003      	movs	r3, r0
    12c6:	607b      	str	r3, [r7, #4]
    12c8:	e00b      	b.n	12e2 <CLOCK_GetFllExtRefClkFreq+0x9a>
    12ca:	687b      	ldr	r3, [r7, #4]
    12cc:	210c      	movs	r1, #12
    12ce:	0018      	movs	r0, r3
    12d0:	f002 ff59 	bl	4186 <__aeabi_uidiv>
    12d4:	0003      	movs	r3, r0
    12d6:	607b      	str	r3, [r7, #4]
    12d8:	e003      	b.n	12e2 <CLOCK_GetFllExtRefClkFreq+0x9a>
    12da:	2300      	movs	r3, #0
    12dc:	607b      	str	r3, [r7, #4]
    12de:	e000      	b.n	12e2 <CLOCK_GetFllExtRefClkFreq+0x9a>
    12e0:	46c0      	nop			; (mov r8, r8)
    12e2:	687b      	ldr	r3, [r7, #4]
    12e4:	0018      	movs	r0, r3
    12e6:	46bd      	mov	sp, r7
    12e8:	b002      	add	sp, #8
    12ea:	bd80      	pop	{r7, pc}
    12ec:	40064000 	.word	0x40064000

000012f0 <CLOCK_GetFllRefClkFreq>:
    12f0:	b580      	push	{r7, lr}
    12f2:	af00      	add	r7, sp, #0
    12f4:	4b07      	ldr	r3, [pc, #28]	; (1314 <CLOCK_GetFllRefClkFreq+0x24>)
    12f6:	799b      	ldrb	r3, [r3, #6]
    12f8:	b2db      	uxtb	r3, r3
    12fa:	001a      	movs	r2, r3
    12fc:	2310      	movs	r3, #16
    12fe:	4013      	ands	r3, r2
    1300:	d103      	bne.n	130a <CLOCK_GetFllRefClkFreq+0x1a>
    1302:	f7ff ffa1 	bl	1248 <CLOCK_GetFllExtRefClkFreq>
    1306:	0003      	movs	r3, r0
    1308:	e001      	b.n	130e <CLOCK_GetFllRefClkFreq+0x1e>
    130a:	4b03      	ldr	r3, [pc, #12]	; (1318 <CLOCK_GetFllRefClkFreq+0x28>)
    130c:	681b      	ldr	r3, [r3, #0]
    130e:	0018      	movs	r0, r3
    1310:	46bd      	mov	sp, r7
    1312:	bd80      	pop	{r7, pc}
    1314:	40064000 	.word	0x40064000
    1318:	1ffff080 	.word	0x1ffff080

0000131c <CLOCK_GetOscRangeFromFreq>:
    131c:	b580      	push	{r7, lr}
    131e:	b084      	sub	sp, #16
    1320:	af00      	add	r7, sp, #0
    1322:	6078      	str	r0, [r7, #4]
    1324:	687b      	ldr	r3, [r7, #4]
    1326:	4a0e      	ldr	r2, [pc, #56]	; (1360 <CLOCK_GetOscRangeFromFreq+0x44>)
    1328:	4293      	cmp	r3, r2
    132a:	d804      	bhi.n	1336 <CLOCK_GetOscRangeFromFreq+0x1a>
    132c:	230f      	movs	r3, #15
    132e:	18fb      	adds	r3, r7, r3
    1330:	2200      	movs	r2, #0
    1332:	701a      	strb	r2, [r3, #0]
    1334:	e00c      	b.n	1350 <CLOCK_GetOscRangeFromFreq+0x34>
    1336:	687b      	ldr	r3, [r7, #4]
    1338:	4a0a      	ldr	r2, [pc, #40]	; (1364 <CLOCK_GetOscRangeFromFreq+0x48>)
    133a:	4293      	cmp	r3, r2
    133c:	d804      	bhi.n	1348 <CLOCK_GetOscRangeFromFreq+0x2c>
    133e:	230f      	movs	r3, #15
    1340:	18fb      	adds	r3, r7, r3
    1342:	2201      	movs	r2, #1
    1344:	701a      	strb	r2, [r3, #0]
    1346:	e003      	b.n	1350 <CLOCK_GetOscRangeFromFreq+0x34>
    1348:	230f      	movs	r3, #15
    134a:	18fb      	adds	r3, r7, r3
    134c:	2202      	movs	r2, #2
    134e:	701a      	strb	r2, [r3, #0]
    1350:	230f      	movs	r3, #15
    1352:	18fb      	adds	r3, r7, r3
    1354:	781b      	ldrb	r3, [r3, #0]
    1356:	0018      	movs	r0, r3
    1358:	46bd      	mov	sp, r7
    135a:	b004      	add	sp, #16
    135c:	bd80      	pop	{r7, pc}
    135e:	46c0      	nop			; (mov r8, r8)
    1360:	00009897 	.word	0x00009897
    1364:	007a1200 	.word	0x007a1200

00001368 <CLOCK_GetPllFllSelClkFreq>:
    1368:	b580      	push	{r7, lr}
    136a:	b082      	sub	sp, #8
    136c:	af00      	add	r7, sp, #0
    136e:	4a0f      	ldr	r2, [pc, #60]	; (13ac <CLOCK_GetPllFllSelClkFreq+0x44>)
    1370:	4b0f      	ldr	r3, [pc, #60]	; (13b0 <CLOCK_GetPllFllSelClkFreq+0x48>)
    1372:	58d3      	ldr	r3, [r2, r3]
    1374:	0c1b      	lsrs	r3, r3, #16
    1376:	2201      	movs	r2, #1
    1378:	4013      	ands	r3, r2
    137a:	d002      	beq.n	1382 <CLOCK_GetPllFllSelClkFreq+0x1a>
    137c:	2b01      	cmp	r3, #1
    137e:	d005      	beq.n	138c <CLOCK_GetPllFllSelClkFreq+0x24>
    1380:	e00c      	b.n	139c <CLOCK_GetPllFllSelClkFreq+0x34>
    1382:	f000 f833 	bl	13ec <CLOCK_GetFllFreq>
    1386:	0003      	movs	r3, r0
    1388:	607b      	str	r3, [r7, #4]
    138a:	e00a      	b.n	13a2 <CLOCK_GetPllFllSelClkFreq+0x3a>
    138c:	f000 f870 	bl	1470 <CLOCK_GetPll0Freq>
    1390:	0003      	movs	r3, r0
    1392:	607b      	str	r3, [r7, #4]
    1394:	687b      	ldr	r3, [r7, #4]
    1396:	085b      	lsrs	r3, r3, #1
    1398:	607b      	str	r3, [r7, #4]
    139a:	e002      	b.n	13a2 <CLOCK_GetPllFllSelClkFreq+0x3a>
    139c:	2300      	movs	r3, #0
    139e:	607b      	str	r3, [r7, #4]
    13a0:	46c0      	nop			; (mov r8, r8)
    13a2:	687b      	ldr	r3, [r7, #4]
    13a4:	0018      	movs	r0, r3
    13a6:	46bd      	mov	sp, r7
    13a8:	b002      	add	sp, #8
    13aa:	bd80      	pop	{r7, pc}
    13ac:	40047000 	.word	0x40047000
    13b0:	00001004 	.word	0x00001004

000013b4 <CLOCK_SetSimConfig>:
    13b4:	b580      	push	{r7, lr}
    13b6:	b082      	sub	sp, #8
    13b8:	af00      	add	r7, sp, #0
    13ba:	6078      	str	r0, [r7, #4]
    13bc:	4909      	ldr	r1, [pc, #36]	; (13e4 <CLOCK_SetSimConfig+0x30>)
    13be:	687b      	ldr	r3, [r7, #4]
    13c0:	685b      	ldr	r3, [r3, #4]
    13c2:	4a09      	ldr	r2, [pc, #36]	; (13e8 <CLOCK_SetSimConfig+0x34>)
    13c4:	508b      	str	r3, [r1, r2]
    13c6:	687b      	ldr	r3, [r7, #4]
    13c8:	781b      	ldrb	r3, [r3, #0]
    13ca:	0018      	movs	r0, r3
    13cc:	f7ff ff0c 	bl	11e8 <CLOCK_SetPllFllSelClock>
    13d0:	687b      	ldr	r3, [r7, #4]
    13d2:	785b      	ldrb	r3, [r3, #1]
    13d4:	0018      	movs	r0, r3
    13d6:	f7ff feed 	bl	11b4 <CLOCK_SetEr32kClock>
    13da:	46c0      	nop			; (mov r8, r8)
    13dc:	46bd      	mov	sp, r7
    13de:	b002      	add	sp, #8
    13e0:	bd80      	pop	{r7, pc}
    13e2:	46c0      	nop			; (mov r8, r8)
    13e4:	40047000 	.word	0x40047000
    13e8:	00001044 	.word	0x00001044

000013ec <CLOCK_GetFllFreq>:
    13ec:	b580      	push	{r7, lr}
    13ee:	b082      	sub	sp, #8
    13f0:	af00      	add	r7, sp, #0
    13f2:	4b1d      	ldr	r3, [pc, #116]	; (1468 <CLOCK_GetFllFreq+0x7c>)
    13f4:	785b      	ldrb	r3, [r3, #1]
    13f6:	b2db      	uxtb	r3, r3
    13f8:	001a      	movs	r2, r3
    13fa:	2302      	movs	r3, #2
    13fc:	4013      	ands	r3, r2
    13fe:	d106      	bne.n	140e <CLOCK_GetFllFreq+0x22>
    1400:	4b19      	ldr	r3, [pc, #100]	; (1468 <CLOCK_GetFllFreq+0x7c>)
    1402:	799b      	ldrb	r3, [r3, #6]
    1404:	b2db      	uxtb	r3, r3
    1406:	001a      	movs	r2, r3
    1408:	2320      	movs	r3, #32
    140a:	4013      	ands	r3, r2
    140c:	d001      	beq.n	1412 <CLOCK_GetFllFreq+0x26>
    140e:	2300      	movs	r3, #0
    1410:	e026      	b.n	1460 <CLOCK_GetFllFreq+0x74>
    1412:	f7ff ff6d 	bl	12f0 <CLOCK_GetFllRefClkFreq>
    1416:	0003      	movs	r3, r0
    1418:	607b      	str	r3, [r7, #4]
    141a:	687b      	ldr	r3, [r7, #4]
    141c:	2b00      	cmp	r3, #0
    141e:	d101      	bne.n	1424 <CLOCK_GetFllFreq+0x38>
    1420:	687b      	ldr	r3, [r7, #4]
    1422:	e01d      	b.n	1460 <CLOCK_GetFllFreq+0x74>
    1424:	4b10      	ldr	r3, [pc, #64]	; (1468 <CLOCK_GetFllFreq+0x7c>)
    1426:	78db      	ldrb	r3, [r3, #3]
    1428:	b2db      	uxtb	r3, r3
    142a:	095b      	lsrs	r3, r3, #5
    142c:	b2da      	uxtb	r2, r3
    142e:	1cfb      	adds	r3, r7, #3
    1430:	2103      	movs	r1, #3
    1432:	400a      	ands	r2, r1
    1434:	701a      	strb	r2, [r3, #0]
    1436:	4b0c      	ldr	r3, [pc, #48]	; (1468 <CLOCK_GetFllFreq+0x7c>)
    1438:	78db      	ldrb	r3, [r3, #3]
    143a:	b2db      	uxtb	r3, r3
    143c:	09db      	lsrs	r3, r3, #7
    143e:	b2da      	uxtb	r2, r3
    1440:	1cbb      	adds	r3, r7, #2
    1442:	2101      	movs	r1, #1
    1444:	400a      	ands	r2, r1
    1446:	701a      	strb	r2, [r3, #0]
    1448:	1cfb      	adds	r3, r7, #3
    144a:	7819      	ldrb	r1, [r3, #0]
    144c:	1cbb      	adds	r3, r7, #2
    144e:	781a      	ldrb	r2, [r3, #0]
    1450:	4b06      	ldr	r3, [pc, #24]	; (146c <CLOCK_GetFllFreq+0x80>)
    1452:	0049      	lsls	r1, r1, #1
    1454:	188a      	adds	r2, r1, r2
    1456:	0052      	lsls	r2, r2, #1
    1458:	5ad3      	ldrh	r3, [r2, r3]
    145a:	001a      	movs	r2, r3
    145c:	687b      	ldr	r3, [r7, #4]
    145e:	4353      	muls	r3, r2
    1460:	0018      	movs	r0, r3
    1462:	46bd      	mov	sp, r7
    1464:	b002      	add	sp, #8
    1466:	bd80      	pop	{r7, pc}
    1468:	40064000 	.word	0x40064000
    146c:	00004ecc 	.word	0x00004ecc

00001470 <CLOCK_GetPll0Freq>:
    1470:	b580      	push	{r7, lr}
    1472:	b082      	sub	sp, #8
    1474:	af00      	add	r7, sp, #0
    1476:	4b18      	ldr	r3, [pc, #96]	; (14d8 <CLOCK_GetPll0Freq+0x68>)
    1478:	799b      	ldrb	r3, [r3, #6]
    147a:	b2db      	uxtb	r3, r3
    147c:	001a      	movs	r2, r3
    147e:	2340      	movs	r3, #64	; 0x40
    1480:	4013      	ands	r3, r2
    1482:	d101      	bne.n	1488 <CLOCK_GetPll0Freq+0x18>
    1484:	2300      	movs	r3, #0
    1486:	e023      	b.n	14d0 <CLOCK_GetPll0Freq+0x60>
    1488:	f002 fdca 	bl	4020 <CLOCK_GetPll0RefFreq>
    148c:	0003      	movs	r3, r0
    148e:	607b      	str	r3, [r7, #4]
    1490:	687b      	ldr	r3, [r7, #4]
    1492:	2b00      	cmp	r3, #0
    1494:	d103      	bne.n	149e <CLOCK_GetPll0Freq+0x2e>
    1496:	4b11      	ldr	r3, [pc, #68]	; (14dc <CLOCK_GetPll0Freq+0x6c>)
    1498:	0018      	movs	r0, r3
    149a:	f000 ff19 	bl	22d0 <__assertion_failed>
    149e:	4b0e      	ldr	r3, [pc, #56]	; (14d8 <CLOCK_GetPll0Freq+0x68>)
    14a0:	791b      	ldrb	r3, [r3, #4]
    14a2:	b2db      	uxtb	r3, r3
    14a4:	001a      	movs	r2, r3
    14a6:	231f      	movs	r3, #31
    14a8:	4013      	ands	r3, r2
    14aa:	3301      	adds	r3, #1
    14ac:	0019      	movs	r1, r3
    14ae:	6878      	ldr	r0, [r7, #4]
    14b0:	f002 fe69 	bl	4186 <__aeabi_uidiv>
    14b4:	0003      	movs	r3, r0
    14b6:	607b      	str	r3, [r7, #4]
    14b8:	4b07      	ldr	r3, [pc, #28]	; (14d8 <CLOCK_GetPll0Freq+0x68>)
    14ba:	795b      	ldrb	r3, [r3, #5]
    14bc:	b2db      	uxtb	r3, r3
    14be:	001a      	movs	r2, r3
    14c0:	231f      	movs	r3, #31
    14c2:	4013      	ands	r3, r2
    14c4:	3318      	adds	r3, #24
    14c6:	001a      	movs	r2, r3
    14c8:	687b      	ldr	r3, [r7, #4]
    14ca:	4353      	muls	r3, r2
    14cc:	607b      	str	r3, [r7, #4]
    14ce:	687b      	ldr	r3, [r7, #4]
    14d0:	0018      	movs	r0, r3
    14d2:	46bd      	mov	sp, r7
    14d4:	b002      	add	sp, #8
    14d6:	bd80      	pop	{r7, pc}
    14d8:	40064000 	.word	0x40064000
    14dc:	00004e58 	.word	0x00004e58

000014e0 <CLOCK_SetInternalRefClkConfig>:
    14e0:	b590      	push	{r4, r7, lr}
    14e2:	b085      	sub	sp, #20
    14e4:	af00      	add	r7, sp, #0
    14e6:	0004      	movs	r4, r0
    14e8:	0008      	movs	r0, r1
    14ea:	0011      	movs	r1, r2
    14ec:	1dfb      	adds	r3, r7, #7
    14ee:	1c22      	adds	r2, r4, #0
    14f0:	701a      	strb	r2, [r3, #0]
    14f2:	1dbb      	adds	r3, r7, #6
    14f4:	1c02      	adds	r2, r0, #0
    14f6:	701a      	strb	r2, [r3, #0]
    14f8:	1d7b      	adds	r3, r7, #5
    14fa:	1c0a      	adds	r2, r1, #0
    14fc:	701a      	strb	r2, [r3, #0]
    14fe:	4b40      	ldr	r3, [pc, #256]	; (1600 <CLOCK_SetInternalRefClkConfig+0x120>)
    1500:	799b      	ldrb	r3, [r3, #6]
    1502:	b2db      	uxtb	r3, r3
    1504:	089b      	lsrs	r3, r3, #2
    1506:	2203      	movs	r2, #3
    1508:	4013      	ands	r3, r2
    150a:	60fb      	str	r3, [r7, #12]
    150c:	4b3c      	ldr	r3, [pc, #240]	; (1600 <CLOCK_SetInternalRefClkConfig+0x120>)
    150e:	799b      	ldrb	r3, [r3, #6]
    1510:	b2da      	uxtb	r2, r3
    1512:	200b      	movs	r0, #11
    1514:	183b      	adds	r3, r7, r0
    1516:	2101      	movs	r1, #1
    1518:	400a      	ands	r2, r1
    151a:	701a      	strb	r2, [r3, #0]
    151c:	4b38      	ldr	r3, [pc, #224]	; (1600 <CLOCK_SetInternalRefClkConfig+0x120>)
    151e:	7a1b      	ldrb	r3, [r3, #8]
    1520:	b2db      	uxtb	r3, r3
    1522:	085b      	lsrs	r3, r3, #1
    1524:	b2da      	uxtb	r2, r3
    1526:	240a      	movs	r4, #10
    1528:	193b      	adds	r3, r7, r4
    152a:	2107      	movs	r1, #7
    152c:	400a      	ands	r2, r1
    152e:	701a      	strb	r2, [r3, #0]
    1530:	1d7a      	adds	r2, r7, #5
    1532:	193b      	adds	r3, r7, r4
    1534:	7812      	ldrb	r2, [r2, #0]
    1536:	781b      	ldrb	r3, [r3, #0]
    1538:	429a      	cmp	r2, r3
    153a:	d02e      	beq.n	159a <CLOCK_SetInternalRefClkConfig+0xba>
    153c:	183b      	adds	r3, r7, r0
    153e:	781b      	ldrb	r3, [r3, #0]
    1540:	2b01      	cmp	r3, #1
    1542:	d119      	bne.n	1578 <CLOCK_SetInternalRefClkConfig+0x98>
    1544:	68fb      	ldr	r3, [r7, #12]
    1546:	2b01      	cmp	r3, #1
    1548:	d006      	beq.n	1558 <CLOCK_SetInternalRefClkConfig+0x78>
    154a:	4b2d      	ldr	r3, [pc, #180]	; (1600 <CLOCK_SetInternalRefClkConfig+0x120>)
    154c:	781b      	ldrb	r3, [r3, #0]
    154e:	b2db      	uxtb	r3, r3
    1550:	001a      	movs	r2, r3
    1552:	2302      	movs	r3, #2
    1554:	4013      	ands	r3, r2
    1556:	d00f      	beq.n	1578 <CLOCK_SetInternalRefClkConfig+0x98>
    1558:	4b29      	ldr	r3, [pc, #164]	; (1600 <CLOCK_SetInternalRefClkConfig+0x120>)
    155a:	785b      	ldrb	r3, [r3, #1]
    155c:	b2db      	uxtb	r3, r3
    155e:	4a28      	ldr	r2, [pc, #160]	; (1600 <CLOCK_SetInternalRefClkConfig+0x120>)
    1560:	2101      	movs	r1, #1
    1562:	438b      	bics	r3, r1
    1564:	b2db      	uxtb	r3, r3
    1566:	7053      	strb	r3, [r2, #1]
    1568:	46c0      	nop			; (mov r8, r8)
    156a:	4b25      	ldr	r3, [pc, #148]	; (1600 <CLOCK_SetInternalRefClkConfig+0x120>)
    156c:	799b      	ldrb	r3, [r3, #6]
    156e:	b2db      	uxtb	r3, r3
    1570:	001a      	movs	r2, r3
    1572:	2301      	movs	r3, #1
    1574:	4013      	ands	r3, r2
    1576:	d1f8      	bne.n	156a <CLOCK_SetInternalRefClkConfig+0x8a>
    1578:	4b21      	ldr	r3, [pc, #132]	; (1600 <CLOCK_SetInternalRefClkConfig+0x120>)
    157a:	7a1b      	ldrb	r3, [r3, #8]
    157c:	b2db      	uxtb	r3, r3
    157e:	222f      	movs	r2, #47	; 0x2f
    1580:	4393      	bics	r3, r2
    1582:	b2da      	uxtb	r2, r3
    1584:	1d7b      	adds	r3, r7, #5
    1586:	781b      	ldrb	r3, [r3, #0]
    1588:	18db      	adds	r3, r3, r3
    158a:	b2db      	uxtb	r3, r3
    158c:	210e      	movs	r1, #14
    158e:	400b      	ands	r3, r1
    1590:	b2db      	uxtb	r3, r3
    1592:	491b      	ldr	r1, [pc, #108]	; (1600 <CLOCK_SetInternalRefClkConfig+0x120>)
    1594:	4313      	orrs	r3, r2
    1596:	b2db      	uxtb	r3, r3
    1598:	720b      	strb	r3, [r1, #8]
    159a:	4b19      	ldr	r3, [pc, #100]	; (1600 <CLOCK_SetInternalRefClkConfig+0x120>)
    159c:	785b      	ldrb	r3, [r3, #1]
    159e:	b2db      	uxtb	r3, r3
    15a0:	2201      	movs	r2, #1
    15a2:	4393      	bics	r3, r2
    15a4:	b2da      	uxtb	r2, r3
    15a6:	1dbb      	adds	r3, r7, #6
    15a8:	781b      	ldrb	r3, [r3, #0]
    15aa:	2101      	movs	r1, #1
    15ac:	400b      	ands	r3, r1
    15ae:	b2db      	uxtb	r3, r3
    15b0:	4913      	ldr	r1, [pc, #76]	; (1600 <CLOCK_SetInternalRefClkConfig+0x120>)
    15b2:	4313      	orrs	r3, r2
    15b4:	b2db      	uxtb	r3, r3
    15b6:	704b      	strb	r3, [r1, #1]
    15b8:	4b11      	ldr	r3, [pc, #68]	; (1600 <CLOCK_SetInternalRefClkConfig+0x120>)
    15ba:	781b      	ldrb	r3, [r3, #0]
    15bc:	b2db      	uxtb	r3, r3
    15be:	2203      	movs	r2, #3
    15c0:	4393      	bics	r3, r2
    15c2:	b2da      	uxtb	r2, r3
    15c4:	490e      	ldr	r1, [pc, #56]	; (1600 <CLOCK_SetInternalRefClkConfig+0x120>)
    15c6:	1dfb      	adds	r3, r7, #7
    15c8:	781b      	ldrb	r3, [r3, #0]
    15ca:	4313      	orrs	r3, r2
    15cc:	b2db      	uxtb	r3, r3
    15ce:	700b      	strb	r3, [r1, #0]
    15d0:	68fb      	ldr	r3, [r7, #12]
    15d2:	2b01      	cmp	r3, #1
    15d4:	d004      	beq.n	15e0 <CLOCK_SetInternalRefClkConfig+0x100>
    15d6:	1dfb      	adds	r3, r7, #7
    15d8:	781b      	ldrb	r3, [r3, #0]
    15da:	2202      	movs	r2, #2
    15dc:	4013      	ands	r3, r2
    15de:	d00a      	beq.n	15f6 <CLOCK_SetInternalRefClkConfig+0x116>
    15e0:	46c0      	nop			; (mov r8, r8)
    15e2:	4b07      	ldr	r3, [pc, #28]	; (1600 <CLOCK_SetInternalRefClkConfig+0x120>)
    15e4:	799b      	ldrb	r3, [r3, #6]
    15e6:	b2db      	uxtb	r3, r3
    15e8:	001a      	movs	r2, r3
    15ea:	2301      	movs	r3, #1
    15ec:	401a      	ands	r2, r3
    15ee:	1dbb      	adds	r3, r7, #6
    15f0:	781b      	ldrb	r3, [r3, #0]
    15f2:	429a      	cmp	r2, r3
    15f4:	d1f5      	bne.n	15e2 <CLOCK_SetInternalRefClkConfig+0x102>
    15f6:	2300      	movs	r3, #0
    15f8:	0018      	movs	r0, r3
    15fa:	46bd      	mov	sp, r7
    15fc:	b005      	add	sp, #20
    15fe:	bd90      	pop	{r4, r7, pc}
    1600:	40064000 	.word	0x40064000

00001604 <CLOCK_EnablePll0>:
    1604:	b580      	push	{r7, lr}
    1606:	b084      	sub	sp, #16
    1608:	af00      	add	r7, sp, #0
    160a:	6078      	str	r0, [r7, #4]
    160c:	687b      	ldr	r3, [r7, #4]
    160e:	2b00      	cmp	r3, #0
    1610:	d103      	bne.n	161a <CLOCK_EnablePll0+0x16>
    1612:	4b1f      	ldr	r3, [pc, #124]	; (1690 <CLOCK_EnablePll0+0x8c>)
    1614:	0018      	movs	r0, r3
    1616:	f000 fe5b 	bl	22d0 <__assertion_failed>
    161a:	200f      	movs	r0, #15
    161c:	183b      	adds	r3, r7, r0
    161e:	2200      	movs	r2, #0
    1620:	701a      	strb	r2, [r3, #0]
    1622:	687b      	ldr	r3, [r7, #4]
    1624:	785b      	ldrb	r3, [r3, #1]
    1626:	221f      	movs	r2, #31
    1628:	4013      	ands	r3, r2
    162a:	b2d9      	uxtb	r1, r3
    162c:	183b      	adds	r3, r7, r0
    162e:	183a      	adds	r2, r7, r0
    1630:	7812      	ldrb	r2, [r2, #0]
    1632:	430a      	orrs	r2, r1
    1634:	701a      	strb	r2, [r3, #0]
    1636:	4a17      	ldr	r2, [pc, #92]	; (1694 <CLOCK_EnablePll0+0x90>)
    1638:	183b      	adds	r3, r7, r0
    163a:	781b      	ldrb	r3, [r3, #0]
    163c:	7113      	strb	r3, [r2, #4]
    163e:	4b15      	ldr	r3, [pc, #84]	; (1694 <CLOCK_EnablePll0+0x90>)
    1640:	795b      	ldrb	r3, [r3, #5]
    1642:	b2db      	uxtb	r3, r3
    1644:	221f      	movs	r2, #31
    1646:	4393      	bics	r3, r2
    1648:	b2da      	uxtb	r2, r3
    164a:	687b      	ldr	r3, [r7, #4]
    164c:	789b      	ldrb	r3, [r3, #2]
    164e:	211f      	movs	r1, #31
    1650:	400b      	ands	r3, r1
    1652:	b2db      	uxtb	r3, r3
    1654:	490f      	ldr	r1, [pc, #60]	; (1694 <CLOCK_EnablePll0+0x90>)
    1656:	4313      	orrs	r3, r2
    1658:	b2db      	uxtb	r3, r3
    165a:	714b      	strb	r3, [r1, #5]
    165c:	4b0d      	ldr	r3, [pc, #52]	; (1694 <CLOCK_EnablePll0+0x90>)
    165e:	791b      	ldrb	r3, [r3, #4]
    1660:	b2da      	uxtb	r2, r3
    1662:	687b      	ldr	r3, [r7, #4]
    1664:	781b      	ldrb	r3, [r3, #0]
    1666:	4313      	orrs	r3, r2
    1668:	b2db      	uxtb	r3, r3
    166a:	4a0a      	ldr	r2, [pc, #40]	; (1694 <CLOCK_EnablePll0+0x90>)
    166c:	2140      	movs	r1, #64	; 0x40
    166e:	430b      	orrs	r3, r1
    1670:	b2db      	uxtb	r3, r3
    1672:	7113      	strb	r3, [r2, #4]
    1674:	46c0      	nop			; (mov r8, r8)
    1676:	4b07      	ldr	r3, [pc, #28]	; (1694 <CLOCK_EnablePll0+0x90>)
    1678:	799b      	ldrb	r3, [r3, #6]
    167a:	b2db      	uxtb	r3, r3
    167c:	001a      	movs	r2, r3
    167e:	2340      	movs	r3, #64	; 0x40
    1680:	4013      	ands	r3, r2
    1682:	d0f8      	beq.n	1676 <CLOCK_EnablePll0+0x72>
    1684:	46c0      	nop			; (mov r8, r8)
    1686:	46c0      	nop			; (mov r8, r8)
    1688:	46bd      	mov	sp, r7
    168a:	b004      	add	sp, #16
    168c:	bd80      	pop	{r7, pc}
    168e:	46c0      	nop			; (mov r8, r8)
    1690:	00004e78 	.word	0x00004e78
    1694:	40064000 	.word	0x40064000

00001698 <CLOCK_InitOsc0>:
    1698:	b5b0      	push	{r4, r5, r7, lr}
    169a:	b084      	sub	sp, #16
    169c:	af00      	add	r7, sp, #0
    169e:	6078      	str	r0, [r7, #4]
    16a0:	687b      	ldr	r3, [r7, #4]
    16a2:	681b      	ldr	r3, [r3, #0]
    16a4:	250f      	movs	r5, #15
    16a6:	197c      	adds	r4, r7, r5
    16a8:	0018      	movs	r0, r3
    16aa:	f7ff fe37 	bl	131c <CLOCK_GetOscRangeFromFreq>
    16ae:	0003      	movs	r3, r0
    16b0:	7023      	strb	r3, [r4, #0]
    16b2:	687b      	ldr	r3, [r7, #4]
    16b4:	791b      	ldrb	r3, [r3, #4]
    16b6:	4a1b      	ldr	r2, [pc, #108]	; (1724 <CLOCK_InitOsc0+0x8c>)
    16b8:	0019      	movs	r1, r3
    16ba:	0010      	movs	r0, r2
    16bc:	f002 fc8f 	bl	3fde <OSC_SetCapLoad>
    16c0:	687b      	ldr	r3, [r7, #4]
    16c2:	3306      	adds	r3, #6
    16c4:	4a17      	ldr	r2, [pc, #92]	; (1724 <CLOCK_InitOsc0+0x8c>)
    16c6:	0019      	movs	r1, r3
    16c8:	0010      	movs	r0, r2
    16ca:	f002 fc69 	bl	3fa0 <OSC_SetExtRefClkConfig>
    16ce:	4b16      	ldr	r3, [pc, #88]	; (1728 <CLOCK_InitOsc0+0x90>)
    16d0:	785b      	ldrb	r3, [r3, #1]
    16d2:	b2db      	uxtb	r3, r3
    16d4:	223c      	movs	r2, #60	; 0x3c
    16d6:	4393      	bics	r3, r2
    16d8:	b2da      	uxtb	r2, r3
    16da:	197b      	adds	r3, r7, r5
    16dc:	781b      	ldrb	r3, [r3, #0]
    16de:	011b      	lsls	r3, r3, #4
    16e0:	b2db      	uxtb	r3, r3
    16e2:	2130      	movs	r1, #48	; 0x30
    16e4:	400b      	ands	r3, r1
    16e6:	b2db      	uxtb	r3, r3
    16e8:	4313      	orrs	r3, r2
    16ea:	b2da      	uxtb	r2, r3
    16ec:	687b      	ldr	r3, [r7, #4]
    16ee:	795b      	ldrb	r3, [r3, #5]
    16f0:	490d      	ldr	r1, [pc, #52]	; (1728 <CLOCK_InitOsc0+0x90>)
    16f2:	4313      	orrs	r3, r2
    16f4:	b2db      	uxtb	r3, r3
    16f6:	704b      	strb	r3, [r1, #1]
    16f8:	687b      	ldr	r3, [r7, #4]
    16fa:	795b      	ldrb	r3, [r3, #5]
    16fc:	2b00      	cmp	r3, #0
    16fe:	d00d      	beq.n	171c <CLOCK_InitOsc0+0x84>
    1700:	4b08      	ldr	r3, [pc, #32]	; (1724 <CLOCK_InitOsc0+0x8c>)
    1702:	781b      	ldrb	r3, [r3, #0]
    1704:	b2db      	uxtb	r3, r3
    1706:	b25b      	sxtb	r3, r3
    1708:	2b00      	cmp	r3, #0
    170a:	da07      	bge.n	171c <CLOCK_InitOsc0+0x84>
    170c:	46c0      	nop			; (mov r8, r8)
    170e:	4b06      	ldr	r3, [pc, #24]	; (1728 <CLOCK_InitOsc0+0x90>)
    1710:	799b      	ldrb	r3, [r3, #6]
    1712:	b2db      	uxtb	r3, r3
    1714:	001a      	movs	r2, r3
    1716:	2302      	movs	r3, #2
    1718:	4013      	ands	r3, r2
    171a:	d0f8      	beq.n	170e <CLOCK_InitOsc0+0x76>
    171c:	46c0      	nop			; (mov r8, r8)
    171e:	46bd      	mov	sp, r7
    1720:	b004      	add	sp, #16
    1722:	bdb0      	pop	{r4, r5, r7, pc}
    1724:	40065000 	.word	0x40065000
    1728:	40064000 	.word	0x40064000

0000172c <CLOCK_SetPbeMode>:
    172c:	b580      	push	{r7, lr}
    172e:	b082      	sub	sp, #8
    1730:	af00      	add	r7, sp, #0
    1732:	0002      	movs	r2, r0
    1734:	6039      	str	r1, [r7, #0]
    1736:	1dfb      	adds	r3, r7, #7
    1738:	701a      	strb	r2, [r3, #0]
    173a:	683b      	ldr	r3, [r7, #0]
    173c:	2b00      	cmp	r3, #0
    173e:	d103      	bne.n	1748 <CLOCK_SetPbeMode+0x1c>
    1740:	4b24      	ldr	r3, [pc, #144]	; (17d4 <CLOCK_SetPbeMode+0xa8>)
    1742:	0018      	movs	r0, r3
    1744:	f000 fdc4 	bl	22d0 <__assertion_failed>
    1748:	4b23      	ldr	r3, [pc, #140]	; (17d8 <CLOCK_SetPbeMode+0xac>)
    174a:	785b      	ldrb	r3, [r3, #1]
    174c:	b2db      	uxtb	r3, r3
    174e:	4a22      	ldr	r2, [pc, #136]	; (17d8 <CLOCK_SetPbeMode+0xac>)
    1750:	2102      	movs	r1, #2
    1752:	438b      	bics	r3, r1
    1754:	b2db      	uxtb	r3, r3
    1756:	7053      	strb	r3, [r2, #1]
    1758:	4b1f      	ldr	r3, [pc, #124]	; (17d8 <CLOCK_SetPbeMode+0xac>)
    175a:	781b      	ldrb	r3, [r3, #0]
    175c:	b2db      	uxtb	r3, r3
    175e:	223b      	movs	r2, #59	; 0x3b
    1760:	4013      	ands	r3, r2
    1762:	b2db      	uxtb	r3, r3
    1764:	491c      	ldr	r1, [pc, #112]	; (17d8 <CLOCK_SetPbeMode+0xac>)
    1766:	2280      	movs	r2, #128	; 0x80
    1768:	4252      	negs	r2, r2
    176a:	4313      	orrs	r3, r2
    176c:	b2db      	uxtb	r3, r3
    176e:	700b      	strb	r3, [r1, #0]
    1770:	46c0      	nop			; (mov r8, r8)
    1772:	4b19      	ldr	r3, [pc, #100]	; (17d8 <CLOCK_SetPbeMode+0xac>)
    1774:	799b      	ldrb	r3, [r3, #6]
    1776:	b2db      	uxtb	r3, r3
    1778:	001a      	movs	r2, r3
    177a:	231c      	movs	r3, #28
    177c:	4013      	ands	r3, r2
    177e:	2b08      	cmp	r3, #8
    1780:	d1f7      	bne.n	1772 <CLOCK_SetPbeMode+0x46>
    1782:	4b15      	ldr	r3, [pc, #84]	; (17d8 <CLOCK_SetPbeMode+0xac>)
    1784:	795b      	ldrb	r3, [r3, #5]
    1786:	b2db      	uxtb	r3, r3
    1788:	4a13      	ldr	r2, [pc, #76]	; (17d8 <CLOCK_SetPbeMode+0xac>)
    178a:	2140      	movs	r1, #64	; 0x40
    178c:	438b      	bics	r3, r1
    178e:	b2db      	uxtb	r3, r3
    1790:	7153      	strb	r3, [r2, #5]
    1792:	46c0      	nop			; (mov r8, r8)
    1794:	4b10      	ldr	r3, [pc, #64]	; (17d8 <CLOCK_SetPbeMode+0xac>)
    1796:	799b      	ldrb	r3, [r3, #6]
    1798:	b2db      	uxtb	r3, r3
    179a:	001a      	movs	r2, r3
    179c:	2320      	movs	r3, #32
    179e:	4013      	ands	r3, r2
    17a0:	d1f8      	bne.n	1794 <CLOCK_SetPbeMode+0x68>
    17a2:	683b      	ldr	r3, [r7, #0]
    17a4:	0018      	movs	r0, r3
    17a6:	f7ff ff2d 	bl	1604 <CLOCK_EnablePll0>
    17aa:	4b0b      	ldr	r3, [pc, #44]	; (17d8 <CLOCK_SetPbeMode+0xac>)
    17ac:	795b      	ldrb	r3, [r3, #5]
    17ae:	b2db      	uxtb	r3, r3
    17b0:	4a09      	ldr	r2, [pc, #36]	; (17d8 <CLOCK_SetPbeMode+0xac>)
    17b2:	2140      	movs	r1, #64	; 0x40
    17b4:	430b      	orrs	r3, r1
    17b6:	b2db      	uxtb	r3, r3
    17b8:	7153      	strb	r3, [r2, #5]
    17ba:	46c0      	nop			; (mov r8, r8)
    17bc:	4b06      	ldr	r3, [pc, #24]	; (17d8 <CLOCK_SetPbeMode+0xac>)
    17be:	799b      	ldrb	r3, [r3, #6]
    17c0:	b2db      	uxtb	r3, r3
    17c2:	001a      	movs	r2, r3
    17c4:	2320      	movs	r3, #32
    17c6:	4013      	ands	r3, r2
    17c8:	d0f8      	beq.n	17bc <CLOCK_SetPbeMode+0x90>
    17ca:	2300      	movs	r3, #0
    17cc:	0018      	movs	r0, r3
    17ce:	46bd      	mov	sp, r7
    17d0:	b002      	add	sp, #8
    17d2:	bd80      	pop	{r7, pc}
    17d4:	00004e94 	.word	0x00004e94
    17d8:	40064000 	.word	0x40064000

000017dc <CLOCK_BootToPeeMode>:
    17dc:	b580      	push	{r7, lr}
    17de:	b082      	sub	sp, #8
    17e0:	af00      	add	r7, sp, #0
    17e2:	603a      	str	r2, [r7, #0]
    17e4:	1dfb      	adds	r3, r7, #7
    17e6:	1c02      	adds	r2, r0, #0
    17e8:	701a      	strb	r2, [r3, #0]
    17ea:	1dbb      	adds	r3, r7, #6
    17ec:	1c0a      	adds	r2, r1, #0
    17ee:	701a      	strb	r2, [r3, #0]
    17f0:	683b      	ldr	r3, [r7, #0]
    17f2:	2b00      	cmp	r3, #0
    17f4:	d103      	bne.n	17fe <CLOCK_BootToPeeMode+0x22>
    17f6:	4b13      	ldr	r3, [pc, #76]	; (1844 <CLOCK_BootToPeeMode+0x68>)
    17f8:	0018      	movs	r0, r3
    17fa:	f000 fd69 	bl	22d0 <__assertion_failed>
    17fe:	1dfb      	adds	r3, r7, #7
    1800:	781b      	ldrb	r3, [r3, #0]
    1802:	0018      	movs	r0, r3
    1804:	f002 fc14 	bl	4030 <CLOCK_SetExternalRefClkConfig>
    1808:	683a      	ldr	r2, [r7, #0]
    180a:	1dbb      	adds	r3, r7, #6
    180c:	781b      	ldrb	r3, [r3, #0]
    180e:	0011      	movs	r1, r2
    1810:	0018      	movs	r0, r3
    1812:	f7ff ff8b 	bl	172c <CLOCK_SetPbeMode>
    1816:	4b0c      	ldr	r3, [pc, #48]	; (1848 <CLOCK_BootToPeeMode+0x6c>)
    1818:	781b      	ldrb	r3, [r3, #0]
    181a:	b2db      	uxtb	r3, r3
    181c:	4a0a      	ldr	r2, [pc, #40]	; (1848 <CLOCK_BootToPeeMode+0x6c>)
    181e:	213f      	movs	r1, #63	; 0x3f
    1820:	400b      	ands	r3, r1
    1822:	b2db      	uxtb	r3, r3
    1824:	7013      	strb	r3, [r2, #0]
    1826:	46c0      	nop			; (mov r8, r8)
    1828:	4b07      	ldr	r3, [pc, #28]	; (1848 <CLOCK_BootToPeeMode+0x6c>)
    182a:	799b      	ldrb	r3, [r3, #6]
    182c:	b2db      	uxtb	r3, r3
    182e:	089b      	lsrs	r3, r3, #2
    1830:	2203      	movs	r2, #3
    1832:	4013      	ands	r3, r2
    1834:	2b03      	cmp	r3, #3
    1836:	d1f7      	bne.n	1828 <CLOCK_BootToPeeMode+0x4c>
    1838:	2300      	movs	r3, #0
    183a:	0018      	movs	r0, r3
    183c:	46bd      	mov	sp, r7
    183e:	b002      	add	sp, #8
    1840:	bd80      	pop	{r7, pc}
    1842:	46c0      	nop			; (mov r8, r8)
    1844:	00004eb0 	.word	0x00004eb0
    1848:	40064000 	.word	0x40064000

0000184c <CLOCK_EnableClock>:
    184c:	b580      	push	{r7, lr}
    184e:	b084      	sub	sp, #16
    1850:	af00      	add	r7, sp, #0
    1852:	6078      	str	r0, [r7, #4]
    1854:	687b      	ldr	r3, [r7, #4]
    1856:	0c1b      	lsrs	r3, r3, #16
    1858:	4a08      	ldr	r2, [pc, #32]	; (187c <CLOCK_EnableClock+0x30>)
    185a:	4694      	mov	ip, r2
    185c:	4463      	add	r3, ip
    185e:	60fb      	str	r3, [r7, #12]
    1860:	68fb      	ldr	r3, [r7, #12]
    1862:	6819      	ldr	r1, [r3, #0]
    1864:	687b      	ldr	r3, [r7, #4]
    1866:	041b      	lsls	r3, r3, #16
    1868:	0c1b      	lsrs	r3, r3, #16
    186a:	2201      	movs	r2, #1
    186c:	409a      	lsls	r2, r3
    186e:	68fb      	ldr	r3, [r7, #12]
    1870:	430a      	orrs	r2, r1
    1872:	601a      	str	r2, [r3, #0]
    1874:	46c0      	nop			; (mov r8, r8)
    1876:	46bd      	mov	sp, r7
    1878:	b004      	add	sp, #16
    187a:	bd80      	pop	{r7, pc}
    187c:	40047000 	.word	0x40047000

00001880 <LPSCI_GetInstance>:
    1880:	b580      	push	{r7, lr}
    1882:	b084      	sub	sp, #16
    1884:	af00      	add	r7, sp, #0
    1886:	6078      	str	r0, [r7, #4]
    1888:	2300      	movs	r3, #0
    188a:	60fb      	str	r3, [r7, #12]
    188c:	e006      	b.n	189c <LPSCI_GetInstance+0x1c>
    188e:	4a0c      	ldr	r2, [pc, #48]	; (18c0 <LPSCI_GetInstance+0x40>)
    1890:	687b      	ldr	r3, [r7, #4]
    1892:	4293      	cmp	r3, r2
    1894:	d006      	beq.n	18a4 <LPSCI_GetInstance+0x24>
    1896:	68fb      	ldr	r3, [r7, #12]
    1898:	3301      	adds	r3, #1
    189a:	60fb      	str	r3, [r7, #12]
    189c:	68fb      	ldr	r3, [r7, #12]
    189e:	2b00      	cmp	r3, #0
    18a0:	d0f5      	beq.n	188e <LPSCI_GetInstance+0xe>
    18a2:	e000      	b.n	18a6 <LPSCI_GetInstance+0x26>
    18a4:	46c0      	nop			; (mov r8, r8)
    18a6:	68fb      	ldr	r3, [r7, #12]
    18a8:	2b00      	cmp	r3, #0
    18aa:	d003      	beq.n	18b4 <LPSCI_GetInstance+0x34>
    18ac:	4b05      	ldr	r3, [pc, #20]	; (18c4 <LPSCI_GetInstance+0x44>)
    18ae:	0018      	movs	r0, r3
    18b0:	f000 fd0e 	bl	22d0 <__assertion_failed>
    18b4:	68fb      	ldr	r3, [r7, #12]
    18b6:	0018      	movs	r0, r3
    18b8:	46bd      	mov	sp, r7
    18ba:	b004      	add	sp, #16
    18bc:	bd80      	pop	{r7, pc}
    18be:	46c0      	nop			; (mov r8, r8)
    18c0:	4006a000 	.word	0x4006a000
    18c4:	00004edc 	.word	0x00004edc

000018c8 <LPSCI_Init>:
    18c8:	b5b0      	push	{r4, r5, r7, lr}
    18ca:	b08c      	sub	sp, #48	; 0x30
    18cc:	af00      	add	r7, sp, #0
    18ce:	60f8      	str	r0, [r7, #12]
    18d0:	60b9      	str	r1, [r7, #8]
    18d2:	607a      	str	r2, [r7, #4]
    18d4:	68bb      	ldr	r3, [r7, #8]
    18d6:	2b00      	cmp	r3, #0
    18d8:	d103      	bne.n	18e2 <LPSCI_Init+0x1a>
    18da:	4b8d      	ldr	r3, [pc, #564]	; (1b10 <LPSCI_Init+0x248>)
    18dc:	0018      	movs	r0, r3
    18de:	f000 fcf7 	bl	22d0 <__assertion_failed>
    18e2:	68bb      	ldr	r3, [r7, #8]
    18e4:	681b      	ldr	r3, [r3, #0]
    18e6:	2b00      	cmp	r3, #0
    18e8:	d103      	bne.n	18f2 <LPSCI_Init+0x2a>
    18ea:	4b8a      	ldr	r3, [pc, #552]	; (1b14 <LPSCI_Init+0x24c>)
    18ec:	0018      	movs	r0, r3
    18ee:	f000 fcef 	bl	22d0 <__assertion_failed>
    18f2:	232c      	movs	r3, #44	; 0x2c
    18f4:	18fb      	adds	r3, r7, r3
    18f6:	2200      	movs	r2, #0
    18f8:	801a      	strh	r2, [r3, #0]
    18fa:	2300      	movs	r3, #0
    18fc:	627b      	str	r3, [r7, #36]	; 0x24
    18fe:	68bb      	ldr	r3, [r7, #8]
    1900:	681b      	ldr	r3, [r3, #0]
    1902:	61bb      	str	r3, [r7, #24]
    1904:	2304      	movs	r3, #4
    1906:	623b      	str	r3, [r7, #32]
    1908:	e05a      	b.n	19c0 <LPSCI_Init+0xf8>
    190a:	68bb      	ldr	r3, [r7, #8]
    190c:	681b      	ldr	r3, [r3, #0]
    190e:	6a3a      	ldr	r2, [r7, #32]
    1910:	4353      	muls	r3, r2
    1912:	0019      	movs	r1, r3
    1914:	6878      	ldr	r0, [r7, #4]
    1916:	f002 fc36 	bl	4186 <__aeabi_uidiv>
    191a:	0003      	movs	r3, r0
    191c:	001a      	movs	r2, r3
    191e:	212a      	movs	r1, #42	; 0x2a
    1920:	187b      	adds	r3, r7, r1
    1922:	801a      	strh	r2, [r3, #0]
    1924:	000a      	movs	r2, r1
    1926:	18bb      	adds	r3, r7, r2
    1928:	881b      	ldrh	r3, [r3, #0]
    192a:	2b00      	cmp	r3, #0
    192c:	d102      	bne.n	1934 <LPSCI_Init+0x6c>
    192e:	18bb      	adds	r3, r7, r2
    1930:	2201      	movs	r2, #1
    1932:	801a      	strh	r2, [r3, #0]
    1934:	252a      	movs	r5, #42	; 0x2a
    1936:	197b      	adds	r3, r7, r5
    1938:	881b      	ldrh	r3, [r3, #0]
    193a:	6a3a      	ldr	r2, [r7, #32]
    193c:	4353      	muls	r3, r2
    193e:	0019      	movs	r1, r3
    1940:	6878      	ldr	r0, [r7, #4]
    1942:	f002 fc20 	bl	4186 <__aeabi_uidiv>
    1946:	0003      	movs	r3, r0
    1948:	617b      	str	r3, [r7, #20]
    194a:	68bb      	ldr	r3, [r7, #8]
    194c:	681b      	ldr	r3, [r3, #0]
    194e:	697a      	ldr	r2, [r7, #20]
    1950:	1ad3      	subs	r3, r2, r3
    1952:	61fb      	str	r3, [r7, #28]
    1954:	68bb      	ldr	r3, [r7, #8]
    1956:	681c      	ldr	r4, [r3, #0]
    1958:	197b      	adds	r3, r7, r5
    195a:	881b      	ldrh	r3, [r3, #0]
    195c:	3301      	adds	r3, #1
    195e:	001a      	movs	r2, r3
    1960:	6a3b      	ldr	r3, [r7, #32]
    1962:	4353      	muls	r3, r2
    1964:	0019      	movs	r1, r3
    1966:	6878      	ldr	r0, [r7, #4]
    1968:	f002 fc0d 	bl	4186 <__aeabi_uidiv>
    196c:	0003      	movs	r3, r0
    196e:	1ae3      	subs	r3, r4, r3
    1970:	69fa      	ldr	r2, [r7, #28]
    1972:	429a      	cmp	r2, r3
    1974:	d913      	bls.n	199e <LPSCI_Init+0xd6>
    1976:	68bb      	ldr	r3, [r7, #8]
    1978:	681c      	ldr	r4, [r3, #0]
    197a:	197b      	adds	r3, r7, r5
    197c:	881b      	ldrh	r3, [r3, #0]
    197e:	3301      	adds	r3, #1
    1980:	001a      	movs	r2, r3
    1982:	6a3b      	ldr	r3, [r7, #32]
    1984:	4353      	muls	r3, r2
    1986:	0019      	movs	r1, r3
    1988:	6878      	ldr	r0, [r7, #4]
    198a:	f002 fbfc 	bl	4186 <__aeabi_uidiv>
    198e:	0003      	movs	r3, r0
    1990:	1ae3      	subs	r3, r4, r3
    1992:	61fb      	str	r3, [r7, #28]
    1994:	197b      	adds	r3, r7, r5
    1996:	881a      	ldrh	r2, [r3, #0]
    1998:	197b      	adds	r3, r7, r5
    199a:	3201      	adds	r2, #1
    199c:	801a      	strh	r2, [r3, #0]
    199e:	69fa      	ldr	r2, [r7, #28]
    19a0:	69bb      	ldr	r3, [r7, #24]
    19a2:	429a      	cmp	r2, r3
    19a4:	d809      	bhi.n	19ba <LPSCI_Init+0xf2>
    19a6:	69fb      	ldr	r3, [r7, #28]
    19a8:	61bb      	str	r3, [r7, #24]
    19aa:	6a3b      	ldr	r3, [r7, #32]
    19ac:	627b      	str	r3, [r7, #36]	; 0x24
    19ae:	232c      	movs	r3, #44	; 0x2c
    19b0:	18fb      	adds	r3, r7, r3
    19b2:	222a      	movs	r2, #42	; 0x2a
    19b4:	18ba      	adds	r2, r7, r2
    19b6:	8812      	ldrh	r2, [r2, #0]
    19b8:	801a      	strh	r2, [r3, #0]
    19ba:	6a3b      	ldr	r3, [r7, #32]
    19bc:	3301      	adds	r3, #1
    19be:	623b      	str	r3, [r7, #32]
    19c0:	6a3b      	ldr	r3, [r7, #32]
    19c2:	2b20      	cmp	r3, #32
    19c4:	d9a1      	bls.n	190a <LPSCI_Init+0x42>
    19c6:	68bb      	ldr	r3, [r7, #8]
    19c8:	681b      	ldr	r3, [r3, #0]
    19ca:	2164      	movs	r1, #100	; 0x64
    19cc:	0018      	movs	r0, r3
    19ce:	f002 fbda 	bl	4186 <__aeabi_uidiv>
    19d2:	0003      	movs	r3, r0
    19d4:	001a      	movs	r2, r3
    19d6:	0013      	movs	r3, r2
    19d8:	005b      	lsls	r3, r3, #1
    19da:	189b      	adds	r3, r3, r2
    19dc:	69ba      	ldr	r2, [r7, #24]
    19de:	429a      	cmp	r2, r3
    19e0:	d901      	bls.n	19e6 <LPSCI_Init+0x11e>
    19e2:	4b4d      	ldr	r3, [pc, #308]	; (1b18 <LPSCI_Init+0x250>)
    19e4:	e090      	b.n	1b08 <LPSCI_Init+0x240>
    19e6:	68fb      	ldr	r3, [r7, #12]
    19e8:	0018      	movs	r0, r3
    19ea:	f7ff ff49 	bl	1880 <LPSCI_GetInstance>
    19ee:	4b4b      	ldr	r3, [pc, #300]	; (1b1c <LPSCI_Init+0x254>)
    19f0:	0018      	movs	r0, r3
    19f2:	f7ff ff2b 	bl	184c <CLOCK_EnableClock>
    19f6:	68fb      	ldr	r3, [r7, #12]
    19f8:	78db      	ldrb	r3, [r3, #3]
    19fa:	b2db      	uxtb	r3, r3
    19fc:	220c      	movs	r2, #12
    19fe:	4393      	bics	r3, r2
    1a00:	b2da      	uxtb	r2, r3
    1a02:	68fb      	ldr	r3, [r7, #12]
    1a04:	70da      	strb	r2, [r3, #3]
    1a06:	6a7b      	ldr	r3, [r7, #36]	; 0x24
    1a08:	2b03      	cmp	r3, #3
    1a0a:	d90a      	bls.n	1a22 <LPSCI_Init+0x15a>
    1a0c:	6a7b      	ldr	r3, [r7, #36]	; 0x24
    1a0e:	2b07      	cmp	r3, #7
    1a10:	d807      	bhi.n	1a22 <LPSCI_Init+0x15a>
    1a12:	68fb      	ldr	r3, [r7, #12]
    1a14:	7adb      	ldrb	r3, [r3, #11]
    1a16:	b2db      	uxtb	r3, r3
    1a18:	2202      	movs	r2, #2
    1a1a:	4313      	orrs	r3, r2
    1a1c:	b2da      	uxtb	r2, r3
    1a1e:	68fb      	ldr	r3, [r7, #12]
    1a20:	72da      	strb	r2, [r3, #11]
    1a22:	68fb      	ldr	r3, [r7, #12]
    1a24:	7a9b      	ldrb	r3, [r3, #10]
    1a26:	b2db      	uxtb	r3, r3
    1a28:	221f      	movs	r2, #31
    1a2a:	4393      	bics	r3, r2
    1a2c:	b2da      	uxtb	r2, r3
    1a2e:	6a7b      	ldr	r3, [r7, #36]	; 0x24
    1a30:	b2db      	uxtb	r3, r3
    1a32:	3b01      	subs	r3, #1
    1a34:	b2db      	uxtb	r3, r3
    1a36:	4313      	orrs	r3, r2
    1a38:	b2da      	uxtb	r2, r3
    1a3a:	68fb      	ldr	r3, [r7, #12]
    1a3c:	729a      	strb	r2, [r3, #10]
    1a3e:	68fb      	ldr	r3, [r7, #12]
    1a40:	7a9b      	ldrb	r3, [r3, #10]
    1a42:	b2db      	uxtb	r3, r3
    1a44:	221f      	movs	r2, #31
    1a46:	4393      	bics	r3, r2
    1a48:	b2da      	uxtb	r2, r3
    1a4a:	212c      	movs	r1, #44	; 0x2c
    1a4c:	187b      	adds	r3, r7, r1
    1a4e:	881b      	ldrh	r3, [r3, #0]
    1a50:	0a1b      	lsrs	r3, r3, #8
    1a52:	b29b      	uxth	r3, r3
    1a54:	b2db      	uxtb	r3, r3
    1a56:	4313      	orrs	r3, r2
    1a58:	b2da      	uxtb	r2, r3
    1a5a:	68fb      	ldr	r3, [r7, #12]
    1a5c:	701a      	strb	r2, [r3, #0]
    1a5e:	187b      	adds	r3, r7, r1
    1a60:	881b      	ldrh	r3, [r3, #0]
    1a62:	b2da      	uxtb	r2, r3
    1a64:	68fb      	ldr	r3, [r7, #12]
    1a66:	705a      	strb	r2, [r3, #1]
    1a68:	68fb      	ldr	r3, [r7, #12]
    1a6a:	789b      	ldrb	r3, [r3, #2]
    1a6c:	b2da      	uxtb	r2, r3
    1a6e:	202f      	movs	r0, #47	; 0x2f
    1a70:	183b      	adds	r3, r7, r0
    1a72:	2113      	movs	r1, #19
    1a74:	438a      	bics	r2, r1
    1a76:	701a      	strb	r2, [r3, #0]
    1a78:	68bb      	ldr	r3, [r7, #8]
    1a7a:	791b      	ldrb	r3, [r3, #4]
    1a7c:	2b00      	cmp	r3, #0
    1a7e:	d009      	beq.n	1a94 <LPSCI_Init+0x1cc>
    1a80:	68bb      	ldr	r3, [r7, #8]
    1a82:	791a      	ldrb	r2, [r3, #4]
    1a84:	183b      	adds	r3, r7, r0
    1a86:	781b      	ldrb	r3, [r3, #0]
    1a88:	4313      	orrs	r3, r2
    1a8a:	b2da      	uxtb	r2, r3
    1a8c:	183b      	adds	r3, r7, r0
    1a8e:	2110      	movs	r1, #16
    1a90:	430a      	orrs	r2, r1
    1a92:	701a      	strb	r2, [r3, #0]
    1a94:	68fb      	ldr	r3, [r7, #12]
    1a96:	202f      	movs	r0, #47	; 0x2f
    1a98:	183a      	adds	r2, r7, r0
    1a9a:	7812      	ldrb	r2, [r2, #0]
    1a9c:	709a      	strb	r2, [r3, #2]
    1a9e:	68fb      	ldr	r3, [r7, #12]
    1aa0:	781b      	ldrb	r3, [r3, #0]
    1aa2:	b2db      	uxtb	r3, r3
    1aa4:	2220      	movs	r2, #32
    1aa6:	4393      	bics	r3, r2
    1aa8:	b2da      	uxtb	r2, r3
    1aaa:	68fb      	ldr	r3, [r7, #12]
    1aac:	701a      	strb	r2, [r3, #0]
    1aae:	68fb      	ldr	r3, [r7, #12]
    1ab0:	781b      	ldrb	r3, [r3, #0]
    1ab2:	b2da      	uxtb	r2, r3
    1ab4:	68bb      	ldr	r3, [r7, #8]
    1ab6:	795b      	ldrb	r3, [r3, #5]
    1ab8:	015b      	lsls	r3, r3, #5
    1aba:	b2db      	uxtb	r3, r3
    1abc:	2120      	movs	r1, #32
    1abe:	400b      	ands	r3, r1
    1ac0:	b2db      	uxtb	r3, r3
    1ac2:	4313      	orrs	r3, r2
    1ac4:	b2da      	uxtb	r2, r3
    1ac6:	68fb      	ldr	r3, [r7, #12]
    1ac8:	701a      	strb	r2, [r3, #0]
    1aca:	183b      	adds	r3, r7, r0
    1acc:	68fa      	ldr	r2, [r7, #12]
    1ace:	78d2      	ldrb	r2, [r2, #3]
    1ad0:	701a      	strb	r2, [r3, #0]
    1ad2:	68bb      	ldr	r3, [r7, #8]
    1ad4:	799b      	ldrb	r3, [r3, #6]
    1ad6:	2b00      	cmp	r3, #0
    1ad8:	d005      	beq.n	1ae6 <LPSCI_Init+0x21e>
    1ada:	183b      	adds	r3, r7, r0
    1adc:	183a      	adds	r2, r7, r0
    1ade:	7812      	ldrb	r2, [r2, #0]
    1ae0:	2108      	movs	r1, #8
    1ae2:	430a      	orrs	r2, r1
    1ae4:	701a      	strb	r2, [r3, #0]
    1ae6:	68bb      	ldr	r3, [r7, #8]
    1ae8:	79db      	ldrb	r3, [r3, #7]
    1aea:	2b00      	cmp	r3, #0
    1aec:	d006      	beq.n	1afc <LPSCI_Init+0x234>
    1aee:	222f      	movs	r2, #47	; 0x2f
    1af0:	18bb      	adds	r3, r7, r2
    1af2:	18ba      	adds	r2, r7, r2
    1af4:	7812      	ldrb	r2, [r2, #0]
    1af6:	2104      	movs	r1, #4
    1af8:	430a      	orrs	r2, r1
    1afa:	701a      	strb	r2, [r3, #0]
    1afc:	68fb      	ldr	r3, [r7, #12]
    1afe:	222f      	movs	r2, #47	; 0x2f
    1b00:	18ba      	adds	r2, r7, r2
    1b02:	7812      	ldrb	r2, [r2, #0]
    1b04:	70da      	strb	r2, [r3, #3]
    1b06:	2300      	movs	r3, #0
    1b08:	0018      	movs	r0, r3
    1b0a:	46bd      	mov	sp, r7
    1b0c:	b00c      	add	sp, #48	; 0x30
    1b0e:	bdb0      	pop	{r4, r5, r7, pc}
    1b10:	00004f14 	.word	0x00004f14
    1b14:	00004f30 	.word	0x00004f30
    1b18:	000004b5 	.word	0x000004b5
    1b1c:	1034000a 	.word	0x1034000a

00001b20 <LPSCI_GetDefaultConfig>:
    1b20:	b580      	push	{r7, lr}
    1b22:	b082      	sub	sp, #8
    1b24:	af00      	add	r7, sp, #0
    1b26:	6078      	str	r0, [r7, #4]
    1b28:	687b      	ldr	r3, [r7, #4]
    1b2a:	2b00      	cmp	r3, #0
    1b2c:	d103      	bne.n	1b36 <LPSCI_GetDefaultConfig+0x16>
    1b2e:	4b0c      	ldr	r3, [pc, #48]	; (1b60 <LPSCI_GetDefaultConfig+0x40>)
    1b30:	0018      	movs	r0, r3
    1b32:	f000 fbcd 	bl	22d0 <__assertion_failed>
    1b36:	687b      	ldr	r3, [r7, #4]
    1b38:	22e1      	movs	r2, #225	; 0xe1
    1b3a:	0252      	lsls	r2, r2, #9
    1b3c:	601a      	str	r2, [r3, #0]
    1b3e:	687b      	ldr	r3, [r7, #4]
    1b40:	2200      	movs	r2, #0
    1b42:	711a      	strb	r2, [r3, #4]
    1b44:	687b      	ldr	r3, [r7, #4]
    1b46:	2200      	movs	r2, #0
    1b48:	715a      	strb	r2, [r3, #5]
    1b4a:	687b      	ldr	r3, [r7, #4]
    1b4c:	2200      	movs	r2, #0
    1b4e:	719a      	strb	r2, [r3, #6]
    1b50:	687b      	ldr	r3, [r7, #4]
    1b52:	2200      	movs	r2, #0
    1b54:	71da      	strb	r2, [r3, #7]
    1b56:	46c0      	nop			; (mov r8, r8)
    1b58:	46bd      	mov	sp, r7
    1b5a:	b002      	add	sp, #8
    1b5c:	bd80      	pop	{r7, pc}
    1b5e:	46c0      	nop			; (mov r8, r8)
    1b60:	00004f58 	.word	0x00004f58

00001b64 <LPSCI_ClearStatusFlags>:
    1b64:	b580      	push	{r7, lr}
    1b66:	b084      	sub	sp, #16
    1b68:	af00      	add	r7, sp, #0
    1b6a:	6078      	str	r0, [r7, #4]
    1b6c:	6039      	str	r1, [r7, #0]
    1b6e:	210b      	movs	r1, #11
    1b70:	187b      	adds	r3, r7, r1
    1b72:	2200      	movs	r2, #0
    1b74:	701a      	strb	r2, [r3, #0]
    1b76:	187b      	adds	r3, r7, r1
    1b78:	781b      	ldrb	r3, [r3, #0]
    1b7a:	b2db      	uxtb	r3, r3
    1b7c:	3301      	adds	r3, #1
    1b7e:	b2da      	uxtb	r2, r3
    1b80:	187b      	adds	r3, r7, r1
    1b82:	701a      	strb	r2, [r3, #0]
    1b84:	683a      	ldr	r2, [r7, #0]
    1b86:	2380      	movs	r3, #128	; 0x80
    1b88:	021b      	lsls	r3, r3, #8
    1b8a:	4013      	ands	r3, r2
    1b8c:	d006      	beq.n	1b9c <LPSCI_ClearStatusFlags+0x38>
    1b8e:	687b      	ldr	r3, [r7, #4]
    1b90:	2280      	movs	r2, #128	; 0x80
    1b92:	715a      	strb	r2, [r3, #5]
    1b94:	683b      	ldr	r3, [r7, #0]
    1b96:	4a15      	ldr	r2, [pc, #84]	; (1bec <LPSCI_ClearStatusFlags+0x88>)
    1b98:	4013      	ands	r3, r2
    1b9a:	603b      	str	r3, [r7, #0]
    1b9c:	683a      	ldr	r2, [r7, #0]
    1b9e:	2380      	movs	r3, #128	; 0x80
    1ba0:	01db      	lsls	r3, r3, #7
    1ba2:	4013      	ands	r3, r2
    1ba4:	d006      	beq.n	1bb4 <LPSCI_ClearStatusFlags+0x50>
    1ba6:	687b      	ldr	r3, [r7, #4]
    1ba8:	2240      	movs	r2, #64	; 0x40
    1baa:	715a      	strb	r2, [r3, #5]
    1bac:	683b      	ldr	r3, [r7, #0]
    1bae:	4a10      	ldr	r2, [pc, #64]	; (1bf0 <LPSCI_ClearStatusFlags+0x8c>)
    1bb0:	4013      	ands	r3, r2
    1bb2:	603b      	str	r3, [r7, #0]
    1bb4:	683b      	ldr	r3, [r7, #0]
    1bb6:	221f      	movs	r2, #31
    1bb8:	4013      	ands	r3, r2
    1bba:	d00a      	beq.n	1bd2 <LPSCI_ClearStatusFlags+0x6e>
    1bbc:	683b      	ldr	r3, [r7, #0]
    1bbe:	b2db      	uxtb	r3, r3
    1bc0:	221f      	movs	r2, #31
    1bc2:	4013      	ands	r3, r2
    1bc4:	b2da      	uxtb	r2, r3
    1bc6:	687b      	ldr	r3, [r7, #4]
    1bc8:	711a      	strb	r2, [r3, #4]
    1bca:	683b      	ldr	r3, [r7, #0]
    1bcc:	221f      	movs	r2, #31
    1bce:	4393      	bics	r3, r2
    1bd0:	603b      	str	r3, [r7, #0]
    1bd2:	683b      	ldr	r3, [r7, #0]
    1bd4:	2b00      	cmp	r3, #0
    1bd6:	d002      	beq.n	1bde <LPSCI_ClearStatusFlags+0x7a>
    1bd8:	4b06      	ldr	r3, [pc, #24]	; (1bf4 <LPSCI_ClearStatusFlags+0x90>)
    1bda:	60fb      	str	r3, [r7, #12]
    1bdc:	e001      	b.n	1be2 <LPSCI_ClearStatusFlags+0x7e>
    1bde:	2300      	movs	r3, #0
    1be0:	60fb      	str	r3, [r7, #12]
    1be2:	68fb      	ldr	r3, [r7, #12]
    1be4:	0018      	movs	r0, r3
    1be6:	46bd      	mov	sp, r7
    1be8:	b004      	add	sp, #16
    1bea:	bd80      	pop	{r7, pc}
    1bec:	ffff7fff 	.word	0xffff7fff
    1bf0:	ffffbfff 	.word	0xffffbfff
    1bf4:	000004b4 	.word	0x000004b4

00001bf8 <LPSCI_WriteBlocking>:
    1bf8:	b580      	push	{r7, lr}
    1bfa:	b084      	sub	sp, #16
    1bfc:	af00      	add	r7, sp, #0
    1bfe:	60f8      	str	r0, [r7, #12]
    1c00:	60b9      	str	r1, [r7, #8]
    1c02:	607a      	str	r2, [r7, #4]
    1c04:	68bb      	ldr	r3, [r7, #8]
    1c06:	2b00      	cmp	r3, #0
    1c08:	d110      	bne.n	1c2c <LPSCI_WriteBlocking+0x34>
    1c0a:	4b0d      	ldr	r3, [pc, #52]	; (1c40 <LPSCI_WriteBlocking+0x48>)
    1c0c:	0018      	movs	r0, r3
    1c0e:	f000 fb5f 	bl	22d0 <__assertion_failed>
    1c12:	46c0      	nop			; (mov r8, r8)
    1c14:	68fb      	ldr	r3, [r7, #12]
    1c16:	791b      	ldrb	r3, [r3, #4]
    1c18:	b2db      	uxtb	r3, r3
    1c1a:	b25b      	sxtb	r3, r3
    1c1c:	2b00      	cmp	r3, #0
    1c1e:	daf9      	bge.n	1c14 <LPSCI_WriteBlocking+0x1c>
    1c20:	68bb      	ldr	r3, [r7, #8]
    1c22:	1c5a      	adds	r2, r3, #1
    1c24:	60ba      	str	r2, [r7, #8]
    1c26:	781a      	ldrb	r2, [r3, #0]
    1c28:	68fb      	ldr	r3, [r7, #12]
    1c2a:	71da      	strb	r2, [r3, #7]
    1c2c:	687b      	ldr	r3, [r7, #4]
    1c2e:	1e5a      	subs	r2, r3, #1
    1c30:	607a      	str	r2, [r7, #4]
    1c32:	2b00      	cmp	r3, #0
    1c34:	d1ed      	bne.n	1c12 <LPSCI_WriteBlocking+0x1a>
    1c36:	46c0      	nop			; (mov r8, r8)
    1c38:	46c0      	nop			; (mov r8, r8)
    1c3a:	46bd      	mov	sp, r7
    1c3c:	b004      	add	sp, #16
    1c3e:	bd80      	pop	{r7, pc}
    1c40:	00004f74 	.word	0x00004f74

00001c44 <LPSCI_ReadBlocking>:
    1c44:	b580      	push	{r7, lr}
    1c46:	b086      	sub	sp, #24
    1c48:	af00      	add	r7, sp, #0
    1c4a:	60f8      	str	r0, [r7, #12]
    1c4c:	60b9      	str	r1, [r7, #8]
    1c4e:	607a      	str	r2, [r7, #4]
    1c50:	68bb      	ldr	r3, [r7, #8]
    1c52:	2b00      	cmp	r3, #0
    1c54:	d144      	bne.n	1ce0 <LPSCI_ReadBlocking+0x9c>
    1c56:	4b27      	ldr	r3, [pc, #156]	; (1cf4 <LPSCI_ReadBlocking+0xb0>)
    1c58:	0018      	movs	r0, r3
    1c5a:	f000 fb39 	bl	22d0 <__assertion_failed>
    1c5e:	68fb      	ldr	r3, [r7, #12]
    1c60:	0018      	movs	r0, r3
    1c62:	f002 f9f0 	bl	4046 <LPSCI_GetStatusFlags>
    1c66:	0003      	movs	r3, r0
    1c68:	617b      	str	r3, [r7, #20]
    1c6a:	697b      	ldr	r3, [r7, #20]
    1c6c:	2208      	movs	r2, #8
    1c6e:	4013      	ands	r3, r2
    1c70:	d007      	beq.n	1c82 <LPSCI_ReadBlocking+0x3e>
    1c72:	68fb      	ldr	r3, [r7, #12]
    1c74:	2108      	movs	r1, #8
    1c76:	0018      	movs	r0, r3
    1c78:	f7ff ff74 	bl	1b64 <LPSCI_ClearStatusFlags>
    1c7c:	2397      	movs	r3, #151	; 0x97
    1c7e:	00db      	lsls	r3, r3, #3
    1c80:	e034      	b.n	1cec <LPSCI_ReadBlocking+0xa8>
    1c82:	697b      	ldr	r3, [r7, #20]
    1c84:	2204      	movs	r2, #4
    1c86:	4013      	ands	r3, r2
    1c88:	d006      	beq.n	1c98 <LPSCI_ReadBlocking+0x54>
    1c8a:	68fb      	ldr	r3, [r7, #12]
    1c8c:	2104      	movs	r1, #4
    1c8e:	0018      	movs	r0, r3
    1c90:	f7ff ff68 	bl	1b64 <LPSCI_ClearStatusFlags>
    1c94:	4b18      	ldr	r3, [pc, #96]	; (1cf8 <LPSCI_ReadBlocking+0xb4>)
    1c96:	e029      	b.n	1cec <LPSCI_ReadBlocking+0xa8>
    1c98:	697b      	ldr	r3, [r7, #20]
    1c9a:	2202      	movs	r2, #2
    1c9c:	4013      	ands	r3, r2
    1c9e:	d006      	beq.n	1cae <LPSCI_ReadBlocking+0x6a>
    1ca0:	68fb      	ldr	r3, [r7, #12]
    1ca2:	2102      	movs	r1, #2
    1ca4:	0018      	movs	r0, r3
    1ca6:	f7ff ff5d 	bl	1b64 <LPSCI_ClearStatusFlags>
    1caa:	4b14      	ldr	r3, [pc, #80]	; (1cfc <LPSCI_ReadBlocking+0xb8>)
    1cac:	e01e      	b.n	1cec <LPSCI_ReadBlocking+0xa8>
    1cae:	697b      	ldr	r3, [r7, #20]
    1cb0:	2201      	movs	r2, #1
    1cb2:	4013      	ands	r3, r2
    1cb4:	d006      	beq.n	1cc4 <LPSCI_ReadBlocking+0x80>
    1cb6:	68fb      	ldr	r3, [r7, #12]
    1cb8:	2101      	movs	r1, #1
    1cba:	0018      	movs	r0, r3
    1cbc:	f7ff ff52 	bl	1b64 <LPSCI_ClearStatusFlags>
    1cc0:	4b0f      	ldr	r3, [pc, #60]	; (1d00 <LPSCI_ReadBlocking+0xbc>)
    1cc2:	e013      	b.n	1cec <LPSCI_ReadBlocking+0xa8>
    1cc4:	68fb      	ldr	r3, [r7, #12]
    1cc6:	791b      	ldrb	r3, [r3, #4]
    1cc8:	b2db      	uxtb	r3, r3
    1cca:	001a      	movs	r2, r3
    1ccc:	2320      	movs	r3, #32
    1cce:	4013      	ands	r3, r2
    1cd0:	d0c5      	beq.n	1c5e <LPSCI_ReadBlocking+0x1a>
    1cd2:	68bb      	ldr	r3, [r7, #8]
    1cd4:	1c5a      	adds	r2, r3, #1
    1cd6:	60ba      	str	r2, [r7, #8]
    1cd8:	68fa      	ldr	r2, [r7, #12]
    1cda:	79d2      	ldrb	r2, [r2, #7]
    1cdc:	b2d2      	uxtb	r2, r2
    1cde:	701a      	strb	r2, [r3, #0]
    1ce0:	687b      	ldr	r3, [r7, #4]
    1ce2:	1e5a      	subs	r2, r3, #1
    1ce4:	607a      	str	r2, [r7, #4]
    1ce6:	2b00      	cmp	r3, #0
    1ce8:	d1ec      	bne.n	1cc4 <LPSCI_ReadBlocking+0x80>
    1cea:	2300      	movs	r3, #0
    1cec:	0018      	movs	r0, r3
    1cee:	46bd      	mov	sp, r7
    1cf0:	b006      	add	sp, #24
    1cf2:	bd80      	pop	{r7, pc}
    1cf4:	00004f8c 	.word	0x00004f8c
    1cf8:	000004b9 	.word	0x000004b9
    1cfc:	000004ba 	.word	0x000004ba
    1d00:	000004bb 	.word	0x000004bb

00001d04 <UART0_DriverIRQHandler>:
    1d04:	b580      	push	{r7, lr}
    1d06:	af00      	add	r7, sp, #0
    1d08:	4b04      	ldr	r3, [pc, #16]	; (1d1c <UART0_DriverIRQHandler+0x18>)
    1d0a:	681a      	ldr	r2, [r3, #0]
    1d0c:	4b04      	ldr	r3, [pc, #16]	; (1d20 <UART0_DriverIRQHandler+0x1c>)
    1d0e:	681b      	ldr	r3, [r3, #0]
    1d10:	4804      	ldr	r0, [pc, #16]	; (1d24 <UART0_DriverIRQHandler+0x20>)
    1d12:	0019      	movs	r1, r3
    1d14:	4790      	blx	r2
    1d16:	46c0      	nop			; (mov r8, r8)
    1d18:	46bd      	mov	sp, r7
    1d1a:	bd80      	pop	{r7, pc}
    1d1c:	1ffff8a8 	.word	0x1ffff8a8
    1d20:	1ffff8a4 	.word	0x1ffff8a4
    1d24:	4006a000 	.word	0x4006a000

00001d28 <CLOCK_EnableClock>:
    1d28:	b580      	push	{r7, lr}
    1d2a:	b084      	sub	sp, #16
    1d2c:	af00      	add	r7, sp, #0
    1d2e:	6078      	str	r0, [r7, #4]
    1d30:	687b      	ldr	r3, [r7, #4]
    1d32:	0c1b      	lsrs	r3, r3, #16
    1d34:	4a08      	ldr	r2, [pc, #32]	; (1d58 <CLOCK_EnableClock+0x30>)
    1d36:	4694      	mov	ip, r2
    1d38:	4463      	add	r3, ip
    1d3a:	60fb      	str	r3, [r7, #12]
    1d3c:	68fb      	ldr	r3, [r7, #12]
    1d3e:	6819      	ldr	r1, [r3, #0]
    1d40:	687b      	ldr	r3, [r7, #4]
    1d42:	041b      	lsls	r3, r3, #16
    1d44:	0c1b      	lsrs	r3, r3, #16
    1d46:	2201      	movs	r2, #1
    1d48:	409a      	lsls	r2, r3
    1d4a:	68fb      	ldr	r3, [r7, #12]
    1d4c:	430a      	orrs	r2, r1
    1d4e:	601a      	str	r2, [r3, #0]
    1d50:	46c0      	nop			; (mov r8, r8)
    1d52:	46bd      	mov	sp, r7
    1d54:	b004      	add	sp, #16
    1d56:	bd80      	pop	{r7, pc}
    1d58:	40047000 	.word	0x40047000

00001d5c <UART_GetInstance>:
    1d5c:	b580      	push	{r7, lr}
    1d5e:	b084      	sub	sp, #16
    1d60:	af00      	add	r7, sp, #0
    1d62:	6078      	str	r0, [r7, #4]
    1d64:	2303      	movs	r3, #3
    1d66:	60bb      	str	r3, [r7, #8]
    1d68:	2300      	movs	r3, #0
    1d6a:	60fb      	str	r3, [r7, #12]
    1d6c:	e009      	b.n	1d82 <UART_GetInstance+0x26>
    1d6e:	4b0e      	ldr	r3, [pc, #56]	; (1da8 <UART_GetInstance+0x4c>)
    1d70:	68fa      	ldr	r2, [r7, #12]
    1d72:	0092      	lsls	r2, r2, #2
    1d74:	58d3      	ldr	r3, [r2, r3]
    1d76:	687a      	ldr	r2, [r7, #4]
    1d78:	429a      	cmp	r2, r3
    1d7a:	d007      	beq.n	1d8c <UART_GetInstance+0x30>
    1d7c:	68fb      	ldr	r3, [r7, #12]
    1d7e:	3301      	adds	r3, #1
    1d80:	60fb      	str	r3, [r7, #12]
    1d82:	68fa      	ldr	r2, [r7, #12]
    1d84:	68bb      	ldr	r3, [r7, #8]
    1d86:	429a      	cmp	r2, r3
    1d88:	d3f1      	bcc.n	1d6e <UART_GetInstance+0x12>
    1d8a:	e000      	b.n	1d8e <UART_GetInstance+0x32>
    1d8c:	46c0      	nop			; (mov r8, r8)
    1d8e:	68fa      	ldr	r2, [r7, #12]
    1d90:	68bb      	ldr	r3, [r7, #8]
    1d92:	429a      	cmp	r2, r3
    1d94:	d303      	bcc.n	1d9e <UART_GetInstance+0x42>
    1d96:	4b05      	ldr	r3, [pc, #20]	; (1dac <UART_GetInstance+0x50>)
    1d98:	0018      	movs	r0, r3
    1d9a:	f000 fa99 	bl	22d0 <__assertion_failed>
    1d9e:	68fb      	ldr	r3, [r7, #12]
    1da0:	0018      	movs	r0, r3
    1da2:	46bd      	mov	sp, r7
    1da4:	b004      	add	sp, #16
    1da6:	bd80      	pop	{r7, pc}
    1da8:	00004fa4 	.word	0x00004fa4
    1dac:	00004fbc 	.word	0x00004fbc

00001db0 <UART_Init>:
    1db0:	b5b0      	push	{r4, r5, r7, lr}
    1db2:	b086      	sub	sp, #24
    1db4:	af00      	add	r7, sp, #0
    1db6:	60f8      	str	r0, [r7, #12]
    1db8:	60b9      	str	r1, [r7, #8]
    1dba:	607a      	str	r2, [r7, #4]
    1dbc:	68bb      	ldr	r3, [r7, #8]
    1dbe:	2b00      	cmp	r3, #0
    1dc0:	d103      	bne.n	1dca <UART_Init+0x1a>
    1dc2:	4b6f      	ldr	r3, [pc, #444]	; (1f80 <UART_Init+0x1d0>)
    1dc4:	0018      	movs	r0, r3
    1dc6:	f000 fa83 	bl	22d0 <__assertion_failed>
    1dca:	68bb      	ldr	r3, [r7, #8]
    1dcc:	681b      	ldr	r3, [r3, #0]
    1dce:	2b00      	cmp	r3, #0
    1dd0:	d103      	bne.n	1dda <UART_Init+0x2a>
    1dd2:	4b6c      	ldr	r3, [pc, #432]	; (1f84 <UART_Init+0x1d4>)
    1dd4:	0018      	movs	r0, r3
    1dd6:	f000 fa7b 	bl	22d0 <__assertion_failed>
    1dda:	2416      	movs	r4, #22
    1ddc:	193b      	adds	r3, r7, r4
    1dde:	2200      	movs	r2, #0
    1de0:	801a      	strh	r2, [r3, #0]
    1de2:	2315      	movs	r3, #21
    1de4:	18fb      	adds	r3, r7, r3
    1de6:	2200      	movs	r2, #0
    1de8:	701a      	strb	r2, [r3, #0]
    1dea:	2300      	movs	r3, #0
    1dec:	613b      	str	r3, [r7, #16]
    1dee:	68bb      	ldr	r3, [r7, #8]
    1df0:	681b      	ldr	r3, [r3, #0]
    1df2:	011b      	lsls	r3, r3, #4
    1df4:	0019      	movs	r1, r3
    1df6:	6878      	ldr	r0, [r7, #4]
    1df8:	f002 f9c5 	bl	4186 <__aeabi_uidiv>
    1dfc:	0003      	movs	r3, r0
    1dfe:	001a      	movs	r2, r3
    1e00:	193b      	adds	r3, r7, r4
    1e02:	801a      	strh	r2, [r3, #0]
    1e04:	193b      	adds	r3, r7, r4
    1e06:	881b      	ldrh	r3, [r3, #0]
    1e08:	2b00      	cmp	r3, #0
    1e0a:	d102      	bne.n	1e12 <UART_Init+0x62>
    1e0c:	193b      	adds	r3, r7, r4
    1e0e:	2201      	movs	r2, #1
    1e10:	801a      	strh	r2, [r3, #0]
    1e12:	2516      	movs	r5, #22
    1e14:	197b      	adds	r3, r7, r5
    1e16:	881b      	ldrh	r3, [r3, #0]
    1e18:	011b      	lsls	r3, r3, #4
    1e1a:	0019      	movs	r1, r3
    1e1c:	6878      	ldr	r0, [r7, #4]
    1e1e:	f002 f9b2 	bl	4186 <__aeabi_uidiv>
    1e22:	0003      	movs	r3, r0
    1e24:	001a      	movs	r2, r3
    1e26:	68bb      	ldr	r3, [r7, #8]
    1e28:	681b      	ldr	r3, [r3, #0]
    1e2a:	1ad3      	subs	r3, r2, r3
    1e2c:	613b      	str	r3, [r7, #16]
    1e2e:	68bb      	ldr	r3, [r7, #8]
    1e30:	681c      	ldr	r4, [r3, #0]
    1e32:	197b      	adds	r3, r7, r5
    1e34:	881b      	ldrh	r3, [r3, #0]
    1e36:	3301      	adds	r3, #1
    1e38:	011b      	lsls	r3, r3, #4
    1e3a:	0019      	movs	r1, r3
    1e3c:	6878      	ldr	r0, [r7, #4]
    1e3e:	f002 f9a2 	bl	4186 <__aeabi_uidiv>
    1e42:	0003      	movs	r3, r0
    1e44:	1ae3      	subs	r3, r4, r3
    1e46:	693a      	ldr	r2, [r7, #16]
    1e48:	429a      	cmp	r2, r3
    1e4a:	d911      	bls.n	1e70 <UART_Init+0xc0>
    1e4c:	68bb      	ldr	r3, [r7, #8]
    1e4e:	681c      	ldr	r4, [r3, #0]
    1e50:	197b      	adds	r3, r7, r5
    1e52:	881b      	ldrh	r3, [r3, #0]
    1e54:	3301      	adds	r3, #1
    1e56:	011b      	lsls	r3, r3, #4
    1e58:	0019      	movs	r1, r3
    1e5a:	6878      	ldr	r0, [r7, #4]
    1e5c:	f002 f993 	bl	4186 <__aeabi_uidiv>
    1e60:	0003      	movs	r3, r0
    1e62:	1ae3      	subs	r3, r4, r3
    1e64:	613b      	str	r3, [r7, #16]
    1e66:	197b      	adds	r3, r7, r5
    1e68:	881a      	ldrh	r2, [r3, #0]
    1e6a:	197b      	adds	r3, r7, r5
    1e6c:	3201      	adds	r2, #1
    1e6e:	801a      	strh	r2, [r3, #0]
    1e70:	68bb      	ldr	r3, [r7, #8]
    1e72:	681b      	ldr	r3, [r3, #0]
    1e74:	2164      	movs	r1, #100	; 0x64
    1e76:	0018      	movs	r0, r3
    1e78:	f002 f985 	bl	4186 <__aeabi_uidiv>
    1e7c:	0003      	movs	r3, r0
    1e7e:	001a      	movs	r2, r3
    1e80:	0013      	movs	r3, r2
    1e82:	005b      	lsls	r3, r3, #1
    1e84:	189b      	adds	r3, r3, r2
    1e86:	693a      	ldr	r2, [r7, #16]
    1e88:	429a      	cmp	r2, r3
    1e8a:	d901      	bls.n	1e90 <UART_Init+0xe0>
    1e8c:	4b3e      	ldr	r3, [pc, #248]	; (1f88 <UART_Init+0x1d8>)
    1e8e:	e072      	b.n	1f76 <UART_Init+0x1c6>
    1e90:	68fb      	ldr	r3, [r7, #12]
    1e92:	0018      	movs	r0, r3
    1e94:	f7ff ff62 	bl	1d5c <UART_GetInstance>
    1e98:	0002      	movs	r2, r0
    1e9a:	4b3c      	ldr	r3, [pc, #240]	; (1f8c <UART_Init+0x1dc>)
    1e9c:	0092      	lsls	r2, r2, #2
    1e9e:	58d3      	ldr	r3, [r2, r3]
    1ea0:	0018      	movs	r0, r3
    1ea2:	f7ff ff41 	bl	1d28 <CLOCK_EnableClock>
    1ea6:	68fb      	ldr	r3, [r7, #12]
    1ea8:	78db      	ldrb	r3, [r3, #3]
    1eaa:	b2db      	uxtb	r3, r3
    1eac:	220c      	movs	r2, #12
    1eae:	4393      	bics	r3, r2
    1eb0:	b2da      	uxtb	r2, r3
    1eb2:	68fb      	ldr	r3, [r7, #12]
    1eb4:	70da      	strb	r2, [r3, #3]
    1eb6:	68fb      	ldr	r3, [r7, #12]
    1eb8:	781b      	ldrb	r3, [r3, #0]
    1eba:	b2db      	uxtb	r3, r3
    1ebc:	221f      	movs	r2, #31
    1ebe:	4393      	bics	r3, r2
    1ec0:	b2da      	uxtb	r2, r3
    1ec2:	2116      	movs	r1, #22
    1ec4:	187b      	adds	r3, r7, r1
    1ec6:	881b      	ldrh	r3, [r3, #0]
    1ec8:	0a1b      	lsrs	r3, r3, #8
    1eca:	b29b      	uxth	r3, r3
    1ecc:	b2db      	uxtb	r3, r3
    1ece:	4313      	orrs	r3, r2
    1ed0:	b2da      	uxtb	r2, r3
    1ed2:	68fb      	ldr	r3, [r7, #12]
    1ed4:	701a      	strb	r2, [r3, #0]
    1ed6:	187b      	adds	r3, r7, r1
    1ed8:	881b      	ldrh	r3, [r3, #0]
    1eda:	b2da      	uxtb	r2, r3
    1edc:	68fb      	ldr	r3, [r7, #12]
    1ede:	705a      	strb	r2, [r3, #1]
    1ee0:	68fb      	ldr	r3, [r7, #12]
    1ee2:	789b      	ldrb	r3, [r3, #2]
    1ee4:	b2da      	uxtb	r2, r3
    1ee6:	2015      	movs	r0, #21
    1ee8:	183b      	adds	r3, r7, r0
    1eea:	2113      	movs	r1, #19
    1eec:	438a      	bics	r2, r1
    1eee:	701a      	strb	r2, [r3, #0]
    1ef0:	68bb      	ldr	r3, [r7, #8]
    1ef2:	791b      	ldrb	r3, [r3, #4]
    1ef4:	2b00      	cmp	r3, #0
    1ef6:	d009      	beq.n	1f0c <UART_Init+0x15c>
    1ef8:	68bb      	ldr	r3, [r7, #8]
    1efa:	791a      	ldrb	r2, [r3, #4]
    1efc:	183b      	adds	r3, r7, r0
    1efe:	781b      	ldrb	r3, [r3, #0]
    1f00:	4313      	orrs	r3, r2
    1f02:	b2da      	uxtb	r2, r3
    1f04:	183b      	adds	r3, r7, r0
    1f06:	2110      	movs	r1, #16
    1f08:	430a      	orrs	r2, r1
    1f0a:	701a      	strb	r2, [r3, #0]
    1f0c:	68fb      	ldr	r3, [r7, #12]
    1f0e:	2015      	movs	r0, #21
    1f10:	183a      	adds	r2, r7, r0
    1f12:	7812      	ldrb	r2, [r2, #0]
    1f14:	709a      	strb	r2, [r3, #2]
    1f16:	68fb      	ldr	r3, [r7, #12]
    1f18:	781b      	ldrb	r3, [r3, #0]
    1f1a:	b2db      	uxtb	r3, r3
    1f1c:	2220      	movs	r2, #32
    1f1e:	4393      	bics	r3, r2
    1f20:	b2da      	uxtb	r2, r3
    1f22:	68bb      	ldr	r3, [r7, #8]
    1f24:	795b      	ldrb	r3, [r3, #5]
    1f26:	015b      	lsls	r3, r3, #5
    1f28:	b2db      	uxtb	r3, r3
    1f2a:	2120      	movs	r1, #32
    1f2c:	400b      	ands	r3, r1
    1f2e:	b2db      	uxtb	r3, r3
    1f30:	4313      	orrs	r3, r2
    1f32:	b2da      	uxtb	r2, r3
    1f34:	68fb      	ldr	r3, [r7, #12]
    1f36:	701a      	strb	r2, [r3, #0]
    1f38:	183b      	adds	r3, r7, r0
    1f3a:	68fa      	ldr	r2, [r7, #12]
    1f3c:	78d2      	ldrb	r2, [r2, #3]
    1f3e:	701a      	strb	r2, [r3, #0]
    1f40:	68bb      	ldr	r3, [r7, #8]
    1f42:	799b      	ldrb	r3, [r3, #6]
    1f44:	2b00      	cmp	r3, #0
    1f46:	d005      	beq.n	1f54 <UART_Init+0x1a4>
    1f48:	183b      	adds	r3, r7, r0
    1f4a:	183a      	adds	r2, r7, r0
    1f4c:	7812      	ldrb	r2, [r2, #0]
    1f4e:	2108      	movs	r1, #8
    1f50:	430a      	orrs	r2, r1
    1f52:	701a      	strb	r2, [r3, #0]
    1f54:	68bb      	ldr	r3, [r7, #8]
    1f56:	79db      	ldrb	r3, [r3, #7]
    1f58:	2b00      	cmp	r3, #0
    1f5a:	d006      	beq.n	1f6a <UART_Init+0x1ba>
    1f5c:	2215      	movs	r2, #21
    1f5e:	18bb      	adds	r3, r7, r2
    1f60:	18ba      	adds	r2, r7, r2
    1f62:	7812      	ldrb	r2, [r2, #0]
    1f64:	2104      	movs	r1, #4
    1f66:	430a      	orrs	r2, r1
    1f68:	701a      	strb	r2, [r3, #0]
    1f6a:	68fb      	ldr	r3, [r7, #12]
    1f6c:	2215      	movs	r2, #21
    1f6e:	18ba      	adds	r2, r7, r2
    1f70:	7812      	ldrb	r2, [r2, #0]
    1f72:	70da      	strb	r2, [r3, #3]
    1f74:	2300      	movs	r3, #0
    1f76:	0018      	movs	r0, r3
    1f78:	46bd      	mov	sp, r7
    1f7a:	b006      	add	sp, #24
    1f7c:	bdb0      	pop	{r4, r5, r7, pc}
    1f7e:	46c0      	nop			; (mov r8, r8)
    1f80:	00004fe8 	.word	0x00004fe8
    1f84:	00005000 	.word	0x00005000
    1f88:	000003f5 	.word	0x000003f5
    1f8c:	00004fb0 	.word	0x00004fb0

00001f90 <UART_GetDefaultConfig>:
    1f90:	b580      	push	{r7, lr}
    1f92:	b082      	sub	sp, #8
    1f94:	af00      	add	r7, sp, #0
    1f96:	6078      	str	r0, [r7, #4]
    1f98:	687b      	ldr	r3, [r7, #4]
    1f9a:	2b00      	cmp	r3, #0
    1f9c:	d103      	bne.n	1fa6 <UART_GetDefaultConfig+0x16>
    1f9e:	4b0c      	ldr	r3, [pc, #48]	; (1fd0 <UART_GetDefaultConfig+0x40>)
    1fa0:	0018      	movs	r0, r3
    1fa2:	f000 f995 	bl	22d0 <__assertion_failed>
    1fa6:	687b      	ldr	r3, [r7, #4]
    1fa8:	22e1      	movs	r2, #225	; 0xe1
    1faa:	0252      	lsls	r2, r2, #9
    1fac:	601a      	str	r2, [r3, #0]
    1fae:	687b      	ldr	r3, [r7, #4]
    1fb0:	2200      	movs	r2, #0
    1fb2:	711a      	strb	r2, [r3, #4]
    1fb4:	687b      	ldr	r3, [r7, #4]
    1fb6:	2200      	movs	r2, #0
    1fb8:	715a      	strb	r2, [r3, #5]
    1fba:	687b      	ldr	r3, [r7, #4]
    1fbc:	2200      	movs	r2, #0
    1fbe:	719a      	strb	r2, [r3, #6]
    1fc0:	687b      	ldr	r3, [r7, #4]
    1fc2:	2200      	movs	r2, #0
    1fc4:	71da      	strb	r2, [r3, #7]
    1fc6:	46c0      	nop			; (mov r8, r8)
    1fc8:	46bd      	mov	sp, r7
    1fca:	b002      	add	sp, #8
    1fcc:	bd80      	pop	{r7, pc}
    1fce:	46c0      	nop			; (mov r8, r8)
    1fd0:	00005028 	.word	0x00005028

00001fd4 <UART_ReadBlocking>:
    1fd4:	b580      	push	{r7, lr}
    1fd6:	b086      	sub	sp, #24
    1fd8:	af00      	add	r7, sp, #0
    1fda:	60f8      	str	r0, [r7, #12]
    1fdc:	60b9      	str	r1, [r7, #8]
    1fde:	607a      	str	r2, [r7, #4]
    1fe0:	68bb      	ldr	r3, [r7, #8]
    1fe2:	2b00      	cmp	r3, #0
    1fe4:	d130      	bne.n	2048 <_StackSize+0x48>
    1fe6:	4b1d      	ldr	r3, [pc, #116]	; (205c <_StackSize+0x5c>)
    1fe8:	0018      	movs	r0, r3
    1fea:	f000 f971 	bl	22d0 <__assertion_failed>
    1fee:	68fb      	ldr	r3, [r7, #12]
    1ff0:	0018      	movs	r0, r3
    1ff2:	f002 f83b 	bl	406c <UART_GetStatusFlags>
    1ff6:	0003      	movs	r3, r0
    1ff8:	617b      	str	r3, [r7, #20]
    1ffa:	697b      	ldr	r3, [r7, #20]
    1ffc:	2208      	movs	r2, #8
    1ffe:	4013      	ands	r3, r2
    2000:	d001      	beq.n	2006 <_StackSize+0x6>
    2002:	4b17      	ldr	r3, [pc, #92]	; (2060 <_StackSize+0x60>)
    2004:	e026      	b.n	2054 <_StackSize+0x54>
    2006:	697b      	ldr	r3, [r7, #20]
    2008:	2204      	movs	r2, #4
    200a:	4013      	ands	r3, r2
    200c:	d001      	beq.n	2012 <_StackSize+0x12>
    200e:	4b15      	ldr	r3, [pc, #84]	; (2064 <_StackSize+0x64>)
    2010:	e020      	b.n	2054 <_StackSize+0x54>
    2012:	697b      	ldr	r3, [r7, #20]
    2014:	2202      	movs	r2, #2
    2016:	4013      	ands	r3, r2
    2018:	d001      	beq.n	201e <_StackSize+0x1e>
    201a:	4b13      	ldr	r3, [pc, #76]	; (2068 <_StackSize+0x68>)
    201c:	e01a      	b.n	2054 <_StackSize+0x54>
    201e:	697b      	ldr	r3, [r7, #20]
    2020:	2201      	movs	r2, #1
    2022:	4013      	ands	r3, r2
    2024:	d002      	beq.n	202c <_StackSize+0x2c>
    2026:	23fd      	movs	r3, #253	; 0xfd
    2028:	009b      	lsls	r3, r3, #2
    202a:	e013      	b.n	2054 <_StackSize+0x54>
    202c:	68fb      	ldr	r3, [r7, #12]
    202e:	791b      	ldrb	r3, [r3, #4]
    2030:	b2db      	uxtb	r3, r3
    2032:	001a      	movs	r2, r3
    2034:	2320      	movs	r3, #32
    2036:	4013      	ands	r3, r2
    2038:	d0d9      	beq.n	1fee <UART_ReadBlocking+0x1a>
    203a:	68bb      	ldr	r3, [r7, #8]
    203c:	1c5a      	adds	r2, r3, #1
    203e:	60ba      	str	r2, [r7, #8]
    2040:	68fa      	ldr	r2, [r7, #12]
    2042:	79d2      	ldrb	r2, [r2, #7]
    2044:	b2d2      	uxtb	r2, r2
    2046:	701a      	strb	r2, [r3, #0]
    2048:	687b      	ldr	r3, [r7, #4]
    204a:	1e5a      	subs	r2, r3, #1
    204c:	607a      	str	r2, [r7, #4]
    204e:	2b00      	cmp	r3, #0
    2050:	d1ec      	bne.n	202c <_StackSize+0x2c>
    2052:	2300      	movs	r3, #0
    2054:	0018      	movs	r0, r3
    2056:	46bd      	mov	sp, r7
    2058:	b006      	add	sp, #24
    205a:	bd80      	pop	{r7, pc}
    205c:	00005040 	.word	0x00005040
    2060:	000003f1 	.word	0x000003f1
    2064:	000003f2 	.word	0x000003f2
    2068:	000003f3 	.word	0x000003f3

0000206c <UART1_DriverIRQHandler>:
    206c:	b580      	push	{r7, lr}
    206e:	af00      	add	r7, sp, #0
    2070:	4b04      	ldr	r3, [pc, #16]	; (2084 <UART1_DriverIRQHandler+0x18>)
    2072:	681a      	ldr	r2, [r3, #0]
    2074:	4b04      	ldr	r3, [pc, #16]	; (2088 <UART1_DriverIRQHandler+0x1c>)
    2076:	685b      	ldr	r3, [r3, #4]
    2078:	4804      	ldr	r0, [pc, #16]	; (208c <UART1_DriverIRQHandler+0x20>)
    207a:	0019      	movs	r1, r3
    207c:	4790      	blx	r2
    207e:	46c0      	nop			; (mov r8, r8)
    2080:	46bd      	mov	sp, r7
    2082:	bd80      	pop	{r7, pc}
    2084:	1ffff8b8 	.word	0x1ffff8b8
    2088:	1ffff8ac 	.word	0x1ffff8ac
    208c:	4006b000 	.word	0x4006b000

00002090 <UART2_DriverIRQHandler>:
    2090:	b580      	push	{r7, lr}
    2092:	af00      	add	r7, sp, #0
    2094:	4b04      	ldr	r3, [pc, #16]	; (20a8 <UART2_DriverIRQHandler+0x18>)
    2096:	681a      	ldr	r2, [r3, #0]
    2098:	4b04      	ldr	r3, [pc, #16]	; (20ac <UART2_DriverIRQHandler+0x1c>)
    209a:	689b      	ldr	r3, [r3, #8]
    209c:	4804      	ldr	r0, [pc, #16]	; (20b0 <UART2_DriverIRQHandler+0x20>)
    209e:	0019      	movs	r1, r3
    20a0:	4790      	blx	r2
    20a2:	46c0      	nop			; (mov r8, r8)
    20a4:	46bd      	mov	sp, r7
    20a6:	bd80      	pop	{r7, pc}
    20a8:	1ffff8b8 	.word	0x1ffff8b8
    20ac:	1ffff8ac 	.word	0x1ffff8ac
    20b0:	4006c000 	.word	0x4006c000

000020b4 <CLOCK_SetLpsci0Clock>:
    20b4:	b580      	push	{r7, lr}
    20b6:	b082      	sub	sp, #8
    20b8:	af00      	add	r7, sp, #0
    20ba:	6078      	str	r0, [r7, #4]
    20bc:	4a08      	ldr	r2, [pc, #32]	; (20e0 <CLOCK_SetLpsci0Clock+0x2c>)
    20be:	4b09      	ldr	r3, [pc, #36]	; (20e4 <CLOCK_SetLpsci0Clock+0x30>)
    20c0:	58d3      	ldr	r3, [r2, r3]
    20c2:	4a09      	ldr	r2, [pc, #36]	; (20e8 <CLOCK_SetLpsci0Clock+0x34>)
    20c4:	401a      	ands	r2, r3
    20c6:	687b      	ldr	r3, [r7, #4]
    20c8:	0699      	lsls	r1, r3, #26
    20ca:	23c0      	movs	r3, #192	; 0xc0
    20cc:	051b      	lsls	r3, r3, #20
    20ce:	400b      	ands	r3, r1
    20d0:	4903      	ldr	r1, [pc, #12]	; (20e0 <CLOCK_SetLpsci0Clock+0x2c>)
    20d2:	4313      	orrs	r3, r2
    20d4:	4a03      	ldr	r2, [pc, #12]	; (20e4 <CLOCK_SetLpsci0Clock+0x30>)
    20d6:	508b      	str	r3, [r1, r2]
    20d8:	46c0      	nop			; (mov r8, r8)
    20da:	46bd      	mov	sp, r7
    20dc:	b002      	add	sp, #8
    20de:	bd80      	pop	{r7, pc}
    20e0:	40047000 	.word	0x40047000
    20e4:	00001004 	.word	0x00001004
    20e8:	f3ffffff 	.word	0xf3ffffff

000020ec <BOARD_InitDebugConsole>:
    20ec:	b580      	push	{r7, lr}
    20ee:	b082      	sub	sp, #8
    20f0:	af00      	add	r7, sp, #0
    20f2:	2001      	movs	r0, #1
    20f4:	f7ff ffde 	bl	20b4 <CLOCK_SetLpsci0Clock>
    20f8:	f7ff f936 	bl	1368 <CLOCK_GetPllFllSelClkFreq>
    20fc:	0003      	movs	r3, r0
    20fe:	607b      	str	r3, [r7, #4]
    2100:	687b      	ldr	r3, [r7, #4]
    2102:	22e1      	movs	r2, #225	; 0xe1
    2104:	0251      	lsls	r1, r2, #9
    2106:	4804      	ldr	r0, [pc, #16]	; (2118 <BOARD_InitDebugConsole+0x2c>)
    2108:	2203      	movs	r2, #3
    210a:	f7fe f981 	bl	410 <DbgConsole_Init>
    210e:	46c0      	nop			; (mov r8, r8)
    2110:	46bd      	mov	sp, r7
    2112:	b002      	add	sp, #8
    2114:	bd80      	pop	{r7, pc}
    2116:	46c0      	nop			; (mov r8, r8)
    2118:	4006a000 	.word	0x4006a000

0000211c <CLOCK_SetSimSafeDivs>:
    211c:	b580      	push	{r7, lr}
    211e:	af00      	add	r7, sp, #0
    2120:	4a03      	ldr	r2, [pc, #12]	; (2130 <CLOCK_SetSimSafeDivs+0x14>)
    2122:	4b04      	ldr	r3, [pc, #16]	; (2134 <CLOCK_SetSimSafeDivs+0x18>)
    2124:	4904      	ldr	r1, [pc, #16]	; (2138 <CLOCK_SetSimSafeDivs+0x1c>)
    2126:	50d1      	str	r1, [r2, r3]
    2128:	46c0      	nop			; (mov r8, r8)
    212a:	46bd      	mov	sp, r7
    212c:	bd80      	pop	{r7, pc}
    212e:	46c0      	nop			; (mov r8, r8)
    2130:	40047000 	.word	0x40047000
    2134:	00001044 	.word	0x00001044
    2138:	10030000 	.word	0x10030000

0000213c <CLOCK_SetXtal0Freq>:
    213c:	b580      	push	{r7, lr}
    213e:	b082      	sub	sp, #8
    2140:	af00      	add	r7, sp, #0
    2142:	6078      	str	r0, [r7, #4]
    2144:	4b03      	ldr	r3, [pc, #12]	; (2154 <CLOCK_SetXtal0Freq+0x18>)
    2146:	687a      	ldr	r2, [r7, #4]
    2148:	601a      	str	r2, [r3, #0]
    214a:	46c0      	nop			; (mov r8, r8)
    214c:	46bd      	mov	sp, r7
    214e:	b002      	add	sp, #8
    2150:	bd80      	pop	{r7, pc}
    2152:	46c0      	nop			; (mov r8, r8)
    2154:	1ffff8a0 	.word	0x1ffff8a0

00002158 <CLOCK_CONFIG_SetFllExtRefDiv>:
    2158:	b580      	push	{r7, lr}
    215a:	b082      	sub	sp, #8
    215c:	af00      	add	r7, sp, #0
    215e:	0002      	movs	r2, r0
    2160:	1dfb      	adds	r3, r7, #7
    2162:	701a      	strb	r2, [r3, #0]
    2164:	4b0a      	ldr	r3, [pc, #40]	; (2190 <CLOCK_CONFIG_SetFllExtRefDiv+0x38>)
    2166:	781b      	ldrb	r3, [r3, #0]
    2168:	b2db      	uxtb	r3, r3
    216a:	2238      	movs	r2, #56	; 0x38
    216c:	4393      	bics	r3, r2
    216e:	b2da      	uxtb	r2, r3
    2170:	1dfb      	adds	r3, r7, #7
    2172:	781b      	ldrb	r3, [r3, #0]
    2174:	00db      	lsls	r3, r3, #3
    2176:	b2db      	uxtb	r3, r3
    2178:	2138      	movs	r1, #56	; 0x38
    217a:	400b      	ands	r3, r1
    217c:	b2db      	uxtb	r3, r3
    217e:	4904      	ldr	r1, [pc, #16]	; (2190 <CLOCK_CONFIG_SetFllExtRefDiv+0x38>)
    2180:	4313      	orrs	r3, r2
    2182:	b2db      	uxtb	r3, r3
    2184:	700b      	strb	r3, [r1, #0]
    2186:	46c0      	nop			; (mov r8, r8)
    2188:	46bd      	mov	sp, r7
    218a:	b002      	add	sp, #8
    218c:	bd80      	pop	{r7, pc}
    218e:	46c0      	nop			; (mov r8, r8)
    2190:	40064000 	.word	0x40064000

00002194 <BOARD_BootClockRUN>:
    2194:	b580      	push	{r7, lr}
    2196:	af00      	add	r7, sp, #0
    2198:	f7ff ffc0 	bl	211c <CLOCK_SetSimSafeDivs>
    219c:	4b10      	ldr	r3, [pc, #64]	; (21e0 <BOARD_BootClockRUN+0x4c>)
    219e:	0018      	movs	r0, r3
    21a0:	f7ff fa7a 	bl	1698 <CLOCK_InitOsc0>
    21a4:	4b0f      	ldr	r3, [pc, #60]	; (21e4 <BOARD_BootClockRUN+0x50>)
    21a6:	0018      	movs	r0, r3
    21a8:	f7ff ffc8 	bl	213c <CLOCK_SetXtal0Freq>
    21ac:	2300      	movs	r3, #0
    21ae:	0018      	movs	r0, r3
    21b0:	f7ff ffd2 	bl	2158 <CLOCK_CONFIG_SetFllExtRefDiv>
    21b4:	4b0c      	ldr	r3, [pc, #48]	; (21e8 <BOARD_BootClockRUN+0x54>)
    21b6:	001a      	movs	r2, r3
    21b8:	2100      	movs	r1, #0
    21ba:	2000      	movs	r0, #0
    21bc:	f7ff fb0e 	bl	17dc <CLOCK_BootToPeeMode>
    21c0:	2302      	movs	r3, #2
    21c2:	2100      	movs	r1, #0
    21c4:	2200      	movs	r2, #0
    21c6:	0018      	movs	r0, r3
    21c8:	f7ff f98a 	bl	14e0 <CLOCK_SetInternalRefClkConfig>
    21cc:	4b07      	ldr	r3, [pc, #28]	; (21ec <BOARD_BootClockRUN+0x58>)
    21ce:	0018      	movs	r0, r3
    21d0:	f7ff f8f0 	bl	13b4 <CLOCK_SetSimConfig>
    21d4:	4b06      	ldr	r3, [pc, #24]	; (21f0 <BOARD_BootClockRUN+0x5c>)
    21d6:	4a07      	ldr	r2, [pc, #28]	; (21f4 <BOARD_BootClockRUN+0x60>)
    21d8:	601a      	str	r2, [r3, #0]
    21da:	46c0      	nop			; (mov r8, r8)
    21dc:	46bd      	mov	sp, r7
    21de:	bd80      	pop	{r7, pc}
    21e0:	0000506c 	.word	0x0000506c
    21e4:	007a1200 	.word	0x007a1200
    21e8:	0000505f 	.word	0x0000505f
    21ec:	00005064 	.word	0x00005064
    21f0:	1ffff084 	.word	0x1ffff084
    21f4:	02dc6c00 	.word	0x02dc6c00

000021f8 <CLOCK_EnableClock>:
    21f8:	b580      	push	{r7, lr}
    21fa:	b084      	sub	sp, #16
    21fc:	af00      	add	r7, sp, #0
    21fe:	6078      	str	r0, [r7, #4]
    2200:	687b      	ldr	r3, [r7, #4]
    2202:	0c1b      	lsrs	r3, r3, #16
    2204:	4a08      	ldr	r2, [pc, #32]	; (2228 <CLOCK_EnableClock+0x30>)
    2206:	4694      	mov	ip, r2
    2208:	4463      	add	r3, ip
    220a:	60fb      	str	r3, [r7, #12]
    220c:	68fb      	ldr	r3, [r7, #12]
    220e:	6819      	ldr	r1, [r3, #0]
    2210:	687b      	ldr	r3, [r7, #4]
    2212:	041b      	lsls	r3, r3, #16
    2214:	0c1b      	lsrs	r3, r3, #16
    2216:	2201      	movs	r2, #1
    2218:	409a      	lsls	r2, r3
    221a:	68fb      	ldr	r3, [r7, #12]
    221c:	430a      	orrs	r2, r1
    221e:	601a      	str	r2, [r3, #0]
    2220:	46c0      	nop			; (mov r8, r8)
    2222:	46bd      	mov	sp, r7
    2224:	b004      	add	sp, #16
    2226:	bd80      	pop	{r7, pc}
    2228:	40047000 	.word	0x40047000

0000222c <PORT_SetPinMux>:
    222c:	b580      	push	{r7, lr}
    222e:	b084      	sub	sp, #16
    2230:	af00      	add	r7, sp, #0
    2232:	60f8      	str	r0, [r7, #12]
    2234:	60b9      	str	r1, [r7, #8]
    2236:	1dfb      	adds	r3, r7, #7
    2238:	701a      	strb	r2, [r3, #0]
    223a:	68fb      	ldr	r3, [r7, #12]
    223c:	68ba      	ldr	r2, [r7, #8]
    223e:	0092      	lsls	r2, r2, #2
    2240:	58d3      	ldr	r3, [r2, r3]
    2242:	4a09      	ldr	r2, [pc, #36]	; (2268 <PORT_SetPinMux+0x3c>)
    2244:	401a      	ands	r2, r3
    2246:	1dfb      	adds	r3, r7, #7
    2248:	781b      	ldrb	r3, [r3, #0]
    224a:	0219      	lsls	r1, r3, #8
    224c:	23e0      	movs	r3, #224	; 0xe0
    224e:	00db      	lsls	r3, r3, #3
    2250:	400b      	ands	r3, r1
    2252:	431a      	orrs	r2, r3
    2254:	0011      	movs	r1, r2
    2256:	68fb      	ldr	r3, [r7, #12]
    2258:	68ba      	ldr	r2, [r7, #8]
    225a:	0092      	lsls	r2, r2, #2
    225c:	50d1      	str	r1, [r2, r3]
    225e:	46c0      	nop			; (mov r8, r8)
    2260:	46bd      	mov	sp, r7
    2262:	b004      	add	sp, #16
    2264:	bd80      	pop	{r7, pc}
    2266:	46c0      	nop			; (mov r8, r8)
    2268:	fffff8ff 	.word	0xfffff8ff

0000226c <BOARD_InitPins>:
    226c:	b580      	push	{r7, lr}
    226e:	af00      	add	r7, sp, #0
    2270:	4b0d      	ldr	r3, [pc, #52]	; (22a8 <BOARD_InitPins+0x3c>)
    2272:	0018      	movs	r0, r3
    2274:	f7ff ffc0 	bl	21f8 <CLOCK_EnableClock>
    2278:	4b0c      	ldr	r3, [pc, #48]	; (22ac <BOARD_InitPins+0x40>)
    227a:	2202      	movs	r2, #2
    227c:	2101      	movs	r1, #1
    227e:	0018      	movs	r0, r3
    2280:	f7ff ffd4 	bl	222c <PORT_SetPinMux>
    2284:	4b09      	ldr	r3, [pc, #36]	; (22ac <BOARD_InitPins+0x40>)
    2286:	2202      	movs	r2, #2
    2288:	2102      	movs	r1, #2
    228a:	0018      	movs	r0, r3
    228c:	f7ff ffce 	bl	222c <PORT_SetPinMux>
    2290:	4a07      	ldr	r2, [pc, #28]	; (22b0 <BOARD_InitPins+0x44>)
    2292:	4b08      	ldr	r3, [pc, #32]	; (22b4 <BOARD_InitPins+0x48>)
    2294:	58d3      	ldr	r3, [r2, r3]
    2296:	4906      	ldr	r1, [pc, #24]	; (22b0 <BOARD_InitPins+0x44>)
    2298:	2207      	movs	r2, #7
    229a:	4393      	bics	r3, r2
    229c:	4a05      	ldr	r2, [pc, #20]	; (22b4 <BOARD_InitPins+0x48>)
    229e:	508b      	str	r3, [r1, r2]
    22a0:	46c0      	nop			; (mov r8, r8)
    22a2:	46bd      	mov	sp, r7
    22a4:	bd80      	pop	{r7, pc}
    22a6:	46c0      	nop			; (mov r8, r8)
    22a8:	10380009 	.word	0x10380009
    22ac:	40049000 	.word	0x40049000
    22b0:	40047000 	.word	0x40047000
    22b4:	00001010 	.word	0x00001010

000022b8 <SystemInit>:
    22b8:	b580      	push	{r7, lr}
    22ba:	af00      	add	r7, sp, #0
    22bc:	4a03      	ldr	r2, [pc, #12]	; (22cc <SystemInit+0x14>)
    22be:	2388      	movs	r3, #136	; 0x88
    22c0:	015b      	lsls	r3, r3, #5
    22c2:	2100      	movs	r1, #0
    22c4:	50d1      	str	r1, [r2, r3]
    22c6:	46c0      	nop			; (mov r8, r8)
    22c8:	46bd      	mov	sp, r7
    22ca:	bd80      	pop	{r7, pc}
    22cc:	40047000 	.word	0x40047000

000022d0 <__assertion_failed>:
    22d0:	b570      	push	{r4, r5, r6, lr}
    22d2:	0005      	movs	r5, r0
    22d4:	4c0e      	ldr	r4, [pc, #56]	; (2310 <__assertion_failed+0x40>)
    22d6:	480f      	ldr	r0, [pc, #60]	; (2314 <__assertion_failed+0x44>)
    22d8:	0021      	movs	r1, r4
    22da:	f001 ff2f 	bl	413c <fputs>
    22de:	0021      	movs	r1, r4
    22e0:	0028      	movs	r0, r5
    22e2:	f001 ff2b 	bl	413c <fputs>
    22e6:	4a0c      	ldr	r2, [pc, #48]	; (2318 <__assertion_failed+0x48>)
    22e8:	1d11      	adds	r1, r2, #4
    22ea:	6fcb      	ldr	r3, [r1, #124]	; 0x7c
    22ec:	3b01      	subs	r3, #1
    22ee:	67cb      	str	r3, [r1, #124]	; 0x7c
    22f0:	2b00      	cmp	r3, #0
    22f2:	db07      	blt.n	2304 <__assertion_failed+0x34>
    22f4:	6f93      	ldr	r3, [r2, #120]	; 0x78
    22f6:	1c59      	adds	r1, r3, #1
    22f8:	6791      	str	r1, [r2, #120]	; 0x78
    22fa:	220a      	movs	r2, #10
    22fc:	701a      	strb	r2, [r3, #0]
    22fe:	f000 f80d 	bl	231c <__exit>
    2302:	bd70      	pop	{r4, r5, r6, pc}
    2304:	0021      	movs	r1, r4
    2306:	200a      	movs	r0, #10
    2308:	f000 f82e 	bl	2368 <__flsbuf>
    230c:	e7f7      	b.n	22fe <__assertion_failed+0x2e>
    230e:	46c0      	nop			; (mov r8, r8)
    2310:	1ffff934 	.word	0x1ffff934
    2314:	00005078 	.word	0x00005078
    2318:	1ffff8bc 	.word	0x1ffff8bc

0000231c <__exit>:
    231c:	2018      	movs	r0, #24
    231e:	4901      	ldr	r1, [pc, #4]	; (2324 <__exit+0x8>)
    2320:	beab      	bkpt	0x00ab
    2322:	4770      	bx	lr
    2324:	00020026 	.word	0x00020026

00002328 <_deferredlazyseek>:
    2328:	2320      	movs	r3, #32
    232a:	68c2      	ldr	r2, [r0, #12]
    232c:	b510      	push	{r4, lr}
    232e:	439a      	bics	r2, r3
    2330:	60c2      	str	r2, [r0, #12]
    2332:	6983      	ldr	r3, [r0, #24]
    2334:	6a82      	ldr	r2, [r0, #40]	; 0x28
    2336:	0004      	movs	r4, r0
    2338:	4293      	cmp	r3, r2
    233a:	d00c      	beq.n	2356 <_deferredlazyseek+0x2e>
    233c:	f000 f8bc 	bl	24b8 <_fflush>
    2340:	68e3      	ldr	r3, [r4, #12]
    2342:	4a07      	ldr	r2, [pc, #28]	; (2360 <_deferredlazyseek+0x38>)
    2344:	401a      	ands	r2, r3
    2346:	2310      	movs	r3, #16
    2348:	4313      	orrs	r3, r2
    234a:	60e3      	str	r3, [r4, #12]
    234c:	6aa3      	ldr	r3, [r4, #40]	; 0x28
    234e:	61a3      	str	r3, [r4, #24]
    2350:	6923      	ldr	r3, [r4, #16]
    2352:	62e3      	str	r3, [r4, #44]	; 0x2c
    2354:	6023      	str	r3, [r4, #0]
    2356:	68e2      	ldr	r2, [r4, #12]
    2358:	4b02      	ldr	r3, [pc, #8]	; (2364 <_deferredlazyseek+0x3c>)
    235a:	4013      	ands	r3, r2
    235c:	60e3      	str	r3, [r4, #12]
    235e:	bd10      	pop	{r4, pc}
    2360:	ffffcfef 	.word	0xffffcfef
    2364:	ffffbfbf 	.word	0xffffbfbf

00002368 <__flsbuf>:
    2368:	b5f8      	push	{r3, r4, r5, r6, r7, lr}
    236a:	68ca      	ldr	r2, [r1, #12]
    236c:	4b4f      	ldr	r3, [pc, #316]	; (24ac <__flsbuf+0x144>)
    236e:	0005      	movs	r5, r0
    2370:	4013      	ands	r3, r2
    2372:	000c      	movs	r4, r1
    2374:	60cb      	str	r3, [r1, #12]
    2376:	0693      	lsls	r3, r2, #26
    2378:	d502      	bpl.n	2380 <__flsbuf+0x18>
    237a:	0008      	movs	r0, r1
    237c:	f7ff ffd4 	bl	2328 <_deferredlazyseek>
    2380:	68a2      	ldr	r2, [r4, #8]
    2382:	68e6      	ldr	r6, [r4, #12]
    2384:	1c53      	adds	r3, r2, #1
    2386:	da0f      	bge.n	23a8 <__flsbuf+0x40>
    2388:	05b3      	lsls	r3, r6, #22
    238a:	d40d      	bmi.n	23a8 <__flsbuf+0x40>
    238c:	2302      	movs	r3, #2
    238e:	425b      	negs	r3, r3
    2390:	1a9b      	subs	r3, r3, r2
    2392:	60a3      	str	r3, [r4, #8]
    2394:	2390      	movs	r3, #144	; 0x90
    2396:	025b      	lsls	r3, r3, #9
    2398:	431e      	orrs	r6, r3
    239a:	6823      	ldr	r3, [r4, #0]
    239c:	60e6      	str	r6, [r4, #12]
    239e:	1c5a      	adds	r2, r3, #1
    23a0:	6022      	str	r2, [r4, #0]
    23a2:	701d      	strb	r5, [r3, #0]
    23a4:	b2e8      	uxtb	r0, r5
    23a6:	e00a      	b.n	23be <__flsbuf+0x56>
    23a8:	4a41      	ldr	r2, [pc, #260]	; (24b0 <__flsbuf+0x148>)
    23aa:	4032      	ands	r2, r6
    23ac:	2a02      	cmp	r2, #2
    23ae:	d007      	beq.n	23c0 <__flsbuf+0x58>
    23b0:	2300      	movs	r3, #0
    23b2:	60a3      	str	r3, [r4, #8]
    23b4:	3380      	adds	r3, #128	; 0x80
    23b6:	431e      	orrs	r6, r3
    23b8:	60e6      	str	r6, [r4, #12]
    23ba:	2001      	movs	r0, #1
    23bc:	4240      	negs	r0, r0
    23be:	bdf8      	pop	{r3, r4, r5, r6, r7, pc}
    23c0:	2180      	movs	r1, #128	; 0x80
    23c2:	4b3c      	ldr	r3, [pc, #240]	; (24b4 <__flsbuf+0x14c>)
    23c4:	0209      	lsls	r1, r1, #8
    23c6:	4033      	ands	r3, r6
    23c8:	428b      	cmp	r3, r1
    23ca:	d10a      	bne.n	23e2 <__flsbuf+0x7a>
    23cc:	2100      	movs	r1, #0
    23ce:	0020      	movs	r0, r4
    23d0:	f000 f94c 	bl	266c <fseek>
    23d4:	68e3      	ldr	r3, [r4, #12]
    23d6:	069b      	lsls	r3, r3, #26
    23d8:	d502      	bpl.n	23e0 <__flsbuf+0x78>
    23da:	0020      	movs	r0, r4
    23dc:	f7ff ffa4 	bl	2328 <_deferredlazyseek>
    23e0:	68e6      	ldr	r6, [r4, #12]
    23e2:	2390      	movs	r3, #144	; 0x90
    23e4:	22f0      	movs	r2, #240	; 0xf0
    23e6:	025b      	lsls	r3, r3, #9
    23e8:	4333      	orrs	r3, r6
    23ea:	0112      	lsls	r2, r2, #4
    23ec:	60e3      	str	r3, [r4, #12]
    23ee:	4216      	tst	r6, r2
    23f0:	d110      	bne.n	2414 <__flsbuf+0xac>
    23f2:	6960      	ldr	r0, [r4, #20]
    23f4:	f001 ff57 	bl	42a6 <__sys_istty>
    23f8:	2800      	cmp	r0, #0
    23fa:	d021      	beq.n	2440 <__flsbuf+0xd8>
    23fc:	0573      	lsls	r3, r6, #21
    23fe:	d51f      	bpl.n	2440 <__flsbuf+0xd8>
    2400:	0023      	movs	r3, r4
    2402:	3324      	adds	r3, #36	; 0x24
    2404:	6123      	str	r3, [r4, #16]
    2406:	6023      	str	r3, [r4, #0]
    2408:	2301      	movs	r3, #1
    240a:	61e3      	str	r3, [r4, #28]
    240c:	2392      	movs	r3, #146	; 0x92
    240e:	025b      	lsls	r3, r3, #9
    2410:	4333      	orrs	r3, r6
    2412:	60e3      	str	r3, [r4, #12]
    2414:	2190      	movs	r1, #144	; 0x90
    2416:	0109      	lsls	r1, r1, #4
    2418:	6822      	ldr	r2, [r4, #0]
    241a:	6926      	ldr	r6, [r4, #16]
    241c:	420b      	tst	r3, r1
    241e:	d025      	beq.n	246c <__flsbuf+0x104>
    2420:	6ae3      	ldr	r3, [r4, #44]	; 0x2c
    2422:	429a      	cmp	r2, r3
    2424:	d900      	bls.n	2428 <__flsbuf+0xc0>
    2426:	0013      	movs	r3, r2
    2428:	1b99      	subs	r1, r3, r6
    242a:	42b3      	cmp	r3, r6
    242c:	d117      	bne.n	245e <__flsbuf+0xf6>
    242e:	1c73      	adds	r3, r6, #1
    2430:	62e3      	str	r3, [r4, #44]	; 0x2c
    2432:	6023      	str	r3, [r4, #0]
    2434:	69e3      	ldr	r3, [r4, #28]
    2436:	1e5a      	subs	r2, r3, #1
    2438:	60a2      	str	r2, [r4, #8]
    243a:	6323      	str	r3, [r4, #48]	; 0x30
    243c:	7035      	strb	r5, [r6, #0]
    243e:	e7b1      	b.n	23a4 <__flsbuf+0x3c>
    2440:	2780      	movs	r7, #128	; 0x80
    2442:	007f      	lsls	r7, r7, #1
    2444:	0038      	movs	r0, r7
    2446:	f000 f901 	bl	264c <_Csys_alloc>
    244a:	2394      	movs	r3, #148	; 0x94
    244c:	68e2      	ldr	r2, [r4, #12]
    244e:	025b      	lsls	r3, r3, #9
    2450:	4333      	orrs	r3, r6
    2452:	431a      	orrs	r2, r3
    2454:	6120      	str	r0, [r4, #16]
    2456:	6020      	str	r0, [r4, #0]
    2458:	61e7      	str	r7, [r4, #28]
    245a:	60e2      	str	r2, [r4, #12]
    245c:	e7da      	b.n	2414 <__flsbuf+0xac>
    245e:	0022      	movs	r2, r4
    2460:	0030      	movs	r0, r6
    2462:	f000 f859 	bl	2518 <_Cwritebuf>
    2466:	2800      	cmp	r0, #0
    2468:	d0e1      	beq.n	242e <__flsbuf+0xc6>
    246a:	e7a6      	b.n	23ba <__flsbuf+0x52>
    246c:	1c51      	adds	r1, r2, #1
    246e:	b2e8      	uxtb	r0, r5
    2470:	6021      	str	r1, [r4, #0]
    2472:	7010      	strb	r0, [r2, #0]
    2474:	6ae2      	ldr	r2, [r4, #44]	; 0x2c
    2476:	6821      	ldr	r1, [r4, #0]
    2478:	428a      	cmp	r2, r1
    247a:	d900      	bls.n	247e <__flsbuf+0x116>
    247c:	0011      	movs	r1, r2
    247e:	69e2      	ldr	r2, [r4, #28]
    2480:	1b89      	subs	r1, r1, r6
    2482:	6322      	str	r2, [r4, #48]	; 0x30
    2484:	055b      	lsls	r3, r3, #21
    2486:	d404      	bmi.n	2492 <__flsbuf+0x12a>
    2488:	280a      	cmp	r0, #10
    248a:	d002      	beq.n	2492 <__flsbuf+0x12a>
    248c:	428a      	cmp	r2, r1
    248e:	dd00      	ble.n	2492 <__flsbuf+0x12a>
    2490:	e788      	b.n	23a4 <__flsbuf+0x3c>
    2492:	2300      	movs	r3, #0
    2494:	0022      	movs	r2, r4
    2496:	0030      	movs	r0, r6
    2498:	62e6      	str	r6, [r4, #44]	; 0x2c
    249a:	6026      	str	r6, [r4, #0]
    249c:	60a3      	str	r3, [r4, #8]
    249e:	f000 f83b 	bl	2518 <_Cwritebuf>
    24a2:	2800      	cmp	r0, #0
    24a4:	d000      	beq.n	24a8 <__flsbuf+0x140>
    24a6:	e788      	b.n	23ba <__flsbuf+0x52>
    24a8:	e77c      	b.n	23a4 <__flsbuf+0x3c>
    24aa:	46c0      	nop			; (mov r8, r8)
    24ac:	fff7ffff 	.word	0xfff7ffff
    24b0:	0000108a 	.word	0x0000108a
    24b4:	0000a010 	.word	0x0000a010

000024b8 <_fflush>:
    24b8:	68c3      	ldr	r3, [r0, #12]
    24ba:	4a15      	ldr	r2, [pc, #84]	; (2510 <_fflush+0x58>)
    24bc:	b570      	push	{r4, r5, r6, lr}
    24be:	401a      	ands	r2, r3
    24c0:	60c2      	str	r2, [r0, #12]
    24c2:	2282      	movs	r2, #130	; 0x82
    24c4:	0004      	movs	r4, r0
    24c6:	6905      	ldr	r5, [r0, #16]
    24c8:	6801      	ldr	r1, [r0, #0]
    24ca:	6ac6      	ldr	r6, [r0, #44]	; 0x2c
    24cc:	401a      	ands	r2, r3
    24ce:	2a02      	cmp	r2, #2
    24d0:	d002      	beq.n	24d8 <_fflush+0x20>
    24d2:	2001      	movs	r0, #1
    24d4:	4240      	negs	r0, r0
    24d6:	bd70      	pop	{r4, r5, r6, pc}
    24d8:	2280      	movs	r2, #128	; 0x80
    24da:	0018      	movs	r0, r3
    24dc:	0252      	lsls	r2, r2, #9
    24de:	4010      	ands	r0, r2
    24e0:	4213      	tst	r3, r2
    24e2:	d0f8      	beq.n	24d6 <_fflush+0x1e>
    24e4:	42b1      	cmp	r1, r6
    24e6:	d200      	bcs.n	24ea <_fflush+0x32>
    24e8:	0031      	movs	r1, r6
    24ea:	428d      	cmp	r5, r1
    24ec:	d108      	bne.n	2500 <_fflush+0x48>
    24ee:	2000      	movs	r0, #0
    24f0:	68e2      	ldr	r2, [r4, #12]
    24f2:	4b08      	ldr	r3, [pc, #32]	; (2514 <_fflush+0x5c>)
    24f4:	62e5      	str	r5, [r4, #44]	; 0x2c
    24f6:	4013      	ands	r3, r2
    24f8:	6025      	str	r5, [r4, #0]
    24fa:	60a0      	str	r0, [r4, #8]
    24fc:	60e3      	str	r3, [r4, #12]
    24fe:	e7ea      	b.n	24d6 <_fflush+0x1e>
    2500:	0022      	movs	r2, r4
    2502:	0028      	movs	r0, r5
    2504:	1b49      	subs	r1, r1, r5
    2506:	f000 f807 	bl	2518 <_Cwritebuf>
    250a:	2800      	cmp	r0, #0
    250c:	d0ef      	beq.n	24ee <_fflush+0x36>
    250e:	e7e0      	b.n	24d2 <_fflush+0x1a>
    2510:	fff7ffff 	.word	0xfff7ffff
    2514:	fffeffff 	.word	0xfffeffff

00002518 <_Cwritebuf>:
    2518:	b5f7      	push	{r0, r1, r2, r4, r5, r6, r7, lr}
    251a:	68d5      	ldr	r5, [r2, #12]
    251c:	000f      	movs	r7, r1
    251e:	0014      	movs	r4, r2
    2520:	6956      	ldr	r6, [r2, #20]
    2522:	9001      	str	r0, [sp, #4]
    2524:	02eb      	lsls	r3, r5, #11
    2526:	d505      	bpl.n	2534 <_Cwritebuf+0x1c>
    2528:	2310      	movs	r3, #16
    252a:	0030      	movs	r0, r6
    252c:	431d      	orrs	r5, r3
    252e:	f001 feb4 	bl	429a <__sys_flen>
    2532:	61a0      	str	r0, [r4, #24]
    2534:	4b10      	ldr	r3, [pc, #64]	; (2578 <_Cwritebuf+0x60>)
    2536:	421d      	tst	r5, r3
    2538:	d00f      	beq.n	255a <_Cwritebuf+0x42>
    253a:	0030      	movs	r0, r6
    253c:	69a1      	ldr	r1, [r4, #24]
    253e:	f001 febe 	bl	42be <__sys_seek>
    2542:	2800      	cmp	r0, #0
    2544:	da06      	bge.n	2554 <_Cwritebuf+0x3c>
    2546:	2380      	movs	r3, #128	; 0x80
    2548:	2001      	movs	r0, #1
    254a:	68e2      	ldr	r2, [r4, #12]
    254c:	4240      	negs	r0, r0
    254e:	4313      	orrs	r3, r2
    2550:	60e3      	str	r3, [r4, #12]
    2552:	e00f      	b.n	2574 <_Cwritebuf+0x5c>
    2554:	4b09      	ldr	r3, [pc, #36]	; (257c <_Cwritebuf+0x64>)
    2556:	401d      	ands	r5, r3
    2558:	60e5      	str	r5, [r4, #12]
    255a:	9901      	ldr	r1, [sp, #4]
    255c:	003a      	movs	r2, r7
    255e:	0030      	movs	r0, r6
    2560:	f7fd ffd0 	bl	504 <__sys_write>
    2564:	0041      	lsls	r1, r0, #1
    2566:	69a3      	ldr	r3, [r4, #24]
    2568:	0849      	lsrs	r1, r1, #1
    256a:	1a79      	subs	r1, r7, r1
    256c:	1859      	adds	r1, r3, r1
    256e:	61a1      	str	r1, [r4, #24]
    2570:	2800      	cmp	r0, #0
    2572:	d1e8      	bne.n	2546 <_Cwritebuf+0x2e>
    2574:	bdfe      	pop	{r1, r2, r3, r4, r5, r6, r7, pc}
    2576:	46c0      	nop			; (mov r8, r8)
    2578:	00020010 	.word	0x00020010
    257c:	fffdffef 	.word	0xfffdffef

00002580 <malloc>:
    2580:	b5f7      	push	{r0, r1, r2, r4, r5, r6, r7, lr}
    2582:	2700      	movs	r7, #0
    2584:	4b30      	ldr	r3, [pc, #192]	; (2648 <malloc+0xc8>)
    2586:	1cc2      	adds	r2, r0, #3
    2588:	681c      	ldr	r4, [r3, #0]
    258a:	0895      	lsrs	r5, r2, #2
    258c:	42b8      	cmp	r0, r7
    258e:	d017      	beq.n	25c0 <malloc+0x40>
    2590:	002b      	movs	r3, r5
    2592:	330a      	adds	r3, #10
    2594:	2180      	movs	r1, #128	; 0x80
    2596:	9301      	str	r3, [sp, #4]
    2598:	1ceb      	adds	r3, r5, #3
    259a:	469c      	mov	ip, r3
    259c:	0549      	lsls	r1, r1, #21
    259e:	2c00      	cmp	r4, #0
    25a0:	d110      	bne.n	25c4 <malloc+0x44>
    25a2:	300c      	adds	r0, #12
    25a4:	f001 f8cc 	bl	3740 <_sbrk>
    25a8:	1c43      	adds	r3, r0, #1
    25aa:	d009      	beq.n	25c0 <malloc+0x40>
    25ac:	2380      	movs	r3, #128	; 0x80
    25ae:	059b      	lsls	r3, r3, #22
    25b0:	6003      	str	r3, [r0, #0]
    25b2:	6045      	str	r5, [r0, #4]
    25b4:	6084      	str	r4, [r0, #8]
    25b6:	2f00      	cmp	r7, #0
    25b8:	d144      	bne.n	2644 <malloc+0xc4>
    25ba:	4b23      	ldr	r3, [pc, #140]	; (2648 <malloc+0xc8>)
    25bc:	6018      	str	r0, [r3, #0]
    25be:	e01a      	b.n	25f6 <malloc+0x76>
    25c0:	2000      	movs	r0, #0
    25c2:	bdfe      	pop	{r1, r2, r3, r4, r5, r6, r7, pc}
    25c4:	6823      	ldr	r3, [r4, #0]
    25c6:	428b      	cmp	r3, r1
    25c8:	d139      	bne.n	263e <malloc+0xbe>
    25ca:	68a7      	ldr	r7, [r4, #8]
    25cc:	6863      	ldr	r3, [r4, #4]
    25ce:	2f00      	cmp	r7, #0
    25d0:	d009      	beq.n	25e6 <malloc+0x66>
    25d2:	683e      	ldr	r6, [r7, #0]
    25d4:	428e      	cmp	r6, r1
    25d6:	d106      	bne.n	25e6 <malloc+0x66>
    25d8:	687e      	ldr	r6, [r7, #4]
    25da:	3303      	adds	r3, #3
    25dc:	18f3      	adds	r3, r6, r3
    25de:	6063      	str	r3, [r4, #4]
    25e0:	68bb      	ldr	r3, [r7, #8]
    25e2:	60a3      	str	r3, [r4, #8]
    25e4:	e7f1      	b.n	25ca <malloc+0x4a>
    25e6:	42ab      	cmp	r3, r5
    25e8:	db07      	blt.n	25fa <malloc+0x7a>
    25ea:	4563      	cmp	r3, ip
    25ec:	dc05      	bgt.n	25fa <malloc+0x7a>
    25ee:	2380      	movs	r3, #128	; 0x80
    25f0:	059b      	lsls	r3, r3, #22
    25f2:	6023      	str	r3, [r4, #0]
    25f4:	0020      	movs	r0, r4
    25f6:	300c      	adds	r0, #12
    25f8:	e7e3      	b.n	25c2 <malloc+0x42>
    25fa:	9e01      	ldr	r6, [sp, #4]
    25fc:	42b3      	cmp	r3, r6
    25fe:	d911      	bls.n	2624 <malloc+0xa4>
    2600:	2180      	movs	r1, #128	; 0x80
    2602:	0589      	lsls	r1, r1, #22
    2604:	6021      	str	r1, [r4, #0]
    2606:	2103      	movs	r1, #3
    2608:	0020      	movs	r0, r4
    260a:	438a      	bics	r2, r1
    260c:	2180      	movs	r1, #128	; 0x80
    260e:	300c      	adds	r0, #12
    2610:	1b5b      	subs	r3, r3, r5
    2612:	1882      	adds	r2, r0, r2
    2614:	0549      	lsls	r1, r1, #21
    2616:	3b03      	subs	r3, #3
    2618:	6065      	str	r5, [r4, #4]
    261a:	60a2      	str	r2, [r4, #8]
    261c:	6011      	str	r1, [r2, #0]
    261e:	6053      	str	r3, [r2, #4]
    2620:	6097      	str	r7, [r2, #8]
    2622:	e7ce      	b.n	25c2 <malloc+0x42>
    2624:	2f00      	cmp	r7, #0
    2626:	d10a      	bne.n	263e <malloc+0xbe>
    2628:	009b      	lsls	r3, r3, #2
    262a:	1ac0      	subs	r0, r0, r3
    262c:	f001 f888 	bl	3740 <_sbrk>
    2630:	1c43      	adds	r3, r0, #1
    2632:	d0c5      	beq.n	25c0 <malloc+0x40>
    2634:	2380      	movs	r3, #128	; 0x80
    2636:	059b      	lsls	r3, r3, #22
    2638:	6023      	str	r3, [r4, #0]
    263a:	6065      	str	r5, [r4, #4]
    263c:	e7da      	b.n	25f4 <malloc+0x74>
    263e:	0027      	movs	r7, r4
    2640:	68a4      	ldr	r4, [r4, #8]
    2642:	e7ac      	b.n	259e <malloc+0x1e>
    2644:	60b8      	str	r0, [r7, #8]
    2646:	e7d6      	b.n	25f6 <malloc+0x76>
    2648:	1ffff9fc 	.word	0x1ffff9fc

0000264c <_Csys_alloc>:
    264c:	b510      	push	{r4, lr}
    264e:	f7ff ff97 	bl	2580 <malloc>
    2652:	1e04      	subs	r4, r0, #0
    2654:	d105      	bne.n	2662 <_Csys_alloc+0x16>
    2656:	2217      	movs	r2, #23
    2658:	4903      	ldr	r1, [pc, #12]	; (2668 <_Csys_alloc+0x1c>)
    265a:	f7fd ff53 	bl	504 <__sys_write>
    265e:	f7ff fe5d 	bl	231c <__exit>
    2662:	0020      	movs	r0, r4
    2664:	bd10      	pop	{r4, pc}
    2666:	46c0      	nop			; (mov r8, r8)
    2668:	0000508d 	.word	0x0000508d

0000266c <fseek>:
    266c:	b5f7      	push	{r0, r1, r2, r4, r5, r6, r7, lr}
    266e:	4b39      	ldr	r3, [pc, #228]	; (2754 <fseek+0xe8>)
    2670:	68c6      	ldr	r6, [r0, #12]
    2672:	0004      	movs	r4, r0
    2674:	000d      	movs	r5, r1
    2676:	9200      	str	r2, [sp, #0]
    2678:	421e      	tst	r6, r3
    267a:	d102      	bne.n	2682 <fseek+0x16>
    267c:	2702      	movs	r7, #2
    267e:	0038      	movs	r0, r7
    2680:	bdfe      	pop	{r1, r2, r3, r4, r5, r6, r7, pc}
    2682:	6943      	ldr	r3, [r0, #20]
    2684:	0018      	movs	r0, r3
    2686:	9301      	str	r3, [sp, #4]
    2688:	f001 fe0d 	bl	42a6 <__sys_istty>
    268c:	1e07      	subs	r7, r0, #0
    268e:	d1f5      	bne.n	267c <fseek+0x10>
    2690:	9b00      	ldr	r3, [sp, #0]
    2692:	2b01      	cmp	r3, #1
    2694:	d005      	beq.n	26a2 <fseek+0x36>
    2696:	2b02      	cmp	r3, #2
    2698:	d02c      	beq.n	26f4 <fseek+0x88>
    269a:	2b00      	cmp	r3, #0
    269c:	d005      	beq.n	26aa <fseek+0x3e>
    269e:	3702      	adds	r7, #2
    26a0:	e7ed      	b.n	267e <fseek+0x12>
    26a2:	0020      	movs	r0, r4
    26a4:	f000 f85a 	bl	275c <ftell>
    26a8:	182d      	adds	r5, r5, r0
    26aa:	2d00      	cmp	r5, #0
    26ac:	dbe6      	blt.n	267c <fseek+0x10>
    26ae:	04b3      	lsls	r3, r6, #18
    26b0:	d504      	bpl.n	26bc <fseek+0x50>
    26b2:	6823      	ldr	r3, [r4, #0]
    26b4:	6ae2      	ldr	r2, [r4, #44]	; 0x2c
    26b6:	429a      	cmp	r2, r3
    26b8:	d200      	bcs.n	26bc <fseek+0x50>
    26ba:	62e3      	str	r3, [r4, #44]	; 0x2c
    26bc:	69a1      	ldr	r1, [r4, #24]
    26be:	42a9      	cmp	r1, r5
    26c0:	dc0e      	bgt.n	26e0 <fseek+0x74>
    26c2:	6ae2      	ldr	r2, [r4, #44]	; 0x2c
    26c4:	6823      	ldr	r3, [r4, #0]
    26c6:	4293      	cmp	r3, r2
    26c8:	d200      	bcs.n	26cc <fseek+0x60>
    26ca:	0013      	movs	r3, r2
    26cc:	6922      	ldr	r2, [r4, #16]
    26ce:	1858      	adds	r0, r3, r1
    26d0:	9200      	str	r2, [sp, #0]
    26d2:	1a80      	subs	r0, r0, r2
    26d4:	42a8      	cmp	r0, r5
    26d6:	db03      	blt.n	26e0 <fseek+0x74>
    26d8:	6b20      	ldr	r0, [r4, #48]	; 0x30
    26da:	180a      	adds	r2, r1, r0
    26dc:	42aa      	cmp	r2, r5
    26de:	dc28      	bgt.n	2732 <fseek+0xc6>
    26e0:	2320      	movs	r3, #32
    26e2:	431e      	orrs	r6, r3
    26e4:	2300      	movs	r3, #0
    26e6:	62a5      	str	r5, [r4, #40]	; 0x28
    26e8:	60a3      	str	r3, [r4, #8]
    26ea:	6063      	str	r3, [r4, #4]
    26ec:	4b1a      	ldr	r3, [pc, #104]	; (2758 <fseek+0xec>)
    26ee:	401e      	ands	r6, r3
    26f0:	60e6      	str	r6, [r4, #12]
    26f2:	e7c4      	b.n	267e <fseek+0x12>
    26f4:	9801      	ldr	r0, [sp, #4]
    26f6:	f001 fdd0 	bl	429a <__sys_flen>
    26fa:	68e2      	ldr	r2, [r4, #12]
    26fc:	2800      	cmp	r0, #0
    26fe:	da04      	bge.n	270a <fseek+0x9e>
    2700:	2380      	movs	r3, #128	; 0x80
    2702:	4313      	orrs	r3, r2
    2704:	2701      	movs	r7, #1
    2706:	60e3      	str	r3, [r4, #12]
    2708:	e7b9      	b.n	267e <fseek+0x12>
    270a:	6ae1      	ldr	r1, [r4, #44]	; 0x2c
    270c:	6823      	ldr	r3, [r4, #0]
    270e:	4299      	cmp	r1, r3
    2710:	d900      	bls.n	2714 <fseek+0xa8>
    2712:	000b      	movs	r3, r1
    2714:	69a1      	ldr	r1, [r4, #24]
    2716:	185b      	adds	r3, r3, r1
    2718:	6921      	ldr	r1, [r4, #16]
    271a:	1a5b      	subs	r3, r3, r1
    271c:	0692      	lsls	r2, r2, #26
    271e:	d503      	bpl.n	2728 <fseek+0xbc>
    2720:	6aa2      	ldr	r2, [r4, #40]	; 0x28
    2722:	4293      	cmp	r3, r2
    2724:	da00      	bge.n	2728 <fseek+0xbc>
    2726:	0013      	movs	r3, r2
    2728:	4283      	cmp	r3, r0
    272a:	da00      	bge.n	272e <fseek+0xc2>
    272c:	0003      	movs	r3, r0
    272e:	18ed      	adds	r5, r5, r3
    2730:	e7bb      	b.n	26aa <fseek+0x3e>
    2732:	1a6d      	subs	r5, r5, r1
    2734:	07b2      	lsls	r2, r6, #30
    2736:	d501      	bpl.n	273c <fseek+0xd0>
    2738:	1a28      	subs	r0, r5, r0
    273a:	60a0      	str	r0, [r4, #8]
    273c:	07f2      	lsls	r2, r6, #31
    273e:	d503      	bpl.n	2748 <fseek+0xdc>
    2740:	9a00      	ldr	r2, [sp, #0]
    2742:	1a9b      	subs	r3, r3, r2
    2744:	1aeb      	subs	r3, r5, r3
    2746:	6063      	str	r3, [r4, #4]
    2748:	9b00      	ldr	r3, [sp, #0]
    274a:	195d      	adds	r5, r3, r5
    274c:	2320      	movs	r3, #32
    274e:	6025      	str	r5, [r4, #0]
    2750:	439e      	bics	r6, r3
    2752:	e7cb      	b.n	26ec <fseek+0x80>
    2754:	00100003 	.word	0x00100003
    2758:	fff7cfbf 	.word	0xfff7cfbf

0000275c <ftell>:
    275c:	68c2      	ldr	r2, [r0, #12]
    275e:	0793      	lsls	r3, r2, #30
    2760:	d105      	bne.n	276e <ftell+0x12>
    2762:	2221      	movs	r2, #33	; 0x21
    2764:	2001      	movs	r0, #1
    2766:	4b0e      	ldr	r3, [pc, #56]	; (27a0 <ftell+0x44>)
    2768:	4240      	negs	r0, r0
    276a:	601a      	str	r2, [r3, #0]
    276c:	4770      	bx	lr
    276e:	2320      	movs	r3, #32
    2770:	4013      	ands	r3, r2
    2772:	0312      	lsls	r2, r2, #12
    2774:	d50a      	bpl.n	278c <ftell+0x30>
    2776:	2b00      	cmp	r3, #0
    2778:	d002      	beq.n	2780 <ftell+0x24>
    277a:	6a80      	ldr	r0, [r0, #40]	; 0x28
    277c:	3801      	subs	r0, #1
    277e:	e7f5      	b.n	276c <ftell+0x10>
    2780:	6803      	ldr	r3, [r0, #0]
    2782:	6982      	ldr	r2, [r0, #24]
    2784:	6900      	ldr	r0, [r0, #16]
    2786:	189b      	adds	r3, r3, r2
    2788:	1a18      	subs	r0, r3, r0
    278a:	e7f7      	b.n	277c <ftell+0x20>
    278c:	2b00      	cmp	r3, #0
    278e:	d001      	beq.n	2794 <ftell+0x38>
    2790:	6a80      	ldr	r0, [r0, #40]	; 0x28
    2792:	e7eb      	b.n	276c <ftell+0x10>
    2794:	6803      	ldr	r3, [r0, #0]
    2796:	6982      	ldr	r2, [r0, #24]
    2798:	6900      	ldr	r0, [r0, #16]
    279a:	189b      	adds	r3, r3, r2
    279c:	1a18      	subs	r0, r3, r0
    279e:	e7e5      	b.n	276c <ftell+0x10>
    27a0:	1ffffa00 	.word	0x1ffffa00

000027a4 <_initio>:
    27a4:	b537      	push	{r0, r1, r2, r4, r5, lr}
    27a6:	4c18      	ldr	r4, [pc, #96]	; (2808 <_initio+0x64>)
    27a8:	4918      	ldr	r1, [pc, #96]	; (280c <_initio+0x68>)
    27aa:	0022      	movs	r2, r4
    27ac:	2000      	movs	r0, #0
    27ae:	f000 ffe9 	bl	3784 <_fdopen>
    27b2:	2380      	movs	r3, #128	; 0x80
    27b4:	2280      	movs	r2, #128	; 0x80
    27b6:	005b      	lsls	r3, r3, #1
    27b8:	2100      	movs	r1, #0
    27ba:	0020      	movs	r0, r4
    27bc:	00d2      	lsls	r2, r2, #3
    27be:	f000 ff57 	bl	3670 <setvbuf>
    27c2:	4c13      	ldr	r4, [pc, #76]	; (2810 <_initio+0x6c>)
    27c4:	4d13      	ldr	r5, [pc, #76]	; (2814 <_initio+0x70>)
    27c6:	0022      	movs	r2, r4
    27c8:	0029      	movs	r1, r5
    27ca:	2001      	movs	r0, #1
    27cc:	f000 ffda 	bl	3784 <_fdopen>
    27d0:	2380      	movs	r3, #128	; 0x80
    27d2:	2280      	movs	r2, #128	; 0x80
    27d4:	005b      	lsls	r3, r3, #1
    27d6:	2100      	movs	r1, #0
    27d8:	0020      	movs	r0, r4
    27da:	00d2      	lsls	r2, r2, #3
    27dc:	f000 ff48 	bl	3670 <setvbuf>
    27e0:	4b0d      	ldr	r3, [pc, #52]	; (2818 <_initio+0x74>)
    27e2:	681b      	ldr	r3, [r3, #0]
    27e4:	9301      	str	r3, [sp, #4]
    27e6:	2b02      	cmp	r3, #2
    27e8:	dd0d      	ble.n	2806 <_initio+0x62>
    27ea:	4c0c      	ldr	r4, [pc, #48]	; (281c <_initio+0x78>)
    27ec:	0029      	movs	r1, r5
    27ee:	0022      	movs	r2, r4
    27f0:	2002      	movs	r0, #2
    27f2:	f000 ffc7 	bl	3784 <_fdopen>
    27f6:	2380      	movs	r3, #128	; 0x80
    27f8:	2280      	movs	r2, #128	; 0x80
    27fa:	2100      	movs	r1, #0
    27fc:	0020      	movs	r0, r4
    27fe:	005b      	lsls	r3, r3, #1
    2800:	00d2      	lsls	r2, r2, #3
    2802:	f000 ff35 	bl	3670 <setvbuf>
    2806:	bd37      	pop	{r0, r1, r2, r4, r5, pc}
    2808:	1ffff8bc 	.word	0x1ffff8bc
    280c:	000050a5 	.word	0x000050a5
    2810:	1ffff8f8 	.word	0x1ffff8f8
    2814:	000050a7 	.word	0x000050a7
    2818:	00005074 	.word	0x00005074
    281c:	1ffff934 	.word	0x1ffff934

00002820 <_terminateio>:
    2820:	b5f8      	push	{r3, r4, r5, r6, r7, lr}
    2822:	2780      	movs	r7, #128	; 0x80
    2824:	2503      	movs	r5, #3
    2826:	4b0d      	ldr	r3, [pc, #52]	; (285c <_terminateio+0x3c>)
    2828:	4c0d      	ldr	r4, [pc, #52]	; (2860 <_terminateio+0x40>)
    282a:	681e      	ldr	r6, [r3, #0]
    282c:	03bf      	lsls	r7, r7, #14
    282e:	42ae      	cmp	r6, r5
    2830:	dc0b      	bgt.n	284a <_terminateio+0x2a>
    2832:	480c      	ldr	r0, [pc, #48]	; (2864 <_terminateio+0x44>)
    2834:	f000 ffe0 	bl	37f8 <fclose>
    2838:	480b      	ldr	r0, [pc, #44]	; (2868 <_terminateio+0x48>)
    283a:	f000 ffdd 	bl	37f8 <fclose>
    283e:	2e02      	cmp	r6, #2
    2840:	dd02      	ble.n	2848 <_terminateio+0x28>
    2842:	480a      	ldr	r0, [pc, #40]	; (286c <_terminateio+0x4c>)
    2844:	f000 ffd8 	bl	37f8 <fclose>
    2848:	bdf8      	pop	{r3, r4, r5, r6, r7, pc}
    284a:	68e3      	ldr	r3, [r4, #12]
    284c:	423b      	tst	r3, r7
    284e:	d002      	beq.n	2856 <_terminateio+0x36>
    2850:	0020      	movs	r0, r4
    2852:	f000 ffd1 	bl	37f8 <fclose>
    2856:	3501      	adds	r5, #1
    2858:	343c      	adds	r4, #60	; 0x3c
    285a:	e7e8      	b.n	282e <_terminateio+0xe>
    285c:	00005074 	.word	0x00005074
    2860:	1ffff970 	.word	0x1ffff970
    2864:	1ffff8bc 	.word	0x1ffff8bc
    2868:	1ffff8f8 	.word	0x1ffff8f8
    286c:	1ffff934 	.word	0x1ffff934

00002870 <__vfprintf>:
    2870:	b5f0      	push	{r4, r5, r6, r7, lr}
    2872:	b0cf      	sub	sp, #316	; 0x13c
    2874:	920a      	str	r2, [sp, #40]	; 0x28
    2876:	9a55      	ldr	r2, [sp, #340]	; 0x154
    2878:	0004      	movs	r4, r0
    287a:	9208      	str	r2, [sp, #32]
    287c:	2200      	movs	r2, #0
    287e:	930b      	str	r3, [sp, #44]	; 0x2c
    2880:	9b54      	ldr	r3, [sp, #336]	; 0x150
    2882:	9206      	str	r2, [sp, #24]
    2884:	7818      	ldrb	r0, [r3, #0]
    2886:	1c5a      	adds	r2, r3, #1
    2888:	9207      	str	r2, [sp, #28]
    288a:	2800      	cmp	r0, #0
    288c:	d102      	bne.n	2894 <__vfprintf+0x24>
    288e:	9806      	ldr	r0, [sp, #24]
    2890:	b04f      	add	sp, #316	; 0x13c
    2892:	bdf0      	pop	{r4, r5, r6, r7, pc}
    2894:	2825      	cmp	r0, #37	; 0x25
    2896:	d139      	bne.n	290c <__vfprintf+0x9c>
    2898:	2204      	movs	r2, #4
    289a:	2180      	movs	r1, #128	; 0x80
    289c:	2500      	movs	r5, #0
    289e:	2702      	movs	r7, #2
    28a0:	4694      	mov	ip, r2
    28a2:	9b07      	ldr	r3, [sp, #28]
    28a4:	3824      	subs	r0, #36	; 0x24
    28a6:	0089      	lsls	r1, r1, #2
    28a8:	001a      	movs	r2, r3
    28aa:	7816      	ldrb	r6, [r2, #0]
    28ac:	3301      	adds	r3, #1
    28ae:	2e2b      	cmp	r6, #43	; 0x2b
    28b0:	d04f      	beq.n	2952 <__vfprintf+0xe2>
    28b2:	d846      	bhi.n	2942 <__vfprintf+0xd2>
    28b4:	2e20      	cmp	r6, #32
    28b6:	d04e      	beq.n	2956 <__vfprintf+0xe6>
    28b8:	2e23      	cmp	r6, #35	; 0x23
    28ba:	d04f      	beq.n	295c <__vfprintf+0xec>
    28bc:	2e2a      	cmp	r6, #42	; 0x2a
    28be:	d14f      	bne.n	2960 <__vfprintf+0xf0>
    28c0:	9908      	ldr	r1, [sp, #32]
    28c2:	c980      	ldmia	r1!, {r7}
    28c4:	2f00      	cmp	r7, #0
    28c6:	da02      	bge.n	28ce <__vfprintf+0x5e>
    28c8:	2001      	movs	r0, #1
    28ca:	427f      	negs	r7, r7
    28cc:	4045      	eors	r5, r0
    28ce:	3202      	adds	r2, #2
    28d0:	781e      	ldrb	r6, [r3, #0]
    28d2:	9207      	str	r2, [sp, #28]
    28d4:	9108      	str	r1, [sp, #32]
    28d6:	43fb      	mvns	r3, r7
    28d8:	17db      	asrs	r3, r3, #31
    28da:	403b      	ands	r3, r7
    28dc:	9314      	str	r3, [sp, #80]	; 0x50
    28de:	2300      	movs	r3, #0
    28e0:	930c      	str	r3, [sp, #48]	; 0x30
    28e2:	2e2e      	cmp	r6, #46	; 0x2e
    28e4:	d157      	bne.n	2996 <__vfprintf+0x126>
    28e6:	9b07      	ldr	r3, [sp, #28]
    28e8:	781e      	ldrb	r6, [r3, #0]
    28ea:	2e2a      	cmp	r6, #42	; 0x2a
    28ec:	d045      	beq.n	297a <__vfprintf+0x10a>
    28ee:	210a      	movs	r1, #10
    28f0:	3301      	adds	r3, #1
    28f2:	0032      	movs	r2, r6
    28f4:	3a30      	subs	r2, #48	; 0x30
    28f6:	b2d0      	uxtb	r0, r2
    28f8:	9307      	str	r3, [sp, #28]
    28fa:	2809      	cmp	r0, #9
    28fc:	d846      	bhi.n	298c <__vfprintf+0x11c>
    28fe:	980c      	ldr	r0, [sp, #48]	; 0x30
    2900:	781e      	ldrb	r6, [r3, #0]
    2902:	4348      	muls	r0, r1
    2904:	1812      	adds	r2, r2, r0
    2906:	920c      	str	r2, [sp, #48]	; 0x30
    2908:	3301      	adds	r3, #1
    290a:	e7f2      	b.n	28f2 <__vfprintf+0x82>
    290c:	9b06      	ldr	r3, [sp, #24]
    290e:	9a0b      	ldr	r2, [sp, #44]	; 0x2c
    2910:	1c5d      	adds	r5, r3, #1
    2912:	17db      	asrs	r3, r3, #31
    2914:	429a      	cmp	r2, r3
    2916:	dc04      	bgt.n	2922 <__vfprintf+0xb2>
    2918:	d10c      	bne.n	2934 <__vfprintf+0xc4>
    291a:	9b0a      	ldr	r3, [sp, #40]	; 0x28
    291c:	9a06      	ldr	r2, [sp, #24]
    291e:	4293      	cmp	r3, r2
    2920:	d908      	bls.n	2934 <__vfprintf+0xc4>
    2922:	68a3      	ldr	r3, [r4, #8]
    2924:	3b01      	subs	r3, #1
    2926:	60a3      	str	r3, [r4, #8]
    2928:	2b00      	cmp	r3, #0
    292a:	db06      	blt.n	293a <__vfprintf+0xca>
    292c:	6823      	ldr	r3, [r4, #0]
    292e:	1c5a      	adds	r2, r3, #1
    2930:	6022      	str	r2, [r4, #0]
    2932:	7018      	strb	r0, [r3, #0]
    2934:	9b07      	ldr	r3, [sp, #28]
    2936:	9506      	str	r5, [sp, #24]
    2938:	e7a4      	b.n	2884 <__vfprintf+0x14>
    293a:	0021      	movs	r1, r4
    293c:	f7ff fd14 	bl	2368 <__flsbuf>
    2940:	e7f8      	b.n	2934 <__vfprintf+0xc4>
    2942:	2e2d      	cmp	r6, #45	; 0x2d
    2944:	d003      	beq.n	294e <__vfprintf+0xde>
    2946:	2e30      	cmp	r6, #48	; 0x30
    2948:	d1b8      	bne.n	28bc <__vfprintf+0x4c>
    294a:	430d      	orrs	r5, r1
    294c:	e7ac      	b.n	28a8 <__vfprintf+0x38>
    294e:	4305      	orrs	r5, r0
    2950:	e7aa      	b.n	28a8 <__vfprintf+0x38>
    2952:	433d      	orrs	r5, r7
    2954:	e7a8      	b.n	28a8 <__vfprintf+0x38>
    2956:	4662      	mov	r2, ip
    2958:	4315      	orrs	r5, r2
    295a:	e7a5      	b.n	28a8 <__vfprintf+0x38>
    295c:	2208      	movs	r2, #8
    295e:	e7fb      	b.n	2958 <__vfprintf+0xe8>
    2960:	2700      	movs	r7, #0
    2962:	200a      	movs	r0, #10
    2964:	0032      	movs	r2, r6
    2966:	3a30      	subs	r2, #48	; 0x30
    2968:	b2d1      	uxtb	r1, r2
    296a:	9307      	str	r3, [sp, #28]
    296c:	2909      	cmp	r1, #9
    296e:	d8b2      	bhi.n	28d6 <__vfprintf+0x66>
    2970:	4347      	muls	r7, r0
    2972:	781e      	ldrb	r6, [r3, #0]
    2974:	19d7      	adds	r7, r2, r7
    2976:	3301      	adds	r3, #1
    2978:	e7f4      	b.n	2964 <__vfprintf+0xf4>
    297a:	9b08      	ldr	r3, [sp, #32]
    297c:	cb04      	ldmia	r3!, {r2}
    297e:	920c      	str	r2, [sp, #48]	; 0x30
    2980:	9a07      	ldr	r2, [sp, #28]
    2982:	9308      	str	r3, [sp, #32]
    2984:	0013      	movs	r3, r2
    2986:	7856      	ldrb	r6, [r2, #1]
    2988:	3302      	adds	r3, #2
    298a:	9307      	str	r3, [sp, #28]
    298c:	9b0c      	ldr	r3, [sp, #48]	; 0x30
    298e:	2b00      	cmp	r3, #0
    2990:	db18      	blt.n	29c4 <__vfprintf+0x154>
    2992:	2310      	movs	r3, #16
    2994:	431d      	orrs	r5, r3
    2996:	2e6c      	cmp	r6, #108	; 0x6c
    2998:	d109      	bne.n	29ae <__vfprintf+0x13e>
    299a:	9b07      	ldr	r3, [sp, #28]
    299c:	781e      	ldrb	r6, [r3, #0]
    299e:	2e6c      	cmp	r6, #108	; 0x6c
    29a0:	d113      	bne.n	29ca <__vfprintf+0x15a>
    29a2:	785e      	ldrb	r6, [r3, #1]
    29a4:	2360      	movs	r3, #96	; 0x60
    29a6:	431d      	orrs	r5, r3
    29a8:	9b07      	ldr	r3, [sp, #28]
    29aa:	3302      	adds	r3, #2
    29ac:	9307      	str	r3, [sp, #28]
    29ae:	2e4c      	cmp	r6, #76	; 0x4c
    29b0:	d001      	beq.n	29b6 <__vfprintf+0x146>
    29b2:	2e71      	cmp	r6, #113	; 0x71
    29b4:	d10f      	bne.n	29d6 <__vfprintf+0x166>
    29b6:	9b07      	ldr	r3, [sp, #28]
    29b8:	781e      	ldrb	r6, [r3, #0]
    29ba:	2360      	movs	r3, #96	; 0x60
    29bc:	431d      	orrs	r5, r3
    29be:	9b07      	ldr	r3, [sp, #28]
    29c0:	3301      	adds	r3, #1
    29c2:	e014      	b.n	29ee <__vfprintf+0x17e>
    29c4:	2300      	movs	r3, #0
    29c6:	930c      	str	r3, [sp, #48]	; 0x30
    29c8:	e7e5      	b.n	2996 <__vfprintf+0x126>
    29ca:	9b07      	ldr	r3, [sp, #28]
    29cc:	3301      	adds	r3, #1
    29ce:	9307      	str	r3, [sp, #28]
    29d0:	2320      	movs	r3, #32
    29d2:	431d      	orrs	r5, r3
    29d4:	e7eb      	b.n	29ae <__vfprintf+0x13e>
    29d6:	2e68      	cmp	r6, #104	; 0x68
    29d8:	d170      	bne.n	2abc <__vfprintf+0x24c>
    29da:	9b07      	ldr	r3, [sp, #28]
    29dc:	781e      	ldrb	r6, [r3, #0]
    29de:	2e68      	cmp	r6, #104	; 0x68
    29e0:	d107      	bne.n	29f2 <__vfprintf+0x182>
    29e2:	2380      	movs	r3, #128	; 0x80
    29e4:	005b      	lsls	r3, r3, #1
    29e6:	431d      	orrs	r5, r3
    29e8:	9b07      	ldr	r3, [sp, #28]
    29ea:	785e      	ldrb	r6, [r3, #1]
    29ec:	3302      	adds	r3, #2
    29ee:	9307      	str	r3, [sp, #28]
    29f0:	e004      	b.n	29fc <__vfprintf+0x18c>
    29f2:	9b07      	ldr	r3, [sp, #28]
    29f4:	3301      	adds	r3, #1
    29f6:	9307      	str	r3, [sp, #28]
    29f8:	2380      	movs	r3, #128	; 0x80
    29fa:	431d      	orrs	r5, r3
    29fc:	2e78      	cmp	r6, #120	; 0x78
    29fe:	dc09      	bgt.n	2a14 <__vfprintf+0x1a4>
    2a00:	2e57      	cmp	r6, #87	; 0x57
    2a02:	dc67      	bgt.n	2ad4 <__vfprintf+0x264>
    2a04:	2e41      	cmp	r6, #65	; 0x41
    2a06:	d100      	bne.n	2a0a <__vfprintf+0x19a>
    2a08:	e2fd      	b.n	3006 <__vfprintf+0x796>
    2a0a:	dd00      	ble.n	2a0e <__vfprintf+0x19e>
    2a0c:	e089      	b.n	2b22 <__vfprintf+0x2b2>
    2a0e:	2e00      	cmp	r6, #0
    2a10:	d100      	bne.n	2a14 <__vfprintf+0x1a4>
    2a12:	e0ed      	b.n	2bf0 <__vfprintf+0x380>
    2a14:	9b14      	ldr	r3, [sp, #80]	; 0x50
    2a16:	2201      	movs	r2, #1
    2a18:	3b01      	subs	r3, #1
    2a1a:	930c      	str	r3, [sp, #48]	; 0x30
    2a1c:	002b      	movs	r3, r5
    2a1e:	4013      	ands	r3, r2
    2a20:	9339      	str	r3, [sp, #228]	; 0xe4
    2a22:	9b06      	ldr	r3, [sp, #24]
    2a24:	4215      	tst	r5, r2
    2a26:	d11d      	bne.n	2a64 <__vfprintf+0x1f4>
    2a28:	2330      	movs	r3, #48	; 0x30
    2a2a:	9338      	str	r3, [sp, #224]	; 0xe0
    2a2c:	05ab      	lsls	r3, r5, #22
    2a2e:	d401      	bmi.n	2a34 <__vfprintf+0x1c4>
    2a30:	2320      	movs	r3, #32
    2a32:	9338      	str	r3, [sp, #224]	; 0xe0
    2a34:	9b06      	ldr	r3, [sp, #24]
    2a36:	9d0c      	ldr	r5, [sp, #48]	; 0x30
    2a38:	9322      	str	r3, [sp, #136]	; 0x88
    2a3a:	17db      	asrs	r3, r3, #31
    2a3c:	9323      	str	r3, [sp, #140]	; 0x8c
    2a3e:	3d01      	subs	r5, #1
    2a40:	d400      	bmi.n	2a44 <__vfprintf+0x1d4>
    2a42:	e08e      	b.n	2b62 <__vfprintf+0x2f2>
    2a44:	2300      	movs	r3, #0
    2a46:	429f      	cmp	r7, r3
    2a48:	dd00      	ble.n	2a4c <__vfprintf+0x1dc>
    2a4a:	9b0c      	ldr	r3, [sp, #48]	; 0x30
    2a4c:	9a06      	ldr	r2, [sp, #24]
    2a4e:	189b      	adds	r3, r3, r2
    2a50:	9a14      	ldr	r2, [sp, #80]	; 0x50
    2a52:	1e91      	subs	r1, r2, #2
    2a54:	2200      	movs	r2, #0
    2a56:	4297      	cmp	r7, r2
    2a58:	dd02      	ble.n	2a60 <__vfprintf+0x1f0>
    2a5a:	9814      	ldr	r0, [sp, #80]	; 0x50
    2a5c:	3201      	adds	r2, #1
    2a5e:	1a12      	subs	r2, r2, r0
    2a60:	1852      	adds	r2, r2, r1
    2a62:	920c      	str	r2, [sp, #48]	; 0x30
    2a64:	990b      	ldr	r1, [sp, #44]	; 0x2c
    2a66:	1c5a      	adds	r2, r3, #1
    2a68:	9206      	str	r2, [sp, #24]
    2a6a:	17da      	asrs	r2, r3, #31
    2a6c:	4291      	cmp	r1, r2
    2a6e:	dc03      	bgt.n	2a78 <__vfprintf+0x208>
    2a70:	d10c      	bne.n	2a8c <__vfprintf+0x21c>
    2a72:	9a0a      	ldr	r2, [sp, #40]	; 0x28
    2a74:	429a      	cmp	r2, r3
    2a76:	d909      	bls.n	2a8c <__vfprintf+0x21c>
    2a78:	68a3      	ldr	r3, [r4, #8]
    2a7a:	3b01      	subs	r3, #1
    2a7c:	60a3      	str	r3, [r4, #8]
    2a7e:	2b00      	cmp	r3, #0
    2a80:	da00      	bge.n	2a84 <__vfprintf+0x214>
    2a82:	e08f      	b.n	2ba4 <__vfprintf+0x334>
    2a84:	6823      	ldr	r3, [r4, #0]
    2a86:	1c5a      	adds	r2, r3, #1
    2a88:	6022      	str	r2, [r4, #0]
    2a8a:	701e      	strb	r6, [r3, #0]
    2a8c:	9b39      	ldr	r3, [sp, #228]	; 0xe4
    2a8e:	9f08      	ldr	r7, [sp, #32]
    2a90:	2b00      	cmp	r3, #0
    2a92:	d010      	beq.n	2ab6 <__vfprintf+0x246>
    2a94:	9b06      	ldr	r3, [sp, #24]
    2a96:	9d0c      	ldr	r5, [sp, #48]	; 0x30
    2a98:	9320      	str	r3, [sp, #128]	; 0x80
    2a9a:	17db      	asrs	r3, r3, #31
    2a9c:	9321      	str	r3, [sp, #132]	; 0x84
    2a9e:	3d01      	subs	r5, #1
    2aa0:	d400      	bmi.n	2aa4 <__vfprintf+0x234>
    2aa2:	e084      	b.n	2bae <__vfprintf+0x33e>
    2aa4:	9b0c      	ldr	r3, [sp, #48]	; 0x30
    2aa6:	9a0c      	ldr	r2, [sp, #48]	; 0x30
    2aa8:	43db      	mvns	r3, r3
    2aaa:	17db      	asrs	r3, r3, #31
    2aac:	4013      	ands	r3, r2
    2aae:	9a06      	ldr	r2, [sp, #24]
    2ab0:	18d3      	adds	r3, r2, r3
    2ab2:	9306      	str	r3, [sp, #24]
    2ab4:	9f08      	ldr	r7, [sp, #32]
    2ab6:	9d06      	ldr	r5, [sp, #24]
    2ab8:	9708      	str	r7, [sp, #32]
    2aba:	e73b      	b.n	2934 <__vfprintf+0xc4>
    2abc:	2e6a      	cmp	r6, #106	; 0x6a
    2abe:	d104      	bne.n	2aca <__vfprintf+0x25a>
    2ac0:	2340      	movs	r3, #64	; 0x40
    2ac2:	431d      	orrs	r5, r3
    2ac4:	9b07      	ldr	r3, [sp, #28]
    2ac6:	781e      	ldrb	r6, [r3, #0]
    2ac8:	e77a      	b.n	29c0 <__vfprintf+0x150>
    2aca:	2e7a      	cmp	r6, #122	; 0x7a
    2acc:	d0fa      	beq.n	2ac4 <__vfprintf+0x254>
    2ace:	2e74      	cmp	r6, #116	; 0x74
    2ad0:	d194      	bne.n	29fc <__vfprintf+0x18c>
    2ad2:	e7f7      	b.n	2ac4 <__vfprintf+0x254>
    2ad4:	0030      	movs	r0, r6
    2ad6:	3858      	subs	r0, #88	; 0x58
    2ad8:	2820      	cmp	r0, #32
    2ada:	d89b      	bhi.n	2a14 <__vfprintf+0x1a4>
    2adc:	f001 fbcf 	bl	427e <__gnu_thumb1_case_shi>
    2ae0:	ff9a0166 	.word	0xff9a0166
    2ae4:	ff9aff9a 	.word	0xff9aff9a
    2ae8:	ff9aff9a 	.word	0xff9aff9a
    2aec:	ff9aff9a 	.word	0xff9aff9a
    2af0:	0293ff9a 	.word	0x0293ff9a
    2af4:	003dff9a 	.word	0x003dff9a
    2af8:	00270259 	.word	0x00270259
    2afc:	00270027 	.word	0x00270027
    2b00:	0259ff9a 	.word	0x0259ff9a
    2b04:	ff9aff9a 	.word	0xff9aff9a
    2b08:	ff9aff9a 	.word	0xff9aff9a
    2b0c:	01c8008c 	.word	0x01c8008c
    2b10:	ff9a01be 	.word	0xff9a01be
    2b14:	00acff9a 	.word	0x00acff9a
    2b18:	01f0ff9a 	.word	0x01f0ff9a
    2b1c:	ff9aff9a 	.word	0xff9aff9a
    2b20:	0195      	.short	0x0195
    2b22:	2302      	movs	r3, #2
    2b24:	0032      	movs	r2, r6
    2b26:	439a      	bics	r2, r3
    2b28:	2a45      	cmp	r2, #69	; 0x45
    2b2a:	d000      	beq.n	2b2e <__vfprintf+0x2be>
    2b2c:	e772      	b.n	2a14 <__vfprintf+0x1a4>
    2b2e:	2380      	movs	r3, #128	; 0x80
    2b30:	00db      	lsls	r3, r3, #3
    2b32:	432b      	orrs	r3, r5
    2b34:	06ea      	lsls	r2, r5, #27
    2b36:	d401      	bmi.n	2b3c <__vfprintf+0x2cc>
    2b38:	2206      	movs	r2, #6
    2b3a:	920c      	str	r2, [sp, #48]	; 0x30
    2b3c:	001d      	movs	r5, r3
    2b3e:	2200      	movs	r2, #0
    2b40:	2300      	movs	r3, #0
    2b42:	2107      	movs	r1, #7
    2b44:	9204      	str	r2, [sp, #16]
    2b46:	9305      	str	r3, [sp, #20]
    2b48:	2300      	movs	r3, #0
    2b4a:	9f08      	ldr	r7, [sp, #32]
    2b4c:	9338      	str	r3, [sp, #224]	; 0xe0
    2b4e:	3707      	adds	r7, #7
    2b50:	438f      	bics	r7, r1
    2b52:	cf03      	ldmia	r7!, {r0, r1}
    2b54:	9044      	str	r0, [sp, #272]	; 0x110
    2b56:	9145      	str	r1, [sp, #276]	; 0x114
    2b58:	e188      	b.n	2e6c <__vfprintf+0x5fc>
    2b5a:	9b08      	ldr	r3, [sp, #32]
    2b5c:	cb40      	ldmia	r3!, {r6}
    2b5e:	9308      	str	r3, [sp, #32]
    2b60:	e758      	b.n	2a14 <__vfprintf+0x1a4>
    2b62:	9b0b      	ldr	r3, [sp, #44]	; 0x2c
    2b64:	9a23      	ldr	r2, [sp, #140]	; 0x8c
    2b66:	4293      	cmp	r3, r2
    2b68:	dc04      	bgt.n	2b74 <__vfprintf+0x304>
    2b6a:	d10d      	bne.n	2b88 <__vfprintf+0x318>
    2b6c:	9b0a      	ldr	r3, [sp, #40]	; 0x28
    2b6e:	9a22      	ldr	r2, [sp, #136]	; 0x88
    2b70:	4293      	cmp	r3, r2
    2b72:	d909      	bls.n	2b88 <__vfprintf+0x318>
    2b74:	68a3      	ldr	r3, [r4, #8]
    2b76:	3b01      	subs	r3, #1
    2b78:	60a3      	str	r3, [r4, #8]
    2b7a:	2b00      	cmp	r3, #0
    2b7c:	db0d      	blt.n	2b9a <__vfprintf+0x32a>
    2b7e:	6823      	ldr	r3, [r4, #0]
    2b80:	1c5a      	adds	r2, r3, #1
    2b82:	6022      	str	r2, [r4, #0]
    2b84:	9a38      	ldr	r2, [sp, #224]	; 0xe0
    2b86:	701a      	strb	r2, [r3, #0]
    2b88:	2001      	movs	r0, #1
    2b8a:	9a22      	ldr	r2, [sp, #136]	; 0x88
    2b8c:	9b23      	ldr	r3, [sp, #140]	; 0x8c
    2b8e:	2100      	movs	r1, #0
    2b90:	1812      	adds	r2, r2, r0
    2b92:	414b      	adcs	r3, r1
    2b94:	9222      	str	r2, [sp, #136]	; 0x88
    2b96:	9323      	str	r3, [sp, #140]	; 0x8c
    2b98:	e751      	b.n	2a3e <__vfprintf+0x1ce>
    2b9a:	0021      	movs	r1, r4
    2b9c:	9838      	ldr	r0, [sp, #224]	; 0xe0
    2b9e:	f7ff fbe3 	bl	2368 <__flsbuf>
    2ba2:	e7f1      	b.n	2b88 <__vfprintf+0x318>
    2ba4:	0021      	movs	r1, r4
    2ba6:	0030      	movs	r0, r6
    2ba8:	f7ff fbde 	bl	2368 <__flsbuf>
    2bac:	e76e      	b.n	2a8c <__vfprintf+0x21c>
    2bae:	9b0b      	ldr	r3, [sp, #44]	; 0x2c
    2bb0:	9a21      	ldr	r2, [sp, #132]	; 0x84
    2bb2:	4293      	cmp	r3, r2
    2bb4:	dc04      	bgt.n	2bc0 <__vfprintf+0x350>
    2bb6:	d10d      	bne.n	2bd4 <__vfprintf+0x364>
    2bb8:	9b0a      	ldr	r3, [sp, #40]	; 0x28
    2bba:	9a20      	ldr	r2, [sp, #128]	; 0x80
    2bbc:	4293      	cmp	r3, r2
    2bbe:	d909      	bls.n	2bd4 <__vfprintf+0x364>
    2bc0:	68a3      	ldr	r3, [r4, #8]
    2bc2:	3b01      	subs	r3, #1
    2bc4:	60a3      	str	r3, [r4, #8]
    2bc6:	2b00      	cmp	r3, #0
    2bc8:	db0d      	blt.n	2be6 <__vfprintf+0x376>
    2bca:	6823      	ldr	r3, [r4, #0]
    2bcc:	1c5a      	adds	r2, r3, #1
    2bce:	6022      	str	r2, [r4, #0]
    2bd0:	2220      	movs	r2, #32
    2bd2:	701a      	strb	r2, [r3, #0]
    2bd4:	2001      	movs	r0, #1
    2bd6:	9a20      	ldr	r2, [sp, #128]	; 0x80
    2bd8:	9b21      	ldr	r3, [sp, #132]	; 0x84
    2bda:	2100      	movs	r1, #0
    2bdc:	1812      	adds	r2, r2, r0
    2bde:	414b      	adcs	r3, r1
    2be0:	9220      	str	r2, [sp, #128]	; 0x80
    2be2:	9321      	str	r3, [sp, #132]	; 0x84
    2be4:	e75b      	b.n	2a9e <__vfprintf+0x22e>
    2be6:	0021      	movs	r1, r4
    2be8:	2020      	movs	r0, #32
    2bea:	f7ff fbbd 	bl	2368 <__flsbuf>
    2bee:	e7f1      	b.n	2bd4 <__vfprintf+0x364>
    2bf0:	9b07      	ldr	r3, [sp, #28]
    2bf2:	3b01      	subs	r3, #1
    2bf4:	9307      	str	r3, [sp, #28]
    2bf6:	e75d      	b.n	2ab4 <__vfprintf+0x244>
    2bf8:	9b08      	ldr	r3, [sp, #32]
    2bfa:	1d1f      	adds	r7, r3, #4
    2bfc:	066b      	lsls	r3, r5, #25
    2bfe:	d506      	bpl.n	2c0e <__vfprintf+0x39e>
    2c00:	9b08      	ldr	r3, [sp, #32]
    2c02:	9a06      	ldr	r2, [sp, #24]
    2c04:	681b      	ldr	r3, [r3, #0]
    2c06:	601a      	str	r2, [r3, #0]
    2c08:	17d2      	asrs	r2, r2, #31
    2c0a:	605a      	str	r2, [r3, #4]
    2c0c:	e753      	b.n	2ab6 <__vfprintf+0x246>
    2c0e:	06ab      	lsls	r3, r5, #26
    2c10:	d504      	bpl.n	2c1c <__vfprintf+0x3ac>
    2c12:	9b08      	ldr	r3, [sp, #32]
    2c14:	9a06      	ldr	r2, [sp, #24]
    2c16:	681b      	ldr	r3, [r3, #0]
    2c18:	601a      	str	r2, [r3, #0]
    2c1a:	e74c      	b.n	2ab6 <__vfprintf+0x246>
    2c1c:	05eb      	lsls	r3, r5, #23
    2c1e:	d504      	bpl.n	2c2a <__vfprintf+0x3ba>
    2c20:	9b08      	ldr	r3, [sp, #32]
    2c22:	9a06      	ldr	r2, [sp, #24]
    2c24:	681b      	ldr	r3, [r3, #0]
    2c26:	701a      	strb	r2, [r3, #0]
    2c28:	e745      	b.n	2ab6 <__vfprintf+0x246>
    2c2a:	062b      	lsls	r3, r5, #24
    2c2c:	d5f1      	bpl.n	2c12 <__vfprintf+0x3a2>
    2c2e:	9b08      	ldr	r3, [sp, #32]
    2c30:	9a06      	ldr	r2, [sp, #24]
    2c32:	681b      	ldr	r3, [r3, #0]
    2c34:	801a      	strh	r2, [r3, #0]
    2c36:	e73e      	b.n	2ab6 <__vfprintf+0x246>
    2c38:	9f08      	ldr	r7, [sp, #32]
    2c3a:	cf08      	ldmia	r7!, {r3}
    2c3c:	9338      	str	r3, [sp, #224]	; 0xe0
    2c3e:	2b00      	cmp	r3, #0
    2c40:	d101      	bne.n	2c46 <__vfprintf+0x3d6>
    2c42:	4bc6      	ldr	r3, [pc, #792]	; (2f5c <__vfprintf+0x6ec>)
    2c44:	9338      	str	r3, [sp, #224]	; 0xe0
    2c46:	9838      	ldr	r0, [sp, #224]	; 0xe0
    2c48:	f000 fd4e 	bl	36e8 <strlen>
    2c4c:	0006      	movs	r6, r0
    2c4e:	06eb      	lsls	r3, r5, #27
    2c50:	d503      	bpl.n	2c5a <__vfprintf+0x3ea>
    2c52:	9b0c      	ldr	r3, [sp, #48]	; 0x30
    2c54:	4298      	cmp	r0, r3
    2c56:	dd00      	ble.n	2c5a <__vfprintf+0x3ea>
    2c58:	001e      	movs	r6, r3
    2c5a:	9b14      	ldr	r3, [sp, #80]	; 0x50
    2c5c:	002a      	movs	r2, r5
    2c5e:	1b9b      	subs	r3, r3, r6
    2c60:	9308      	str	r3, [sp, #32]
    2c62:	2301      	movs	r3, #1
    2c64:	401a      	ands	r2, r3
    2c66:	9214      	str	r2, [sp, #80]	; 0x50
    2c68:	421d      	tst	r5, r3
    2c6a:	d118      	bne.n	2c9e <__vfprintf+0x42e>
    2c6c:	332f      	adds	r3, #47	; 0x2f
    2c6e:	930c      	str	r3, [sp, #48]	; 0x30
    2c70:	05ab      	lsls	r3, r5, #22
    2c72:	d401      	bmi.n	2c78 <__vfprintf+0x408>
    2c74:	2320      	movs	r3, #32
    2c76:	930c      	str	r3, [sp, #48]	; 0x30
    2c78:	9b06      	ldr	r3, [sp, #24]
    2c7a:	9d08      	ldr	r5, [sp, #32]
    2c7c:	931e      	str	r3, [sp, #120]	; 0x78
    2c7e:	17db      	asrs	r3, r3, #31
    2c80:	931f      	str	r3, [sp, #124]	; 0x7c
    2c82:	3d01      	subs	r5, #1
    2c84:	d52c      	bpl.n	2ce0 <__vfprintf+0x470>
    2c86:	9b08      	ldr	r3, [sp, #32]
    2c88:	9a08      	ldr	r2, [sp, #32]
    2c8a:	43db      	mvns	r3, r3
    2c8c:	17db      	asrs	r3, r3, #31
    2c8e:	4013      	ands	r3, r2
    2c90:	9a06      	ldr	r2, [sp, #24]
    2c92:	18d2      	adds	r2, r2, r3
    2c94:	9206      	str	r2, [sp, #24]
    2c96:	9a08      	ldr	r2, [sp, #32]
    2c98:	3a01      	subs	r2, #1
    2c9a:	1ad3      	subs	r3, r2, r3
    2c9c:	9308      	str	r3, [sp, #32]
    2c9e:	2500      	movs	r5, #0
    2ca0:	9b06      	ldr	r3, [sp, #24]
    2ca2:	9324      	str	r3, [sp, #144]	; 0x90
    2ca4:	17db      	asrs	r3, r3, #31
    2ca6:	9325      	str	r3, [sp, #148]	; 0x94
    2ca8:	42b5      	cmp	r5, r6
    2caa:	db3a      	blt.n	2d22 <__vfprintf+0x4b2>
    2cac:	43f0      	mvns	r0, r6
    2cae:	9b06      	ldr	r3, [sp, #24]
    2cb0:	17c0      	asrs	r0, r0, #31
    2cb2:	4006      	ands	r6, r0
    2cb4:	199b      	adds	r3, r3, r6
    2cb6:	9306      	str	r3, [sp, #24]
    2cb8:	9b14      	ldr	r3, [sp, #80]	; 0x50
    2cba:	2b00      	cmp	r3, #0
    2cbc:	d100      	bne.n	2cc0 <__vfprintf+0x450>
    2cbe:	e6fa      	b.n	2ab6 <__vfprintf+0x246>
    2cc0:	9b06      	ldr	r3, [sp, #24]
    2cc2:	9d08      	ldr	r5, [sp, #32]
    2cc4:	9328      	str	r3, [sp, #160]	; 0xa0
    2cc6:	17db      	asrs	r3, r3, #31
    2cc8:	9329      	str	r3, [sp, #164]	; 0xa4
    2cca:	3d01      	subs	r5, #1
    2ccc:	d54d      	bpl.n	2d6a <__vfprintf+0x4fa>
    2cce:	9b08      	ldr	r3, [sp, #32]
    2cd0:	9a08      	ldr	r2, [sp, #32]
    2cd2:	43db      	mvns	r3, r3
    2cd4:	17db      	asrs	r3, r3, #31
    2cd6:	4013      	ands	r3, r2
    2cd8:	9a06      	ldr	r2, [sp, #24]
    2cda:	18d3      	adds	r3, r2, r3
    2cdc:	9306      	str	r3, [sp, #24]
    2cde:	e6ea      	b.n	2ab6 <__vfprintf+0x246>
    2ce0:	9b0b      	ldr	r3, [sp, #44]	; 0x2c
    2ce2:	9a1f      	ldr	r2, [sp, #124]	; 0x7c
    2ce4:	4293      	cmp	r3, r2
    2ce6:	dc04      	bgt.n	2cf2 <__vfprintf+0x482>
    2ce8:	d10d      	bne.n	2d06 <__vfprintf+0x496>
    2cea:	9b0a      	ldr	r3, [sp, #40]	; 0x28
    2cec:	9a1e      	ldr	r2, [sp, #120]	; 0x78
    2cee:	4293      	cmp	r3, r2
    2cf0:	d909      	bls.n	2d06 <__vfprintf+0x496>
    2cf2:	68a3      	ldr	r3, [r4, #8]
    2cf4:	3b01      	subs	r3, #1
    2cf6:	60a3      	str	r3, [r4, #8]
    2cf8:	2b00      	cmp	r3, #0
    2cfa:	db0d      	blt.n	2d18 <__vfprintf+0x4a8>
    2cfc:	6823      	ldr	r3, [r4, #0]
    2cfe:	1c5a      	adds	r2, r3, #1
    2d00:	6022      	str	r2, [r4, #0]
    2d02:	9a0c      	ldr	r2, [sp, #48]	; 0x30
    2d04:	701a      	strb	r2, [r3, #0]
    2d06:	2001      	movs	r0, #1
    2d08:	9a1e      	ldr	r2, [sp, #120]	; 0x78
    2d0a:	9b1f      	ldr	r3, [sp, #124]	; 0x7c
    2d0c:	2100      	movs	r1, #0
    2d0e:	1812      	adds	r2, r2, r0
    2d10:	414b      	adcs	r3, r1
    2d12:	921e      	str	r2, [sp, #120]	; 0x78
    2d14:	931f      	str	r3, [sp, #124]	; 0x7c
    2d16:	e7b4      	b.n	2c82 <__vfprintf+0x412>
    2d18:	0021      	movs	r1, r4
    2d1a:	980c      	ldr	r0, [sp, #48]	; 0x30
    2d1c:	f7ff fb24 	bl	2368 <__flsbuf>
    2d20:	e7f1      	b.n	2d06 <__vfprintf+0x496>
    2d22:	9b0b      	ldr	r3, [sp, #44]	; 0x2c
    2d24:	9a25      	ldr	r2, [sp, #148]	; 0x94
    2d26:	4293      	cmp	r3, r2
    2d28:	dc04      	bgt.n	2d34 <__vfprintf+0x4c4>
    2d2a:	d10e      	bne.n	2d4a <__vfprintf+0x4da>
    2d2c:	9b0a      	ldr	r3, [sp, #40]	; 0x28
    2d2e:	9a24      	ldr	r2, [sp, #144]	; 0x90
    2d30:	4293      	cmp	r3, r2
    2d32:	d90a      	bls.n	2d4a <__vfprintf+0x4da>
    2d34:	68a3      	ldr	r3, [r4, #8]
    2d36:	3b01      	subs	r3, #1
    2d38:	60a3      	str	r3, [r4, #8]
    2d3a:	2b00      	cmp	r3, #0
    2d3c:	db0f      	blt.n	2d5e <__vfprintf+0x4ee>
    2d3e:	6823      	ldr	r3, [r4, #0]
    2d40:	1c5a      	adds	r2, r3, #1
    2d42:	6022      	str	r2, [r4, #0]
    2d44:	9a38      	ldr	r2, [sp, #224]	; 0xe0
    2d46:	5d52      	ldrb	r2, [r2, r5]
    2d48:	701a      	strb	r2, [r3, #0]
    2d4a:	2001      	movs	r0, #1
    2d4c:	9a24      	ldr	r2, [sp, #144]	; 0x90
    2d4e:	9b25      	ldr	r3, [sp, #148]	; 0x94
    2d50:	2100      	movs	r1, #0
    2d52:	1812      	adds	r2, r2, r0
    2d54:	414b      	adcs	r3, r1
    2d56:	3501      	adds	r5, #1
    2d58:	9224      	str	r2, [sp, #144]	; 0x90
    2d5a:	9325      	str	r3, [sp, #148]	; 0x94
    2d5c:	e7a4      	b.n	2ca8 <__vfprintf+0x438>
    2d5e:	9b38      	ldr	r3, [sp, #224]	; 0xe0
    2d60:	0021      	movs	r1, r4
    2d62:	5d58      	ldrb	r0, [r3, r5]
    2d64:	f7ff fb00 	bl	2368 <__flsbuf>
    2d68:	e7ef      	b.n	2d4a <__vfprintf+0x4da>
    2d6a:	9b0b      	ldr	r3, [sp, #44]	; 0x2c
    2d6c:	9a29      	ldr	r2, [sp, #164]	; 0xa4
    2d6e:	4293      	cmp	r3, r2
    2d70:	dc04      	bgt.n	2d7c <__vfprintf+0x50c>
    2d72:	d10d      	bne.n	2d90 <__vfprintf+0x520>
    2d74:	9b0a      	ldr	r3, [sp, #40]	; 0x28
    2d76:	9a28      	ldr	r2, [sp, #160]	; 0xa0
    2d78:	4293      	cmp	r3, r2
    2d7a:	d909      	bls.n	2d90 <__vfprintf+0x520>
    2d7c:	68a3      	ldr	r3, [r4, #8]
    2d7e:	3b01      	subs	r3, #1
    2d80:	60a3      	str	r3, [r4, #8]
    2d82:	2b00      	cmp	r3, #0
    2d84:	db0d      	blt.n	2da2 <__vfprintf+0x532>
    2d86:	6823      	ldr	r3, [r4, #0]
    2d88:	1c5a      	adds	r2, r3, #1
    2d8a:	6022      	str	r2, [r4, #0]
    2d8c:	2220      	movs	r2, #32
    2d8e:	701a      	strb	r2, [r3, #0]
    2d90:	2001      	movs	r0, #1
    2d92:	9a28      	ldr	r2, [sp, #160]	; 0xa0
    2d94:	9b29      	ldr	r3, [sp, #164]	; 0xa4
    2d96:	2100      	movs	r1, #0
    2d98:	1812      	adds	r2, r2, r0
    2d9a:	414b      	adcs	r3, r1
    2d9c:	9228      	str	r2, [sp, #160]	; 0xa0
    2d9e:	9329      	str	r3, [sp, #164]	; 0xa4
    2da0:	e793      	b.n	2cca <__vfprintf+0x45a>
    2da2:	0021      	movs	r1, r4
    2da4:	2020      	movs	r0, #32
    2da6:	f7ff fadf 	bl	2368 <__flsbuf>
    2daa:	e7f1      	b.n	2d90 <__vfprintf+0x520>
    2dac:	2340      	movs	r3, #64	; 0x40
    2dae:	002a      	movs	r2, r5
    2db0:	9f08      	ldr	r7, [sp, #32]
    2db2:	401a      	ands	r2, r3
    2db4:	421d      	tst	r5, r3
    2db6:	d01d      	beq.n	2df4 <__vfprintf+0x584>
    2db8:	2207      	movs	r2, #7
    2dba:	3707      	adds	r7, #7
    2dbc:	4397      	bics	r7, r2
    2dbe:	cf0c      	ldmia	r7!, {r2, r3}
    2dc0:	9204      	str	r2, [sp, #16]
    2dc2:	9305      	str	r3, [sp, #20]
    2dc4:	2380      	movs	r3, #128	; 0x80
    2dc6:	002a      	movs	r2, r5
    2dc8:	401a      	ands	r2, r3
    2dca:	421d      	tst	r5, r3
    2dcc:	d016      	beq.n	2dfc <__vfprintf+0x58c>
    2dce:	466b      	mov	r3, sp
    2dd0:	8a1b      	ldrh	r3, [r3, #16]
    2dd2:	9304      	str	r3, [sp, #16]
    2dd4:	2300      	movs	r3, #0
    2dd6:	9305      	str	r3, [sp, #20]
    2dd8:	4b61      	ldr	r3, [pc, #388]	; (2f60 <__vfprintf+0x6f0>)
    2dda:	469c      	mov	ip, r3
    2ddc:	072b      	lsls	r3, r5, #28
    2dde:	d401      	bmi.n	2de4 <__vfprintf+0x574>
    2de0:	4b60      	ldr	r3, [pc, #384]	; (2f64 <__vfprintf+0x6f4>)
    2de2:	469c      	mov	ip, r3
    2de4:	4b60      	ldr	r3, [pc, #384]	; (2f68 <__vfprintf+0x6f8>)
    2de6:	9338      	str	r3, [sp, #224]	; 0xe0
    2de8:	06eb      	lsls	r3, r5, #27
    2dea:	d400      	bmi.n	2dee <__vfprintf+0x57e>
    2dec:	e08a      	b.n	2f04 <__vfprintf+0x694>
    2dee:	495f      	ldr	r1, [pc, #380]	; (2f6c <__vfprintf+0x6fc>)
    2df0:	400d      	ands	r5, r1
    2df2:	e087      	b.n	2f04 <__vfprintf+0x694>
    2df4:	cf08      	ldmia	r7!, {r3}
    2df6:	9205      	str	r2, [sp, #20]
    2df8:	9304      	str	r3, [sp, #16]
    2dfa:	e7e3      	b.n	2dc4 <__vfprintf+0x554>
    2dfc:	05eb      	lsls	r3, r5, #23
    2dfe:	d5eb      	bpl.n	2dd8 <__vfprintf+0x568>
    2e00:	466b      	mov	r3, sp
    2e02:	7c1b      	ldrb	r3, [r3, #16]
    2e04:	9205      	str	r2, [sp, #20]
    2e06:	9304      	str	r3, [sp, #16]
    2e08:	e7e6      	b.n	2dd8 <__vfprintf+0x568>
    2e0a:	2340      	movs	r3, #64	; 0x40
    2e0c:	002a      	movs	r2, r5
    2e0e:	9f08      	ldr	r7, [sp, #32]
    2e10:	401a      	ands	r2, r3
    2e12:	421d      	tst	r5, r3
    2e14:	d017      	beq.n	2e46 <__vfprintf+0x5d6>
    2e16:	2207      	movs	r2, #7
    2e18:	3707      	adds	r7, #7
    2e1a:	4397      	bics	r7, r2
    2e1c:	cf0c      	ldmia	r7!, {r2, r3}
    2e1e:	9204      	str	r2, [sp, #16]
    2e20:	9305      	str	r3, [sp, #20]
    2e22:	2380      	movs	r3, #128	; 0x80
    2e24:	002a      	movs	r2, r5
    2e26:	401a      	ands	r2, r3
    2e28:	421d      	tst	r5, r3
    2e2a:	d010      	beq.n	2e4e <__vfprintf+0x5de>
    2e2c:	466b      	mov	r3, sp
    2e2e:	8a1b      	ldrh	r3, [r3, #16]
    2e30:	9304      	str	r3, [sp, #16]
    2e32:	2300      	movs	r3, #0
    2e34:	9305      	str	r3, [sp, #20]
    2e36:	4b4e      	ldr	r3, [pc, #312]	; (2f70 <__vfprintf+0x700>)
    2e38:	469c      	mov	ip, r3
    2e3a:	072b      	lsls	r3, r5, #28
    2e3c:	d401      	bmi.n	2e42 <__vfprintf+0x5d2>
    2e3e:	4b49      	ldr	r3, [pc, #292]	; (2f64 <__vfprintf+0x6f4>)
    2e40:	469c      	mov	ip, r3
    2e42:	4b4c      	ldr	r3, [pc, #304]	; (2f74 <__vfprintf+0x704>)
    2e44:	e7cf      	b.n	2de6 <__vfprintf+0x576>
    2e46:	cf08      	ldmia	r7!, {r3}
    2e48:	9205      	str	r2, [sp, #20]
    2e4a:	9304      	str	r3, [sp, #16]
    2e4c:	e7e9      	b.n	2e22 <__vfprintf+0x5b2>
    2e4e:	05eb      	lsls	r3, r5, #23
    2e50:	d5f1      	bpl.n	2e36 <__vfprintf+0x5c6>
    2e52:	466b      	mov	r3, sp
    2e54:	7c1b      	ldrb	r3, [r3, #16]
    2e56:	9205      	str	r2, [sp, #20]
    2e58:	9304      	str	r3, [sp, #16]
    2e5a:	e7ec      	b.n	2e36 <__vfprintf+0x5c6>
    2e5c:	9f08      	ldr	r7, [sp, #32]
    2e5e:	cf08      	ldmia	r7!, {r3}
    2e60:	9304      	str	r3, [sp, #16]
    2e62:	2300      	movs	r3, #0
    2e64:	9305      	str	r3, [sp, #20]
    2e66:	4b43      	ldr	r3, [pc, #268]	; (2f74 <__vfprintf+0x704>)
    2e68:	9338      	str	r3, [sp, #224]	; 0xe0
    2e6a:	4b41      	ldr	r3, [pc, #260]	; (2f70 <__vfprintf+0x700>)
    2e6c:	469c      	mov	ip, r3
    2e6e:	e049      	b.n	2f04 <__vfprintf+0x694>
    2e70:	2340      	movs	r3, #64	; 0x40
    2e72:	002a      	movs	r2, r5
    2e74:	9f08      	ldr	r7, [sp, #32]
    2e76:	401a      	ands	r2, r3
    2e78:	421d      	tst	r5, r3
    2e7a:	d016      	beq.n	2eaa <__vfprintf+0x63a>
    2e7c:	2207      	movs	r2, #7
    2e7e:	3707      	adds	r7, #7
    2e80:	4397      	bics	r7, r2
    2e82:	cf0c      	ldmia	r7!, {r2, r3}
    2e84:	9204      	str	r2, [sp, #16]
    2e86:	9305      	str	r3, [sp, #20]
    2e88:	2380      	movs	r3, #128	; 0x80
    2e8a:	002a      	movs	r2, r5
    2e8c:	401a      	ands	r2, r3
    2e8e:	421d      	tst	r5, r3
    2e90:	d00f      	beq.n	2eb2 <__vfprintf+0x642>
    2e92:	466b      	mov	r3, sp
    2e94:	8a1b      	ldrh	r3, [r3, #16]
    2e96:	9304      	str	r3, [sp, #16]
    2e98:	2300      	movs	r3, #0
    2e9a:	9305      	str	r3, [sp, #20]
    2e9c:	4b36      	ldr	r3, [pc, #216]	; (2f78 <__vfprintf+0x708>)
    2e9e:	469c      	mov	ip, r3
    2ea0:	072b      	lsls	r3, r5, #28
    2ea2:	d500      	bpl.n	2ea6 <__vfprintf+0x636>
    2ea4:	e0ad      	b.n	3002 <__vfprintf+0x792>
    2ea6:	4b2f      	ldr	r3, [pc, #188]	; (2f64 <__vfprintf+0x6f4>)
    2ea8:	e08f      	b.n	2fca <__vfprintf+0x75a>
    2eaa:	cf08      	ldmia	r7!, {r3}
    2eac:	9205      	str	r2, [sp, #20]
    2eae:	9304      	str	r3, [sp, #16]
    2eb0:	e7ea      	b.n	2e88 <__vfprintf+0x618>
    2eb2:	05eb      	lsls	r3, r5, #23
    2eb4:	d5f2      	bpl.n	2e9c <__vfprintf+0x62c>
    2eb6:	466b      	mov	r3, sp
    2eb8:	7c1b      	ldrb	r3, [r3, #16]
    2eba:	9205      	str	r2, [sp, #20]
    2ebc:	9304      	str	r3, [sp, #16]
    2ebe:	e7ed      	b.n	2e9c <__vfprintf+0x62c>
    2ec0:	2340      	movs	r3, #64	; 0x40
    2ec2:	002a      	movs	r2, r5
    2ec4:	9f08      	ldr	r7, [sp, #32]
    2ec6:	401a      	ands	r2, r3
    2ec8:	421d      	tst	r5, r3
    2eca:	d057      	beq.n	2f7c <__vfprintf+0x70c>
    2ecc:	2207      	movs	r2, #7
    2ece:	3707      	adds	r7, #7
    2ed0:	4397      	bics	r7, r2
    2ed2:	cf0c      	ldmia	r7!, {r2, r3}
    2ed4:	9204      	str	r2, [sp, #16]
    2ed6:	9305      	str	r3, [sp, #20]
    2ed8:	2380      	movs	r3, #128	; 0x80
    2eda:	002a      	movs	r2, r5
    2edc:	401a      	ands	r2, r3
    2ede:	421d      	tst	r5, r3
    2ee0:	d050      	beq.n	2f84 <__vfprintf+0x714>
    2ee2:	466b      	mov	r3, sp
    2ee4:	8a1b      	ldrh	r3, [r3, #16]
    2ee6:	9304      	str	r3, [sp, #16]
    2ee8:	2300      	movs	r3, #0
    2eea:	9305      	str	r3, [sp, #20]
    2eec:	2110      	movs	r1, #16
    2eee:	002b      	movs	r3, r5
    2ef0:	481c      	ldr	r0, [pc, #112]	; (2f64 <__vfprintf+0x6f4>)
    2ef2:	400b      	ands	r3, r1
    2ef4:	4684      	mov	ip, r0
    2ef6:	9338      	str	r3, [sp, #224]	; 0xe0
    2ef8:	420d      	tst	r5, r1
    2efa:	d003      	beq.n	2f04 <__vfprintf+0x694>
    2efc:	4b1b      	ldr	r3, [pc, #108]	; (2f6c <__vfprintf+0x6fc>)
    2efe:	401d      	ands	r5, r3
    2f00:	2300      	movs	r3, #0
    2f02:	9338      	str	r3, [sp, #224]	; 0xe0
    2f04:	9b06      	ldr	r3, [sp, #24]
    2f06:	980a      	ldr	r0, [sp, #40]	; 0x28
    2f08:	990b      	ldr	r1, [sp, #44]	; 0x2c
    2f0a:	933e      	str	r3, [sp, #248]	; 0xf8
    2f0c:	17db      	asrs	r3, r3, #31
    2f0e:	933f      	str	r3, [sp, #252]	; 0xfc
    2f10:	9a3e      	ldr	r2, [sp, #248]	; 0xf8
    2f12:	9b3f      	ldr	r3, [sp, #252]	; 0xfc
    2f14:	1a80      	subs	r0, r0, r2
    2f16:	4199      	sbcs	r1, r3
    2f18:	2201      	movs	r2, #1
    2f1a:	9b0c      	ldr	r3, [sp, #48]	; 0x30
    2f1c:	4252      	negs	r2, r2
    2f1e:	9340      	str	r3, [sp, #256]	; 0x100
    2f20:	4663      	mov	r3, ip
    2f22:	9008      	str	r0, [sp, #32]
    2f24:	9109      	str	r1, [sp, #36]	; 0x24
    2f26:	9242      	str	r2, [sp, #264]	; 0x108
    2f28:	9243      	str	r2, [sp, #268]	; 0x10c
    2f2a:	2055      	movs	r0, #85	; 0x55
    2f2c:	2200      	movs	r2, #0
    2f2e:	9341      	str	r3, [sp, #260]	; 0x104
    2f30:	a946      	add	r1, sp, #280	; 0x118
    2f32:	5450      	strb	r0, [r2, r1]
    2f34:	3201      	adds	r2, #1
    2f36:	2a20      	cmp	r2, #32
    2f38:	d1fb      	bne.n	2f32 <__vfprintf+0x6c2>
    2f3a:	2282      	movs	r2, #130	; 0x82
    2f3c:	00d2      	lsls	r2, r2, #3
    2f3e:	4215      	tst	r5, r2
    2f40:	d101      	bne.n	2f46 <__vfprintf+0x6d6>
    2f42:	2201      	movs	r2, #1
    2f44:	9240      	str	r2, [sp, #256]	; 0x100
    2f46:	2e6e      	cmp	r6, #110	; 0x6e
    2f48:	dc65      	bgt.n	3016 <__vfprintf+0x7a6>
    2f4a:	2e47      	cmp	r6, #71	; 0x47
    2f4c:	dd00      	ble.n	2f50 <__vfprintf+0x6e0>
    2f4e:	e092      	b.n	3076 <__vfprintf+0x806>
    2f50:	2e40      	cmp	r6, #64	; 0x40
    2f52:	dd00      	ble.n	2f56 <__vfprintf+0x6e6>
    2f54:	e083      	b.n	305e <__vfprintf+0x7ee>
    2f56:	2300      	movs	r3, #0
    2f58:	930c      	str	r3, [sp, #48]	; 0x30
    2f5a:	e092      	b.n	3082 <__vfprintf+0x812>
    2f5c:	000050a9 	.word	0x000050a9
    2f60:	000050b0 	.word	0x000050b0
    2f64:	000050a4 	.word	0x000050a4
    2f68:	000050bc 	.word	0x000050bc
    2f6c:	fffffdff 	.word	0xfffffdff
    2f70:	000050b3 	.word	0x000050b3
    2f74:	000050cd 	.word	0x000050cd
    2f78:	000050b6 	.word	0x000050b6
    2f7c:	cf08      	ldmia	r7!, {r3}
    2f7e:	9205      	str	r2, [sp, #20]
    2f80:	9304      	str	r3, [sp, #16]
    2f82:	e7a9      	b.n	2ed8 <__vfprintf+0x668>
    2f84:	05eb      	lsls	r3, r5, #23
    2f86:	d5b1      	bpl.n	2eec <__vfprintf+0x67c>
    2f88:	466b      	mov	r3, sp
    2f8a:	7c1b      	ldrb	r3, [r3, #16]
    2f8c:	9205      	str	r2, [sp, #20]
    2f8e:	9304      	str	r3, [sp, #16]
    2f90:	e7ac      	b.n	2eec <__vfprintf+0x67c>
    2f92:	9f08      	ldr	r7, [sp, #32]
    2f94:	066b      	lsls	r3, r5, #25
    2f96:	d51a      	bpl.n	2fce <__vfprintf+0x75e>
    2f98:	2207      	movs	r2, #7
    2f9a:	3707      	adds	r7, #7
    2f9c:	4397      	bics	r7, r2
    2f9e:	cf0c      	ldmia	r7!, {r2, r3}
    2fa0:	920e      	str	r2, [sp, #56]	; 0x38
    2fa2:	930f      	str	r3, [sp, #60]	; 0x3c
    2fa4:	062b      	lsls	r3, r5, #24
    2fa6:	d517      	bpl.n	2fd8 <__vfprintf+0x768>
    2fa8:	466b      	mov	r3, sp
    2faa:	2238      	movs	r2, #56	; 0x38
    2fac:	5e9b      	ldrsh	r3, [r3, r2]
    2fae:	930e      	str	r3, [sp, #56]	; 0x38
    2fb0:	17db      	asrs	r3, r3, #31
    2fb2:	930f      	str	r3, [sp, #60]	; 0x3c
    2fb4:	9b0f      	ldr	r3, [sp, #60]	; 0x3c
    2fb6:	2b00      	cmp	r3, #0
    2fb8:	da16      	bge.n	2fe8 <__vfprintf+0x778>
    2fba:	980e      	ldr	r0, [sp, #56]	; 0x38
    2fbc:	990f      	ldr	r1, [sp, #60]	; 0x3c
    2fbe:	2300      	movs	r3, #0
    2fc0:	4242      	negs	r2, r0
    2fc2:	418b      	sbcs	r3, r1
    2fc4:	9204      	str	r2, [sp, #16]
    2fc6:	9305      	str	r3, [sp, #20]
    2fc8:	4bc5      	ldr	r3, [pc, #788]	; (32e0 <__vfprintf+0xa70>)
    2fca:	469c      	mov	ip, r3
    2fcc:	e019      	b.n	3002 <__vfprintf+0x792>
    2fce:	cf08      	ldmia	r7!, {r3}
    2fd0:	930e      	str	r3, [sp, #56]	; 0x38
    2fd2:	17db      	asrs	r3, r3, #31
    2fd4:	930f      	str	r3, [sp, #60]	; 0x3c
    2fd6:	e7e5      	b.n	2fa4 <__vfprintf+0x734>
    2fd8:	05eb      	lsls	r3, r5, #23
    2fda:	d5eb      	bpl.n	2fb4 <__vfprintf+0x744>
    2fdc:	466b      	mov	r3, sp
    2fde:	2238      	movs	r2, #56	; 0x38
    2fe0:	189b      	adds	r3, r3, r2
    2fe2:	781b      	ldrb	r3, [r3, #0]
    2fe4:	b25b      	sxtb	r3, r3
    2fe6:	e7e2      	b.n	2fae <__vfprintf+0x73e>
    2fe8:	9a0e      	ldr	r2, [sp, #56]	; 0x38
    2fea:	9b0f      	ldr	r3, [sp, #60]	; 0x3c
    2fec:	9204      	str	r2, [sp, #16]
    2fee:	9305      	str	r3, [sp, #20]
    2ff0:	4bbc      	ldr	r3, [pc, #752]	; (32e4 <__vfprintf+0xa74>)
    2ff2:	469c      	mov	ip, r3
    2ff4:	07ab      	lsls	r3, r5, #30
    2ff6:	d404      	bmi.n	3002 <__vfprintf+0x792>
    2ff8:	4bbb      	ldr	r3, [pc, #748]	; (32e8 <__vfprintf+0xa78>)
    2ffa:	469c      	mov	ip, r3
    2ffc:	076b      	lsls	r3, r5, #29
    2ffe:	d400      	bmi.n	3002 <__vfprintf+0x792>
    3000:	e751      	b.n	2ea6 <__vfprintf+0x636>
    3002:	2300      	movs	r3, #0
    3004:	e6ef      	b.n	2de6 <__vfprintf+0x576>
    3006:	2310      	movs	r3, #16
    3008:	421d      	tst	r5, r3
    300a:	d000      	beq.n	300e <__vfprintf+0x79e>
    300c:	e58f      	b.n	2b2e <__vfprintf+0x2be>
    300e:	431d      	orrs	r5, r3
    3010:	3b03      	subs	r3, #3
    3012:	930c      	str	r3, [sp, #48]	; 0x30
    3014:	e58b      	b.n	2b2e <__vfprintf+0x2be>
    3016:	0030      	movs	r0, r6
    3018:	386f      	subs	r0, #111	; 0x6f
    301a:	2809      	cmp	r0, #9
    301c:	d89b      	bhi.n	2f56 <__vfprintf+0x6e6>
    301e:	f001 f92e 	bl	427e <__gnu_thumb1_case_shi>
    3022:	00cc      	.short	0x00cc
    3024:	ff9a00b2 	.word	0xff9a00b2
    3028:	ff9aff9a 	.word	0xff9aff9a
    302c:	0147ff9a 	.word	0x0147ff9a
    3030:	ff9aff9a 	.word	0xff9aff9a
    3034:	00b2      	.short	0x00b2
    3036:	f001 f922 	bl	427e <__gnu_thumb1_case_shi>
    303a:	00a6      	.short	0x00a6
    303c:	ff8eff8e 	.word	0xff8eff8e
    3040:	ff8eff8e 	.word	0xff8eff8e
    3044:	ff8eff8e 	.word	0xff8eff8e
    3048:	ff8eff8e 	.word	0xff8eff8e
    304c:	ff8e013d 	.word	0xff8e013d
    3050:	013bff8e 	.word	0x013bff8e
    3054:	013d013d 	.word	0x013d013d
    3058:	ff8e013d 	.word	0xff8e013d
    305c:	013b      	.short	0x013b
    305e:	0032      	movs	r2, r6
    3060:	2301      	movs	r3, #1
    3062:	3a41      	subs	r2, #65	; 0x41
    3064:	4093      	lsls	r3, r2
