
C:\Users\itssh\Documents\MCUXpressoIDE_11.6.0_8187\workspace\PBKDF2\PBK\Debug\PBK.axf:     file format elf32-littlearm
C:\Users\itssh\Documents\MCUXpressoIDE_11.6.0_8187\workspace\PBKDF2\PBK\Debug\PBK.axf
architecture: armv6s-m, flags 0x00000112:
EXEC_P, HAS_SYMS, D_PAGED
start address 0x000000d5

Program Header:
    LOAD off    0x00010000 vaddr 0x00000000 paddr 0x00000000 align 2**16
         filesz 0x00005210 memsz 0x00005210 flags r-x
    LOAD off    0x0001f080 vaddr 0x1ffff080 paddr 0x00005210 align 2**16
         filesz 0x00000008 memsz 0x00000008 flags rw-
    LOAD off    0x0000f000 vaddr 0x1ffff000 paddr 0x1ffff000 align 2**16
         filesz 0x00000000 memsz 0x00003804 flags rw-
private flags = 0x5000200: [Version5 EABI] [soft-float ABI]

Sections:
Idx Name          Size      VMA       LMA       File off  Algn
  0 .text         00005210  00000000  00000000  00010000  2**2
                  CONTENTS, ALLOC, LOAD, READONLY, CODE
  1 .data         00000008  1ffff080  00005210  0001f080  2**2
                  CONTENTS, ALLOC, LOAD, DATA
  2 .bss          0000137c  1ffff088  1ffff088  0002f000  2**2
                  ALLOC
  3 .mtb_buffer_default 00000080  1ffff000  1ffff000  0002f000  2**7
                  ALLOC
  4 .uninit_RESERVED 00000000  1ffff080  1ffff080  0001f088  2**2
                  CONTENTS
  5 .noinit       00000000  20000404  20000404  00000000  2**2
                  ALLOC
  6 .heap         00000400  20000404  20000404  0002f000  2**2
                  ALLOC
  7 .heap2stackfill 00002000  20000804  20000804  0002f000  2**0
                  ALLOC
  8 .stack        00000000  20001000  20001000  0001f088  2**2
                  CONTENTS
  9 .debug_info   00007ab6  00000000  00000000  0001f088  2**0
                  CONTENTS, READONLY, DEBUGGING, OCTETS
 10 .debug_abbrev 0000195f  00000000  00000000  00026b3e  2**0
                  CONTENTS, READONLY, DEBUGGING, OCTETS
 11 .debug_aranges 00000850  00000000  00000000  0002849d  2**0
                  CONTENTS, READONLY, DEBUGGING, OCTETS
 12 .debug_ranges 00000738  00000000  00000000  00028ced  2**0
                  CONTENTS, READONLY, DEBUGGING, OCTETS
 13 .debug_macro  00008f03  00000000  00000000  00029425  2**0
                  CONTENTS, READONLY, DEBUGGING, OCTETS
 14 .debug_line   000058f1  00000000  00000000  00032328  2**0
                  CONTENTS, READONLY, DEBUGGING, OCTETS
 15 .debug_str    00035e1b  00000000  00000000  00037c19  2**0
                  CONTENTS, READONLY, DEBUGGING, OCTETS
 16 .comment      00000049  00000000  00000000  0006da34  2**0
                  CONTENTS, READONLY
 17 .ARM.attributes 0000002a  00000000  00000000  0006da7d  2**0
                  CONTENTS, READONLY
 18 .debug_frame  00001a08  00000000  00000000  0006daa8  2**2
                  CONTENTS, READONLY, DEBUGGING, OCTETS
SYMBOL TABLE:
00000000 l    d  .text	00000000 .text
1ffff080 l    d  .data	00000000 .data
1ffff088 l    d  .bss	00000000 .bss
1ffff000 l    d  .mtb_buffer_default	00000000 .mtb_buffer_default
1ffff080 l    d  .uninit_RESERVED	00000000 .uninit_RESERVED
20000404 l    d  .noinit	00000000 .noinit
20000404 l    d  .heap	00000000 .heap
20000804 l    d  .heap2stackfill	00000000 .heap2stackfill
20001000 l    d  .stack	00000000 .stack
00000000 l    d  .debug_info	00000000 .debug_info
00000000 l    d  .debug_abbrev	00000000 .debug_abbrev
00000000 l    d  .debug_aranges	00000000 .debug_aranges
00000000 l    d  .debug_ranges	00000000 .debug_ranges
00000000 l    d  .debug_macro	00000000 .debug_macro
00000000 l    d  .debug_line	00000000 .debug_line
00000000 l    d  .debug_str	00000000 .debug_str
00000000 l    d  .comment	00000000 .comment
00000000 l    d  .ARM.attributes	00000000 .ARM.attributes
00000000 l    d  .debug_frame	00000000 .debug_frame
00000000 l    df *ABS*	00000000 startup_mkl25z4.c
00000000 l    df *ABS*	00000000 fsl_debug_console.c
00003ad8 l     F .text	00000040 UART_EnableTx
00003b18 l     F .text	00000040 UART_EnableRx
00003b58 l     F .text	00000040 LPSCI_EnableTx
00003b98 l     F .text	00000040 LPSCI_EnableRx
1ffff088 l     O .bss	00000010 s_debugConsole
00000000 l    df *ABS*	00000000 isha.c
00003bd8 l     F .text	000000de ISHAProcessMessageBlock
00003cb6 l     F .text	000000ca ISHAPadMessage
00000000 l    df *ABS*	00000000 main.c
000005b8 l     F .text	00000154 time_pbkdf2_hmac_isha
00004558 l     O .text	00000016 __FUNCTION__.0
0000070c l     F .text	00000078 run_tests
00000000 l    df *ABS*	00000000 pbkdf2.c
000007d0 l     F .text	00000320 F
1ffff098 l     O .bss	00000800 saltplus.1
1ffff898 l     O .bss	00000a00 accumulator.0
00000000 l    df *ABS*	00000000 pbkdf2_test.c
00000b90 l     F .text	00000070 hexdigit_to_int
00004f34 l     O .text	0000000a __FUNCTION__.2
00004f40 l     O .text	0000000f __FUNCTION__.1
00004f50 l     O .text	00000016 __FUNCTION__.0
00000000 l    df *ABS*	00000000 semihost_hardfault.c
00001182 l       .text	00000000 _MSP
00001186 l       .text	00000000 _process
00001192 l       .text	00000000 _semihost_return
00000000 l    df *ABS*	00000000 ticktime.c
000011a4 l     F .text	0000002c NVIC_EnableIRQ
000011d0 l     F .text	00000030 NVIC_ClearPendingIRQ
00001200 l     F .text	000000dc NVIC_SetPriority
20000298 l     O .bss	00000004 g_now
2000029c l     O .bss	00000004 g_timer
00000000 l    df *ABS*	00000000 fsl_clock.c
00001394 l     F .text	00000034 CLOCK_SetEr32kClock
000013c8 l     F .text	00000038 CLOCK_SetPllFllSelClock
000040d2 l     F .text	0000003e OSC_SetExtRefClkConfig
00004110 l     F .text	00000042 OSC_SetCapLoad
1ffff080 l     O .data	00000004 s_slowIrcFreq
00001400 l     F .text	00000028 CLOCK_GetMcgExtClkFreq
00001428 l     F .text	000000a8 CLOCK_GetFllExtRefClkFreq
000014d0 l     F .text	0000002c CLOCK_GetFllRefClkFreq
00004152 l     F .text	00000010 CLOCK_GetPll0RefFreq
000014fc l     F .text	0000004c CLOCK_GetOscRangeFromFreq
00004ffc l     O .text	00000010 fllFactorTable.1
00000000 l    df *ABS*	00000000 fsl_lpsci.c
00001a2c l     F .text	00000034 CLOCK_EnableClock
200002a4 l     O .bss	00000004 s_lpsciHandle
200002a8 l     O .bss	00000004 s_lpsciIsr
00000000 l    df *ABS*	00000000 fsl_uart.c
00001f08 l     F .text	00000034 CLOCK_EnableClock
200002ac l     O .bss	0000000c s_uartHandle
000050d4 l     O .text	0000000c s_uartBases
000050e0 l     O .text	0000000c s_uartClock
200002b8 l     O .bss	00000004 s_uartIsr
00000000 l    df *ABS*	00000000 board.c
00002294 l     F .text	00000038 CLOCK_SetLpsci0Clock
00000000 l    df *ABS*	00000000 clock_config.c
000022fc l     F .text	00000020 CLOCK_SetSimSafeDivs
0000231c l     F .text	0000001c CLOCK_SetXtal0Freq
00002338 l     F .text	0000003c CLOCK_CONFIG_SetFllExtRefDiv
00000000 l    df *ABS*	00000000 pin_mux.c
000023d8 l     F .text	00000034 CLOCK_EnableClock
0000240c l     F .text	00000040 PORT_SetPinMux
00000000 l    df *ABS*	00000000 system_MKL25Z4.c
00000000 l    df *ABS*	00000000 _cr_assert.c
00000000 l    df *ABS*	00000000 __sys_appexit.o
00000000 l    df *ABS*	00000000 _deferredlazyseek.c
00000000 l    df *ABS*	00000000 _fflush.c
00000000 l    df *ABS*	00000000 _writebuf.c
00000000 l    df *ABS*	00000000 alloc.c
00000000 l    df *ABS*	00000000 fseek.c
00000000 l    df *ABS*	00000000 ftell.c
00000000 l    df *ABS*	00000000 initio.c
00000000 l    df *ABS*	00000000 printf.c
0000429c l     F .text	00000004 no_fp_display
00000000 l    df *ABS*	00000000 setvbuf.c
00000000 l    df *ABS*	00000000 stdlib.c
00000000 l    df *ABS*	00000000 strlen.c
00000000 l    df *ABS*	00000000 _cr_sbrk.c
00000000 l    df *ABS*	00000000 _fdopen.c
00000000 l    df *ABS*	00000000 fclose.c
00000000 l    df *ABS*	00000000 fflush.c
00000000 l    df *ABS*	00000000 _cr_check_heap.c
00000000 l    df *ABS*	00000000 _do_fflush.c
00000000 l    df *ABS*	00000000 peripherals.c
00000000 l    df *ABS*	00000000 _cr__main.c
00000000 l    df *ABS*	00000000 memcpy.c
00000000 l    df *ABS*	00000000 memset.c
00000000 l    df *ABS*	00000000 fputs.c
00000000 l    df *ABS*	00000000 remove.c
00000000 l    df *ABS*	00000000 division_32.o
000042fc l       .text	00000000 idiv_negative
00004320 l       .text	00000000 idiv_divzero
000042c8 l       .text	00000000 div_search4a
000042c4 l       .text	00000000 div_search4
000042d4 l       .text	00000000 div_search1a
000042d0 l       .text	00000000 div_search1
000042dc l       .text	00000000 div_loop1a
000042da l       .text	00000000 div_loop1
000042f0 l       .text	00000000 div1
000042e0 l       .text	00000000 div2
000042ea l       .text	00000000 div_loop2
00004302 l       .text	00000000 idiv_neg1
00004308 l       .text	00000000 idiv_neg2
00004312 l       .text	00000000 idiv_sign
00004318 l       .text	00000000 idiv_sign1
0000431e l       .text	00000000 idiv_ret
00000000 l    df *ABS*	00000000 division_idiv0.o
00000000 l    df *ABS*	00000000 llong.o
00000000 l    df *ABS*	00000000 memcpy.o
00004372 l       .text	00000000 copy1_start
00004368 l       .text	00000000 copy4
00004382 l       .text	00000000 copy1_ret
0000437a l       .text	00000000 copy1
000043a0 l       .text	00000000 memset1
0000439a l       .text	00000000 memset4
000043ac l       .text	00000000 memset1_ret
000043a4 l       .text	00000000 memset1a
00000000 l    df *ABS*	00000000 thumb1_switch_helpers.o
00000000 l    df *ABS*	00000000 __sys_close.o
00000000 l    df *ABS*	00000000 __sys_flen.o
00000000 l    df *ABS*	00000000 __sys_istty.o
00000000 l    df *ABS*	00000000 __sys_remove.o
00000000 l    df *ABS*	00000000 __sys_seek.o
00000000 l    df *ABS*	00000000 __sys_tmpnam.o
00000000 l    df *ABS*	00000000 __ciob.c
00000000 l    df *ABS*	00000000 mtb.c
00004226 g     F .text	0000000c __main
00000400 g       .text	00000000 __FLASH_CONFIG_START__
00000000 g     O .text	000000c0 __Vectors
00002508 g     F .text	00000040 _deferredlazyseek
0000014c  w    F .text	00000002 PIT_DriverIRQHandler
0000014c  w    F .text	00000002 Reserved39_DriverIRQHandler
00001dd8 g     F .text	0000004c LPSCI_WriteBlocking
000000c0 g       .text	00000000 __section_table_start
000024fc g     F .text	00000000 __exit
0000018e  w    F .text	00000008 I2C0_IRQHandler
000043fc g     F .text	00000000 __sys_tmpnam
00000e3c g     F .text	00000110 test_hmac_isha
0000014c  w    F .text	00000002 DMA0_DriverIRQHandler
000022cc g     F .text	00000030 BOARD_InitDebugConsole
00001174 g     F .text	0000002a HardFault_Handler
0000014c  w    F .text	00000002 SPI1_DriverIRQHandler
00000000 g       *ABS*	00000000 __vectors_start__
00000400 g       *ABS*	00000000 _HeapSize
0000014c  w    F .text	00000002 LPTMR0_DriverIRQHandler
00001344 g     F .text	00000018 SysTick_Handler
00003790 g     F .text	00000070 _vsnprintf
00001aa8 g     F .text	00000258 LPSCI_Init
00000af0 g     F .text	000000a0 pbkdf2_hmac_isha
00000148  w    F .text	00000002 PendSV_Handler
00000142  w    F .text	00000002 NMI_Handler
00005218 g       .noinit	00000000 __exidx_end
000000cc g       .text	00000000 __data_section_table_end
00001a60 g     F .text	00000048 LPSCI_GetInstance
00000196  w    F .text	00000008 I2C1_IRQHandler
000001b6  w    F .text	00000008 UART1_IRQHandler
00002548 g     F .text	00000150 __flsbuf
0000015e  w    F .text	00000008 DMA2_IRQHandler
0000014c  w    F .text	00000002 TPM2_DriverIRQHandler
20003000 g       *ABS*	00000000 __top_SRAM
000001d6  w    F .text	00000008 TPM0_IRQHandler
20000400 g     O .bss	00000004 errno
00005210 g       .text	00000000 _etext
0000135c g     F .text	0000001c reset_timer
00001f90 g     F .text	000001e0 UART_Init
00000186  w    F .text	00000008 LLWU_IRQHandler
0000014c  w    F .text	00000002 TSI0_DriverIRQHandler
00003eb0 g     F .text	0000008e ISHAInput
0000014c  w    F .text	00000002 RTC_Seconds_DriverIRQHandler
0000021e  w    F .text	00000008 TSI0_IRQHandler
00004226  w    F .text	0000000c __CR_SEMIHOST
00002000 g       *ABS*	00000000 _StackSize
000001ae  w    F .text	00000008 UART0_IRQHandler
00004200 g     F .text	0000000e BOARD_InitBootClocks
00000132 g     F .text	00000010 bss_init
0000014c  w    F .text	00000002 LLWU_DriverIRQHandler
00004232 g     F .text	00000008 memcpy
00003850 g     F .text	0000004c setvbuf
00001d00 g     F .text	00000044 LPSCI_GetDefaultConfig
20000404 g       .noinit	00000000 _noinit
0000014c  w    F .text	00000002 MCG_DriverIRQHandler
1ffff084 g     O .data	00000004 SystemCoreClock
00020000 g       *ABS*	00000000 __top_PROGRAM_FLASH
000001c6  w    F .text	00000008 ADC0_IRQHandler
00002760 g     F .text	000000cc malloc
000042a0 g     F .text	00000012 remove
00000206  w    F .text	00000008 Reserved39_IRQHandler
20003000 g       *ABS*	00000000 __top_RAM
00000c00 g     F .text	0000023c test_isha
0000435a g     F .text	0000002c __aeabi_memcpy
0000224c g     F .text	00000024 UART1_DriverIRQHandler
000043cc g     F .text	00000000 __sys_flen
000001a6  w    F .text	00000008 SPI1_IRQHandler
0000014c  w    F .text	00000002 FTFA_DriverIRQHandler
0000014c  w    F .text	00000002 IntDefaultHandler
0000014c  w    F .text	00000002 USB0_DriverIRQHandler
20000804 g       .heap	00000000 _pvHeapLimit
00003a34 g     F .text	00000044 fflush
0000014c  w    F .text	00000002 DAC0_DriverIRQHandler
00000246  w    F .text	00000008 PORTD_IRQHandler
00005218 g       .noinit	00000000 __exidx_start
000024b0 g     F .text	0000004c __assertion_failed
0000435a g     F .text	0000002c __aeabi_memcpy4
0000432c g     F .text	0000002e __aeabi_lmul
00003964 g     F .text	00000074 _fdopen
00004386 g     F .text	0000002a __aeabi_lowlevel_memset
1ffff000 g       *ABS*	00000000 __base_SRAM
00003920 g     F .text	00000044 _sbrk
0000014c  w    F .text	00000002 LVD_LVW_DriverIRQHandler
00001378 g     F .text	0000001c get_timer
0000014c  w    F .text	00000002 TPM0_DriverIRQHandler
000001e6  w    F .text	00000008 TPM2_IRQHandler
000019bc g     F .text	00000070 CLOCK_BootToPeeMode
000000c0 g       .text	00000000 __data_section_table
000051a4 g     O .text	00000004 __num_Ciob_streams
00000410 g       .text	00000000 __FLASH_CONFIG_END__
000001ee  w    F .text	00000008 RTC_IRQHandler
20000404 g       .bss	00000000 _ebss
00003d80 g     F .text	00000130 ISHAResult
00005218 g       *ABS*	00000000 _image_size
00002a50 g     F .text	00000d40 __vfprintf
0000014c  w    F .text	00000002 Reserved20_DriverIRQHandler
0000014c  w    F .text	00000002 DMA3_DriverIRQHandler
0000190c g     F .text	000000b0 CLOCK_SetPbeMode
20000370 g     O .bss	00000084 _exitvector
00000120 g     F .text	00000012 data_init
0000435a g     F .text	0000002c __aeabi_memcpy8
00002a00 g     F .text	00000050 _terminateio
000001f6  w    F .text	00000008 RTC_Seconds_IRQHandler
0000014c  w    F .text	00000002 Reserved45_DriverIRQHandler
000042b2 g     F .text	00000006 __aeabi_idiv
00002374 g     F .text	00000064 BOARD_BootClockRUN
00000226  w    F .text	00000008 MCG_IRQHandler
000001be  w    F .text	00000008 UART2_IRQHandler
0000284c g     F .text	000000f0 fseek
00001548 g     F .text	0000004c CLOCK_GetPllFllSelClkFreq
00000000 g       *ABS*	00000000 __base_Flash
0000244c g     F .text	0000004c BOARD_InitPins
00002698 g     F .text	00000060 _fflush
0000016e  w    F .text	00000008 Reserved20_IRQHandler
000043b0 g     F .text	00000010 __gnu_thumb1_case_shi
00001e24 g     F .text	000000c0 LPSCI_ReadBlocking
00002170 g     F .text	00000044 UART_GetDefaultConfig
1ffff088 g       .bss	00000000 _bss
00001f3c g     F .text	00000054 UART_GetInstance
0000519c g     O .text	00000008 oscConfig_BOARD_BootClockRUN
0000014c  w    F .text	00000002 PORTA_DriverIRQHandler
0000014c  w    F .text	00000002 TPM1_DriverIRQHandler
00000f4c g     F .text	00000228 test_pbkdf2_hmac_isha
00001d44 g     F .text	00000094 LPSCI_ClearStatusFlags
00000000 g       *ABS*	00000000 _image_start
00020000 g       *ABS*	00000000 __top_Flash
20000404 g       .noinit	00000000 _end_noinit
20003000 g       .stack	00000000 _vStackTop
000000d4 g       .text	00000000 __bss_section_table_end
00003a78 g     F .text	00000018 __check_heap_overflow
0000014c  w    F .text	00000002 RTC_DriverIRQHandler
00000000 g       *ABS*	00000000 __base_PROGRAM_FLASH
0000020e  w    F .text	00000008 USB0_IRQHandler
000017e4 g     F .text	00000094 CLOCK_EnablePll0
00000504  w    F .text	00000058 __sys_write
0000423a g     F .text	00000008 memset
00000784 g     F .text	0000004c main
00003a90 g     F .text	00000048 _do_fflush
0000293c g     F .text	00000048 ftell
000001fe  w    F .text	00000008 PIT_IRQHandler
000042b8 g     F .text	00000072 __aeabi_uidiv
00000146  w    F .text	00000002 SVC_Handler
000039d8 g     F .text	0000005c fclose
00001650 g     F .text	00000070 CLOCK_GetPll0Freq
00004218 g     F .text	0000000e BOARD_InitBootPins
00002270 g     F .text	00000024 UART2_DriverIRQHandler
000043f0 g     F .text	00000000 __sys_seek
00004162 g     F .text	00000016 CLOCK_SetExternalRefClkConfig
00001878 g     F .text	00000094 CLOCK_InitOsc0
0000014c  w    F .text	00000002 DMA1_DriverIRQHandler
00000166  w    F .text	00000008 DMA3_IRQHandler
000021b4 g     F .text	00000098 UART_ReadBlocking
00002498 g     F .text	00000018 SystemInit
0000014e  w    F .text	00000008 DMA0_IRQHandler
0000419e g     F .text	00000026 UART_GetStatusFlags
000000cc g       .text	00000000 __bss_section_table
0000014c  w    F .text	00000002 I2C1_DriverIRQHandler
000016c0 g     F .text	00000124 CLOCK_SetInternalRefClkConfig
000043c0 g     F .text	00000000 __sys_close
0000402c g     F .text	00000042 cmp_bin
00000216  w    F .text	00000008 DAC0_IRQHandler
1ffff080 g       .uninit_RESERVED	00000000 _end_uninit_RESERVED
1ffff080 g       .uninit_RESERVED	00000000 _start_uninit_RESERVED
000026f8 g     F .text	00000068 _Cwritebuf
00003f3e g     F .text	000000ee hmac_isha
000012dc g     F .text	00000068 init_ticktime
00001ee4 g     F .text	00000024 UART0_DriverIRQHandler
1ffff080 g       .data	00000000 _data
00000236  w    F .text	00000008 Reserved45_IRQHandler
200003f4 g     O .bss	00000004 _number_of_exit_functions
20000404 g       .heap	00000000 _pvHeapStart
000000d4 g       .text	00000000 __section_table_end
0000014c  w    F .text	00000002 SPI0_DriverIRQHandler
00001594 g     F .text	00000038 CLOCK_SetSimConfig
000001de  w    F .text	00000008 TPM1_IRQHandler
00000410 g     F .text	000000f4 DbgConsole_Init
0000014c  w    F .text	00000002 ADC0_DriverIRQHandler
000043e4 g     F .text	00000000 __sys_remove
000042b8 g     F .text	00000072 __aeabi_uidivmod
0000017e  w    F .text	00000008 LVD_LVW_IRQHandler
1ffff088 g       .data	00000000 _edata
0000019e  w    F .text	00000008 SPI0_IRQHandler
0000023e  w    F .text	00000008 PORTA_IRQHandler
000015cc g     F .text	00000084 CLOCK_GetFllFreq
0000014c  w    F .text	00000002 CMP0_DriverIRQHandler
200003fc g     O .bss	00000004 __heaps
000024fc g     F .text	00000000 __sys_appexit
00000400 g     O .text	00000010 Flash_Config
00004178 g     F .text	00000026 LPSCI_GetStatusFlags
0000420e g     F .text	0000000a BOARD_InitBootPeripherals
0000389c g     F .text	0000002c exit
1ffff000 g       *ABS*	00000000 __base_RAM
00000000 g     O .text	000000c0 g_pfnVectors
00000176  w    F .text	00000008 FTFA_IRQHandler
000000d4 g     F .text	0000004c ResetISR
00005218 g       *ABS*	00000000 _image_end
0000406e g     F .text	00000064 hexstr_to_bytes
200003f8 g     O .bss	00000004 __end_of_heap
0000055c g     F .text	0000005c ISHAReset
0000282c g     F .text	00000020 _Csys_alloc
000041c4 g     F .text	0000003c UART_WriteBlocking
0000432a g     F .text	00000002 __aeabi_idiv0
0000022e  w    F .text	00000008 LPTMR0_IRQHandler
00005188 g     O .text	0000000a mcgConfig_BOARD_BootClockRUN
000038c8 g     F .text	00000058 strlen
0000014c  w    F .text	00000002 DMA2_DriverIRQHandler
0000014c  w    F .text	00000002 PORTD_DriverIRQHandler
00003800 g     F .text	00000050 _printf
0000426e g     F .text	0000002e fputs
0000014c  w    F .text	00000002 I2C0_DriverIRQHandler
1ffff000 g     O .mtb_buffer_default	00000080 __mtb_buffer__
20001000 g       .stack	00000000 _vStackBase
00002984 g     F .text	0000007c _initio
000001ce  w    F .text	00000008 CMP0_IRQHandler
000042b2 g     F .text	00000006 __aeabi_idivmod
200002bc g     O .bss	000000b4 __Ciob
000043d8 g     F .text	00000000 __sys_istty
200002a0 g     O .bss	00000004 g_xtal0Freq
00000156  w    F .text	00000008 DMA1_IRQHandler
00004242 g     F .text	0000002c free
00005194 g     O .text	00000008 simConfig_BOARD_BootClockRUN



Disassembly of section .text:

00000000 <__Vectors>:
       0:	00 30 00 20 d5 00 00 00 43 01 00 00 75 11 00 00     .0. ....C...u...
	...
      2c:	47 01 00 00 00 00 00 00 00 00 00 00 49 01 00 00     G...........I...
      3c:	45 13 00 00 4f 01 00 00 57 01 00 00 5f 01 00 00     E...O...W..._...
      4c:	67 01 00 00 6f 01 00 00 77 01 00 00 7f 01 00 00     g...o...w.......
      5c:	87 01 00 00 8f 01 00 00 97 01 00 00 9f 01 00 00     ................
      6c:	a7 01 00 00 af 01 00 00 b7 01 00 00 bf 01 00 00     ................
      7c:	c7 01 00 00 cf 01 00 00 d7 01 00 00 df 01 00 00     ................
      8c:	e7 01 00 00 ef 01 00 00 f7 01 00 00 ff 01 00 00     ................
      9c:	07 02 00 00 0f 02 00 00 17 02 00 00 1f 02 00 00     ................
      ac:	27 02 00 00 2f 02 00 00 37 02 00 00 3f 02 00 00     '.../...7...?...
      bc:	47 02 00 00                                         G...

000000c0 <__data_section_table>:
      c0:	00005210 	.word	0x00005210
      c4:	1ffff080 	.word	0x1ffff080
      c8:	00000008 	.word	0x00000008

000000cc <__bss_section_table>:
      cc:	1ffff088 	.word	0x1ffff088
      d0:	0000137c 	.word	0x0000137c

000000d4 <ResetISR>:
      d4:	b510      	push	{r4, lr}
      d6:	b672      	cpsid	i
      d8:	f002 f9de 	bl	2498 <SystemInit>
      dc:	4b0d      	ldr	r3, [pc, #52]	; (114 <ResetISR+0x40>)
      de:	e007      	b.n	f0 <ResetISR+0x1c>
      e0:	6818      	ldr	r0, [r3, #0]
      e2:	6859      	ldr	r1, [r3, #4]
      e4:	001c      	movs	r4, r3
      e6:	340c      	adds	r4, #12
      e8:	689a      	ldr	r2, [r3, #8]
      ea:	f000 f819 	bl	120 <data_init>
      ee:	0023      	movs	r3, r4
      f0:	4a09      	ldr	r2, [pc, #36]	; (118 <ResetISR+0x44>)
      f2:	4293      	cmp	r3, r2
      f4:	d3f4      	bcc.n	e0 <ResetISR+0xc>
      f6:	e006      	b.n	106 <ResetISR+0x32>
      f8:	6818      	ldr	r0, [r3, #0]
      fa:	001c      	movs	r4, r3
      fc:	3408      	adds	r4, #8
      fe:	6859      	ldr	r1, [r3, #4]
     100:	f000 f817 	bl	132 <bss_init>
     104:	0023      	movs	r3, r4
     106:	4a05      	ldr	r2, [pc, #20]	; (11c <ResetISR+0x48>)
     108:	4293      	cmp	r3, r2
     10a:	d3f5      	bcc.n	f8 <ResetISR+0x24>
     10c:	b662      	cpsie	i
     10e:	f004 f88a 	bl	4226 <__main>
     112:	e7fe      	b.n	112 <ResetISR+0x3e>
     114:	000000c0 	.word	0x000000c0
     118:	000000cc 	.word	0x000000cc
     11c:	000000d4 	.word	0x000000d4

00000120 <data_init>:
     120:	b510      	push	{r4, lr}
     122:	2300      	movs	r3, #0
     124:	e002      	b.n	12c <data_init+0xc>
     126:	c810      	ldmia	r0!, {r4}
     128:	c110      	stmia	r1!, {r4}
     12a:	3304      	adds	r3, #4
     12c:	4293      	cmp	r3, r2
     12e:	d3fa      	bcc.n	126 <data_init+0x6>
     130:	bd10      	pop	{r4, pc}

00000132 <bss_init>:
     132:	2300      	movs	r3, #0
     134:	e002      	b.n	13c <bss_init+0xa>
     136:	2200      	movs	r2, #0
     138:	c004      	stmia	r0!, {r2}
     13a:	3304      	adds	r3, #4
     13c:	428b      	cmp	r3, r1
     13e:	d3fa      	bcc.n	136 <bss_init+0x4>
     140:	4770      	bx	lr

00000142 <NMI_Handler>:
     142:	e7fe      	b.n	142 <NMI_Handler>
     144:	e7fe      	b.n	144 <NMI_Handler+0x2>

00000146 <SVC_Handler>:
     146:	e7fe      	b.n	146 <SVC_Handler>

00000148 <PendSV_Handler>:
     148:	e7fe      	b.n	148 <PendSV_Handler>
     14a:	e7fe      	b.n	14a <PendSV_Handler+0x2>

0000014c <ADC0_DriverIRQHandler>:
     14c:	e7fe      	b.n	14c <ADC0_DriverIRQHandler>

0000014e <DMA0_IRQHandler>:
     14e:	b510      	push	{r4, lr}
     150:	f7ff fffc 	bl	14c <ADC0_DriverIRQHandler>
     154:	bd10      	pop	{r4, pc}

00000156 <DMA1_IRQHandler>:
     156:	b510      	push	{r4, lr}
     158:	f7ff fff8 	bl	14c <ADC0_DriverIRQHandler>
     15c:	bd10      	pop	{r4, pc}

0000015e <DMA2_IRQHandler>:
     15e:	b510      	push	{r4, lr}
     160:	f7ff fff4 	bl	14c <ADC0_DriverIRQHandler>
     164:	bd10      	pop	{r4, pc}

00000166 <DMA3_IRQHandler>:
     166:	b510      	push	{r4, lr}
     168:	f7ff fff0 	bl	14c <ADC0_DriverIRQHandler>
     16c:	bd10      	pop	{r4, pc}

0000016e <Reserved20_IRQHandler>:
     16e:	b510      	push	{r4, lr}
     170:	f7ff ffec 	bl	14c <ADC0_DriverIRQHandler>
     174:	bd10      	pop	{r4, pc}

00000176 <FTFA_IRQHandler>:
     176:	b510      	push	{r4, lr}
     178:	f7ff ffe8 	bl	14c <ADC0_DriverIRQHandler>
     17c:	bd10      	pop	{r4, pc}

0000017e <LVD_LVW_IRQHandler>:
     17e:	b510      	push	{r4, lr}
     180:	f7ff ffe4 	bl	14c <ADC0_DriverIRQHandler>
     184:	bd10      	pop	{r4, pc}

00000186 <LLWU_IRQHandler>:
     186:	b510      	push	{r4, lr}
     188:	f7ff ffe0 	bl	14c <ADC0_DriverIRQHandler>
     18c:	bd10      	pop	{r4, pc}

0000018e <I2C0_IRQHandler>:
     18e:	b510      	push	{r4, lr}
     190:	f7ff ffdc 	bl	14c <ADC0_DriverIRQHandler>
     194:	bd10      	pop	{r4, pc}

00000196 <I2C1_IRQHandler>:
     196:	b510      	push	{r4, lr}
     198:	f7ff ffd8 	bl	14c <ADC0_DriverIRQHandler>
     19c:	bd10      	pop	{r4, pc}

0000019e <SPI0_IRQHandler>:
     19e:	b510      	push	{r4, lr}
     1a0:	f7ff ffd4 	bl	14c <ADC0_DriverIRQHandler>
     1a4:	bd10      	pop	{r4, pc}

000001a6 <SPI1_IRQHandler>:
     1a6:	b510      	push	{r4, lr}
     1a8:	f7ff ffd0 	bl	14c <ADC0_DriverIRQHandler>
     1ac:	bd10      	pop	{r4, pc}

000001ae <UART0_IRQHandler>:
     1ae:	b510      	push	{r4, lr}
     1b0:	f001 fe98 	bl	1ee4 <UART0_DriverIRQHandler>
     1b4:	bd10      	pop	{r4, pc}

000001b6 <UART1_IRQHandler>:
     1b6:	b510      	push	{r4, lr}
     1b8:	f002 f848 	bl	224c <UART1_DriverIRQHandler>
     1bc:	bd10      	pop	{r4, pc}

000001be <UART2_IRQHandler>:
     1be:	b510      	push	{r4, lr}
     1c0:	f002 f856 	bl	2270 <UART2_DriverIRQHandler>
     1c4:	bd10      	pop	{r4, pc}

000001c6 <ADC0_IRQHandler>:
     1c6:	b510      	push	{r4, lr}
     1c8:	f7ff ffc0 	bl	14c <ADC0_DriverIRQHandler>
     1cc:	bd10      	pop	{r4, pc}

000001ce <CMP0_IRQHandler>:
     1ce:	b510      	push	{r4, lr}
     1d0:	f7ff ffbc 	bl	14c <ADC0_DriverIRQHandler>
     1d4:	bd10      	pop	{r4, pc}

000001d6 <TPM0_IRQHandler>:
     1d6:	b510      	push	{r4, lr}
     1d8:	f7ff ffb8 	bl	14c <ADC0_DriverIRQHandler>
     1dc:	bd10      	pop	{r4, pc}

000001de <TPM1_IRQHandler>:
     1de:	b510      	push	{r4, lr}
     1e0:	f7ff ffb4 	bl	14c <ADC0_DriverIRQHandler>
     1e4:	bd10      	pop	{r4, pc}

000001e6 <TPM2_IRQHandler>:
     1e6:	b510      	push	{r4, lr}
     1e8:	f7ff ffb0 	bl	14c <ADC0_DriverIRQHandler>
     1ec:	bd10      	pop	{r4, pc}

000001ee <RTC_IRQHandler>:
     1ee:	b510      	push	{r4, lr}
     1f0:	f7ff ffac 	bl	14c <ADC0_DriverIRQHandler>
     1f4:	bd10      	pop	{r4, pc}

000001f6 <RTC_Seconds_IRQHandler>:
     1f6:	b510      	push	{r4, lr}
     1f8:	f7ff ffa8 	bl	14c <ADC0_DriverIRQHandler>
     1fc:	bd10      	pop	{r4, pc}

000001fe <PIT_IRQHandler>:
     1fe:	b510      	push	{r4, lr}
     200:	f7ff ffa4 	bl	14c <ADC0_DriverIRQHandler>
     204:	bd10      	pop	{r4, pc}

00000206 <Reserved39_IRQHandler>:
     206:	b510      	push	{r4, lr}
     208:	f7ff ffa0 	bl	14c <ADC0_DriverIRQHandler>
     20c:	bd10      	pop	{r4, pc}

0000020e <USB0_IRQHandler>:
     20e:	b510      	push	{r4, lr}
     210:	f7ff ff9c 	bl	14c <ADC0_DriverIRQHandler>
     214:	bd10      	pop	{r4, pc}

00000216 <DAC0_IRQHandler>:
     216:	b510      	push	{r4, lr}
     218:	f7ff ff98 	bl	14c <ADC0_DriverIRQHandler>
     21c:	bd10      	pop	{r4, pc}

0000021e <TSI0_IRQHandler>:
     21e:	b510      	push	{r4, lr}
     220:	f7ff ff94 	bl	14c <ADC0_DriverIRQHandler>
     224:	bd10      	pop	{r4, pc}

00000226 <MCG_IRQHandler>:
     226:	b510      	push	{r4, lr}
     228:	f7ff ff90 	bl	14c <ADC0_DriverIRQHandler>
     22c:	bd10      	pop	{r4, pc}

0000022e <LPTMR0_IRQHandler>:
     22e:	b510      	push	{r4, lr}
     230:	f7ff ff8c 	bl	14c <ADC0_DriverIRQHandler>
     234:	bd10      	pop	{r4, pc}

00000236 <Reserved45_IRQHandler>:
     236:	b510      	push	{r4, lr}
     238:	f7ff ff88 	bl	14c <ADC0_DriverIRQHandler>
     23c:	bd10      	pop	{r4, pc}

0000023e <PORTA_IRQHandler>:
     23e:	b510      	push	{r4, lr}
     240:	f7ff ff84 	bl	14c <ADC0_DriverIRQHandler>
     244:	bd10      	pop	{r4, pc}

00000246 <PORTD_IRQHandler>:
     246:	b510      	push	{r4, lr}
     248:	f7ff ff80 	bl	14c <ADC0_DriverIRQHandler>
     24c:	bd10      	pop	{r4, pc}
     24e:	ffff ffff 			; <UNDEFINED> instruction: 0xffffffff
     252:	ffff ffff 			; <UNDEFINED> instruction: 0xffffffff
     256:	ffff ffff 			; <UNDEFINED> instruction: 0xffffffff
     25a:	ffff ffff 			; <UNDEFINED> instruction: 0xffffffff
     25e:	ffff ffff 			; <UNDEFINED> instruction: 0xffffffff
     262:	ffff ffff 			; <UNDEFINED> instruction: 0xffffffff
     266:	ffff ffff 			; <UNDEFINED> instruction: 0xffffffff
     26a:	ffff ffff 			; <UNDEFINED> instruction: 0xffffffff
     26e:	ffff ffff 			; <UNDEFINED> instruction: 0xffffffff
     272:	ffff ffff 			; <UNDEFINED> instruction: 0xffffffff
     276:	ffff ffff 			; <UNDEFINED> instruction: 0xffffffff
     27a:	ffff ffff 			; <UNDEFINED> instruction: 0xffffffff
     27e:	ffff ffff 			; <UNDEFINED> instruction: 0xffffffff
     282:	ffff ffff 			; <UNDEFINED> instruction: 0xffffffff
     286:	ffff ffff 			; <UNDEFINED> instruction: 0xffffffff
     28a:	ffff ffff 			; <UNDEFINED> instruction: 0xffffffff
     28e:	ffff ffff 			; <UNDEFINED> instruction: 0xffffffff
     292:	ffff ffff 			; <UNDEFINED> instruction: 0xffffffff
     296:	ffff ffff 			; <UNDEFINED> instruction: 0xffffffff
     29a:	ffff ffff 			; <UNDEFINED> instruction: 0xffffffff
     29e:	ffff ffff 			; <UNDEFINED> instruction: 0xffffffff
     2a2:	ffff ffff 			; <UNDEFINED> instruction: 0xffffffff
     2a6:	ffff ffff 			; <UNDEFINED> instruction: 0xffffffff
     2aa:	ffff ffff 			; <UNDEFINED> instruction: 0xffffffff
     2ae:	ffff ffff 			; <UNDEFINED> instruction: 0xffffffff
     2b2:	ffff ffff 			; <UNDEFINED> instruction: 0xffffffff
     2b6:	ffff ffff 			; <UNDEFINED> instruction: 0xffffffff
     2ba:	ffff ffff 			; <UNDEFINED> instruction: 0xffffffff
     2be:	ffff ffff 			; <UNDEFINED> instruction: 0xffffffff
     2c2:	ffff ffff 			; <UNDEFINED> instruction: 0xffffffff
     2c6:	ffff ffff 			; <UNDEFINED> instruction: 0xffffffff
     2ca:	ffff ffff 			; <UNDEFINED> instruction: 0xffffffff
     2ce:	ffff ffff 			; <UNDEFINED> instruction: 0xffffffff
     2d2:	ffff ffff 			; <UNDEFINED> instruction: 0xffffffff
     2d6:	ffff ffff 			; <UNDEFINED> instruction: 0xffffffff
     2da:	ffff ffff 			; <UNDEFINED> instruction: 0xffffffff
     2de:	ffff ffff 			; <UNDEFINED> instruction: 0xffffffff
     2e2:	ffff ffff 			; <UNDEFINED> instruction: 0xffffffff
     2e6:	ffff ffff 			; <UNDEFINED> instruction: 0xffffffff
     2ea:	ffff ffff 			; <UNDEFINED> instruction: 0xffffffff
     2ee:	ffff ffff 			; <UNDEFINED> instruction: 0xffffffff
     2f2:	ffff ffff 			; <UNDEFINED> instruction: 0xffffffff
     2f6:	ffff ffff 			; <UNDEFINED> instruction: 0xffffffff
     2fa:	ffff ffff 			; <UNDEFINED> instruction: 0xffffffff
     2fe:	ffff ffff 			; <UNDEFINED> instruction: 0xffffffff
     302:	ffff ffff 			; <UNDEFINED> instruction: 0xffffffff
     306:	ffff ffff 			; <UNDEFINED> instruction: 0xffffffff
     30a:	ffff ffff 			; <UNDEFINED> instruction: 0xffffffff
     30e:	ffff ffff 			; <UNDEFINED> instruction: 0xffffffff
     312:	ffff ffff 			; <UNDEFINED> instruction: 0xffffffff
     316:	ffff ffff 			; <UNDEFINED> instruction: 0xffffffff
     31a:	ffff ffff 			; <UNDEFINED> instruction: 0xffffffff
     31e:	ffff ffff 			; <UNDEFINED> instruction: 0xffffffff
     322:	ffff ffff 			; <UNDEFINED> instruction: 0xffffffff
     326:	ffff ffff 			; <UNDEFINED> instruction: 0xffffffff
     32a:	ffff ffff 			; <UNDEFINED> instruction: 0xffffffff
     32e:	ffff ffff 			; <UNDEFINED> instruction: 0xffffffff
     332:	ffff ffff 			; <UNDEFINED> instruction: 0xffffffff
     336:	ffff ffff 			; <UNDEFINED> instruction: 0xffffffff
     33a:	ffff ffff 			; <UNDEFINED> instruction: 0xffffffff
     33e:	ffff ffff 			; <UNDEFINED> instruction: 0xffffffff
     342:	ffff ffff 			; <UNDEFINED> instruction: 0xffffffff
     346:	ffff ffff 			; <UNDEFINED> instruction: 0xffffffff
     34a:	ffff ffff 			; <UNDEFINED> instruction: 0xffffffff
     34e:	ffff ffff 			; <UNDEFINED> instruction: 0xffffffff
     352:	ffff ffff 			; <UNDEFINED> instruction: 0xffffffff
     356:	ffff ffff 			; <UNDEFINED> instruction: 0xffffffff
     35a:	ffff ffff 			; <UNDEFINED> instruction: 0xffffffff
     35e:	ffff ffff 			; <UNDEFINED> instruction: 0xffffffff
     362:	ffff ffff 			; <UNDEFINED> instruction: 0xffffffff
     366:	ffff ffff 			; <UNDEFINED> instruction: 0xffffffff
     36a:	ffff ffff 			; <UNDEFINED> instruction: 0xffffffff
     36e:	ffff ffff 			; <UNDEFINED> instruction: 0xffffffff
     372:	ffff ffff 			; <UNDEFINED> instruction: 0xffffffff
     376:	ffff ffff 			; <UNDEFINED> instruction: 0xffffffff
     37a:	ffff ffff 			; <UNDEFINED> instruction: 0xffffffff
     37e:	ffff ffff 			; <UNDEFINED> instruction: 0xffffffff
     382:	ffff ffff 			; <UNDEFINED> instruction: 0xffffffff
     386:	ffff ffff 			; <UNDEFINED> instruction: 0xffffffff
     38a:	ffff ffff 			; <UNDEFINED> instruction: 0xffffffff
     38e:	ffff ffff 			; <UNDEFINED> instruction: 0xffffffff
     392:	ffff ffff 			; <UNDEFINED> instruction: 0xffffffff
     396:	ffff ffff 			; <UNDEFINED> instruction: 0xffffffff
     39a:	ffff ffff 			; <UNDEFINED> instruction: 0xffffffff
     39e:	ffff ffff 			; <UNDEFINED> instruction: 0xffffffff
     3a2:	ffff ffff 			; <UNDEFINED> instruction: 0xffffffff
     3a6:	ffff ffff 			; <UNDEFINED> instruction: 0xffffffff
     3aa:	ffff ffff 			; <UNDEFINED> instruction: 0xffffffff
     3ae:	ffff ffff 			; <UNDEFINED> instruction: 0xffffffff
     3b2:	ffff ffff 			; <UNDEFINED> instruction: 0xffffffff
     3b6:	ffff ffff 			; <UNDEFINED> instruction: 0xffffffff
     3ba:	ffff ffff 			; <UNDEFINED> instruction: 0xffffffff
     3be:	ffff ffff 			; <UNDEFINED> instruction: 0xffffffff
     3c2:	ffff ffff 			; <UNDEFINED> instruction: 0xffffffff
     3c6:	ffff ffff 			; <UNDEFINED> instruction: 0xffffffff
     3ca:	ffff ffff 			; <UNDEFINED> instruction: 0xffffffff
     3ce:	ffff ffff 			; <UNDEFINED> instruction: 0xffffffff
     3d2:	ffff ffff 			; <UNDEFINED> instruction: 0xffffffff
     3d6:	ffff ffff 			; <UNDEFINED> instruction: 0xffffffff
     3da:	ffff ffff 			; <UNDEFINED> instruction: 0xffffffff
     3de:	ffff ffff 			; <UNDEFINED> instruction: 0xffffffff
     3e2:	ffff ffff 			; <UNDEFINED> instruction: 0xffffffff
     3e6:	ffff ffff 			; <UNDEFINED> instruction: 0xffffffff
     3ea:	ffff ffff 			; <UNDEFINED> instruction: 0xffffffff
     3ee:	ffff ffff 			; <UNDEFINED> instruction: 0xffffffff
     3f2:	ffff ffff 			; <UNDEFINED> instruction: 0xffffffff
     3f6:	ffff ffff 			; <UNDEFINED> instruction: 0xffffffff
     3fa:	ffff ffff 			; <UNDEFINED> instruction: 0xffffffff
     3fe:	Address 0x000003fe is out of bounds.


00000400 <Flash_Config>:
     400:	ffff ffff ffff ffff ffff ffff fffe ffff     ................

00000410 <DbgConsole_Init>:
     410:	b590      	push	{r4, r7, lr}
     412:	b089      	sub	sp, #36	; 0x24
     414:	af00      	add	r7, sp, #0
     416:	60f8      	str	r0, [r7, #12]
     418:	60b9      	str	r1, [r7, #8]
     41a:	603b      	str	r3, [r7, #0]
     41c:	1dfb      	adds	r3, r7, #7
     41e:	701a      	strb	r2, [r3, #0]
     420:	4b33      	ldr	r3, [pc, #204]	; (4f0 <DbgConsole_Init+0xe0>)
     422:	781b      	ldrb	r3, [r3, #0]
     424:	2b00      	cmp	r3, #0
     426:	d001      	beq.n	42c <DbgConsole_Init+0x1c>
     428:	2301      	movs	r3, #1
     42a:	e05c      	b.n	4e6 <DbgConsole_Init+0xd6>
     42c:	4b30      	ldr	r3, [pc, #192]	; (4f0 <DbgConsole_Init+0xe0>)
     42e:	1dfa      	adds	r2, r7, #7
     430:	7812      	ldrb	r2, [r2, #0]
     432:	701a      	strb	r2, [r3, #0]
     434:	1dfb      	adds	r3, r7, #7
     436:	781b      	ldrb	r3, [r3, #0]
     438:	2b06      	cmp	r3, #6
     43a:	d005      	beq.n	448 <DbgConsole_Init+0x38>
     43c:	dc50      	bgt.n	4e0 <DbgConsole_Init+0xd0>
     43e:	2b01      	cmp	r3, #1
     440:	d002      	beq.n	448 <DbgConsole_Init+0x38>
     442:	2b03      	cmp	r3, #3
     444:	d026      	beq.n	494 <DbgConsole_Init+0x84>
     446:	e04b      	b.n	4e0 <DbgConsole_Init+0xd0>
     448:	68fa      	ldr	r2, [r7, #12]
     44a:	4b29      	ldr	r3, [pc, #164]	; (4f0 <DbgConsole_Init+0xe0>)
     44c:	605a      	str	r2, [r3, #4]
     44e:	2418      	movs	r4, #24
     450:	193b      	adds	r3, r7, r4
     452:	0018      	movs	r0, r3
     454:	f001 fe8c 	bl	2170 <UART_GetDefaultConfig>
     458:	0021      	movs	r1, r4
     45a:	187b      	adds	r3, r7, r1
     45c:	68ba      	ldr	r2, [r7, #8]
     45e:	601a      	str	r2, [r3, #0]
     460:	4b23      	ldr	r3, [pc, #140]	; (4f0 <DbgConsole_Init+0xe0>)
     462:	685b      	ldr	r3, [r3, #4]
     464:	683a      	ldr	r2, [r7, #0]
     466:	1879      	adds	r1, r7, r1
     468:	0018      	movs	r0, r3
     46a:	f001 fd91 	bl	1f90 <UART_Init>
     46e:	4b20      	ldr	r3, [pc, #128]	; (4f0 <DbgConsole_Init+0xe0>)
     470:	685b      	ldr	r3, [r3, #4]
     472:	2101      	movs	r1, #1
     474:	0018      	movs	r0, r3
     476:	f003 fb2f 	bl	3ad8 <UART_EnableTx>
     47a:	4b1d      	ldr	r3, [pc, #116]	; (4f0 <DbgConsole_Init+0xe0>)
     47c:	685b      	ldr	r3, [r3, #4]
     47e:	2101      	movs	r1, #1
     480:	0018      	movs	r0, r3
     482:	f003 fb49 	bl	3b18 <UART_EnableRx>
     486:	4b1a      	ldr	r3, [pc, #104]	; (4f0 <DbgConsole_Init+0xe0>)
     488:	4a1a      	ldr	r2, [pc, #104]	; (4f4 <DbgConsole_Init+0xe4>)
     48a:	609a      	str	r2, [r3, #8]
     48c:	4b18      	ldr	r3, [pc, #96]	; (4f0 <DbgConsole_Init+0xe0>)
     48e:	4a1a      	ldr	r2, [pc, #104]	; (4f8 <DbgConsole_Init+0xe8>)
     490:	60da      	str	r2, [r3, #12]
     492:	e027      	b.n	4e4 <DbgConsole_Init+0xd4>
     494:	68fa      	ldr	r2, [r7, #12]
     496:	4b16      	ldr	r3, [pc, #88]	; (4f0 <DbgConsole_Init+0xe0>)
     498:	605a      	str	r2, [r3, #4]
     49a:	2410      	movs	r4, #16
     49c:	193b      	adds	r3, r7, r4
     49e:	0018      	movs	r0, r3
     4a0:	f001 fc2e 	bl	1d00 <LPSCI_GetDefaultConfig>
     4a4:	0021      	movs	r1, r4
     4a6:	187b      	adds	r3, r7, r1
     4a8:	68ba      	ldr	r2, [r7, #8]
     4aa:	601a      	str	r2, [r3, #0]
     4ac:	4b10      	ldr	r3, [pc, #64]	; (4f0 <DbgConsole_Init+0xe0>)
     4ae:	685b      	ldr	r3, [r3, #4]
     4b0:	683a      	ldr	r2, [r7, #0]
     4b2:	1879      	adds	r1, r7, r1
     4b4:	0018      	movs	r0, r3
     4b6:	f001 faf7 	bl	1aa8 <LPSCI_Init>
     4ba:	4b0d      	ldr	r3, [pc, #52]	; (4f0 <DbgConsole_Init+0xe0>)
     4bc:	685b      	ldr	r3, [r3, #4]
     4be:	2101      	movs	r1, #1
     4c0:	0018      	movs	r0, r3
     4c2:	f003 fb49 	bl	3b58 <LPSCI_EnableTx>
     4c6:	4b0a      	ldr	r3, [pc, #40]	; (4f0 <DbgConsole_Init+0xe0>)
     4c8:	685b      	ldr	r3, [r3, #4]
     4ca:	2101      	movs	r1, #1
     4cc:	0018      	movs	r0, r3
     4ce:	f003 fb63 	bl	3b98 <LPSCI_EnableRx>
     4d2:	4b07      	ldr	r3, [pc, #28]	; (4f0 <DbgConsole_Init+0xe0>)
     4d4:	4a09      	ldr	r2, [pc, #36]	; (4fc <DbgConsole_Init+0xec>)
     4d6:	609a      	str	r2, [r3, #8]
     4d8:	4b05      	ldr	r3, [pc, #20]	; (4f0 <DbgConsole_Init+0xe0>)
     4da:	4a09      	ldr	r2, [pc, #36]	; (500 <DbgConsole_Init+0xf0>)
     4dc:	60da      	str	r2, [r3, #12]
     4de:	e001      	b.n	4e4 <DbgConsole_Init+0xd4>
     4e0:	2304      	movs	r3, #4
     4e2:	e000      	b.n	4e6 <DbgConsole_Init+0xd6>
     4e4:	2300      	movs	r3, #0
     4e6:	0018      	movs	r0, r3
     4e8:	46bd      	mov	sp, r7
     4ea:	b009      	add	sp, #36	; 0x24
     4ec:	bd90      	pop	{r4, r7, pc}
     4ee:	46c0      	nop			; (mov r8, r8)
     4f0:	1ffff088 	.word	0x1ffff088
     4f4:	000041c5 	.word	0x000041c5
     4f8:	000021b5 	.word	0x000021b5
     4fc:	00001dd9 	.word	0x00001dd9
     500:	00001e25 	.word	0x00001e25

00000504 <__sys_write>:
     504:	b590      	push	{r4, r7, lr}
     506:	b085      	sub	sp, #20
     508:	af00      	add	r7, sp, #0
     50a:	60f8      	str	r0, [r7, #12]
     50c:	60b9      	str	r1, [r7, #8]
     50e:	607a      	str	r2, [r7, #4]
     510:	68bb      	ldr	r3, [r7, #8]
     512:	2b00      	cmp	r3, #0
     514:	d102      	bne.n	51c <__sys_write+0x18>
     516:	2301      	movs	r3, #1
     518:	425b      	negs	r3, r3
     51a:	e018      	b.n	54e <__sys_write+0x4a>
     51c:	68fb      	ldr	r3, [r7, #12]
     51e:	2b01      	cmp	r3, #1
     520:	d005      	beq.n	52e <__sys_write+0x2a>
     522:	68fb      	ldr	r3, [r7, #12]
     524:	2b02      	cmp	r3, #2
     526:	d002      	beq.n	52e <__sys_write+0x2a>
     528:	2301      	movs	r3, #1
     52a:	425b      	negs	r3, r3
     52c:	e00f      	b.n	54e <__sys_write+0x4a>
     52e:	4b0a      	ldr	r3, [pc, #40]	; (558 <__sys_write+0x54>)
     530:	781b      	ldrb	r3, [r3, #0]
     532:	2b00      	cmp	r3, #0
     534:	d102      	bne.n	53c <__sys_write+0x38>
     536:	2301      	movs	r3, #1
     538:	425b      	negs	r3, r3
     53a:	e008      	b.n	54e <__sys_write+0x4a>
     53c:	4b06      	ldr	r3, [pc, #24]	; (558 <__sys_write+0x54>)
     53e:	689c      	ldr	r4, [r3, #8]
     540:	4b05      	ldr	r3, [pc, #20]	; (558 <__sys_write+0x54>)
     542:	685b      	ldr	r3, [r3, #4]
     544:	687a      	ldr	r2, [r7, #4]
     546:	68b9      	ldr	r1, [r7, #8]
     548:	0018      	movs	r0, r3
     54a:	47a0      	blx	r4
     54c:	2300      	movs	r3, #0
     54e:	0018      	movs	r0, r3
     550:	46bd      	mov	sp, r7
     552:	b005      	add	sp, #20
     554:	bd90      	pop	{r4, r7, pc}
     556:	46c0      	nop			; (mov r8, r8)
     558:	1ffff088 	.word	0x1ffff088

0000055c <ISHAReset>:
     55c:	b580      	push	{r7, lr}
     55e:	b082      	sub	sp, #8
     560:	af00      	add	r7, sp, #0
     562:	6078      	str	r0, [r7, #4]
     564:	687b      	ldr	r3, [r7, #4]
     566:	2200      	movs	r2, #0
     568:	615a      	str	r2, [r3, #20]
     56a:	687b      	ldr	r3, [r7, #4]
     56c:	2200      	movs	r2, #0
     56e:	659a      	str	r2, [r3, #88]	; 0x58
     570:	687b      	ldr	r3, [r7, #4]
     572:	4a0c      	ldr	r2, [pc, #48]	; (5a4 <ISHAReset+0x48>)
     574:	601a      	str	r2, [r3, #0]
     576:	687b      	ldr	r3, [r7, #4]
     578:	4a0b      	ldr	r2, [pc, #44]	; (5a8 <ISHAReset+0x4c>)
     57a:	605a      	str	r2, [r3, #4]
     57c:	687b      	ldr	r3, [r7, #4]
     57e:	4a0b      	ldr	r2, [pc, #44]	; (5ac <ISHAReset+0x50>)
     580:	609a      	str	r2, [r3, #8]
     582:	687b      	ldr	r3, [r7, #4]
     584:	4a0a      	ldr	r2, [pc, #40]	; (5b0 <ISHAReset+0x54>)
     586:	60da      	str	r2, [r3, #12]
     588:	687b      	ldr	r3, [r7, #4]
     58a:	4a0a      	ldr	r2, [pc, #40]	; (5b4 <ISHAReset+0x58>)
     58c:	611a      	str	r2, [r3, #16]
     58e:	687b      	ldr	r3, [r7, #4]
     590:	2200      	movs	r2, #0
     592:	65da      	str	r2, [r3, #92]	; 0x5c
     594:	687b      	ldr	r3, [r7, #4]
     596:	2200      	movs	r2, #0
     598:	661a      	str	r2, [r3, #96]	; 0x60
     59a:	46c0      	nop			; (mov r8, r8)
     59c:	46bd      	mov	sp, r7
     59e:	b002      	add	sp, #8
     5a0:	bd80      	pop	{r7, pc}
     5a2:	46c0      	nop			; (mov r8, r8)
     5a4:	67452301 	.word	0x67452301
     5a8:	efcdab89 	.word	0xefcdab89
     5ac:	98badcfe 	.word	0x98badcfe
     5b0:	10325476 	.word	0x10325476
     5b4:	c3d2e1f0 	.word	0xc3d2e1f0

000005b8 <time_pbkdf2_hmac_isha>:
     5b8:	b5f0      	push	{r4, r5, r6, r7, lr}
     5ba:	4c47      	ldr	r4, [pc, #284]	; (6d8 <time_pbkdf2_hmac_isha+0x120>)
     5bc:	44a5      	add	sp, r4
     5be:	af04      	add	r7, sp, #16
     5c0:	4b46      	ldr	r3, [pc, #280]	; (6dc <time_pbkdf2_hmac_isha+0x124>)
     5c2:	4a47      	ldr	r2, [pc, #284]	; (6e0 <time_pbkdf2_hmac_isha+0x128>)
     5c4:	18ba      	adds	r2, r7, r2
     5c6:	6013      	str	r3, [r2, #0]
     5c8:	4b46      	ldr	r3, [pc, #280]	; (6e4 <time_pbkdf2_hmac_isha+0x12c>)
     5ca:	2283      	movs	r2, #131	; 0x83
     5cc:	00d2      	lsls	r2, r2, #3
     5ce:	18ba      	adds	r2, r7, r2
     5d0:	6013      	str	r3, [r2, #0]
     5d2:	2380      	movs	r3, #128	; 0x80
     5d4:	015b      	lsls	r3, r3, #5
     5d6:	4a44      	ldr	r2, [pc, #272]	; (6e8 <time_pbkdf2_hmac_isha+0x130>)
     5d8:	18ba      	adds	r2, r7, r2
     5da:	6013      	str	r3, [r2, #0]
     5dc:	2330      	movs	r3, #48	; 0x30
     5de:	2282      	movs	r2, #130	; 0x82
     5e0:	00d2      	lsls	r2, r2, #3
     5e2:	18b9      	adds	r1, r7, r2
     5e4:	600b      	str	r3, [r1, #0]
     5e6:	4b41      	ldr	r3, [pc, #260]	; (6ec <time_pbkdf2_hmac_isha+0x134>)
     5e8:	4941      	ldr	r1, [pc, #260]	; (6f0 <time_pbkdf2_hmac_isha+0x138>)
     5ea:	1879      	adds	r1, r7, r1
     5ec:	600b      	str	r3, [r1, #0]
     5ee:	2300      	movs	r3, #0
     5f0:	2181      	movs	r1, #129	; 0x81
     5f2:	00c9      	lsls	r1, r1, #3
     5f4:	1879      	adds	r1, r7, r1
     5f6:	600b      	str	r3, [r1, #0]
     5f8:	18bb      	adds	r3, r7, r2
     5fa:	681a      	ldr	r2, [r3, #0]
     5fc:	2380      	movs	r3, #128	; 0x80
     5fe:	009b      	lsls	r3, r3, #2
     600:	429a      	cmp	r2, r3
     602:	d903      	bls.n	60c <time_pbkdf2_hmac_isha+0x54>
     604:	4b3b      	ldr	r3, [pc, #236]	; (6f4 <time_pbkdf2_hmac_isha+0x13c>)
     606:	0018      	movs	r0, r3
     608:	f001 ff52 	bl	24b0 <__assertion_failed>
     60c:	2582      	movs	r5, #130	; 0x82
     60e:	00ed      	lsls	r5, r5, #3
     610:	197b      	adds	r3, r7, r5
     612:	681a      	ldr	r2, [r3, #0]
     614:	4b36      	ldr	r3, [pc, #216]	; (6f0 <time_pbkdf2_hmac_isha+0x138>)
     616:	18fb      	adds	r3, r7, r3
     618:	6819      	ldr	r1, [r3, #0]
     61a:	003b      	movs	r3, r7
     61c:	0018      	movs	r0, r3
     61e:	f003 fd26 	bl	406e <hexstr_to_bytes>
     622:	4e2f      	ldr	r6, [pc, #188]	; (6e0 <time_pbkdf2_hmac_isha+0x128>)
     624:	19bb      	adds	r3, r7, r6
     626:	681b      	ldr	r3, [r3, #0]
     628:	0018      	movs	r0, r3
     62a:	f003 f94d 	bl	38c8 <strlen>
     62e:	0003      	movs	r3, r0
     630:	4c31      	ldr	r4, [pc, #196]	; (6f8 <time_pbkdf2_hmac_isha+0x140>)
     632:	193a      	adds	r2, r7, r4
     634:	6013      	str	r3, [r2, #0]
     636:	2383      	movs	r3, #131	; 0x83
     638:	00db      	lsls	r3, r3, #3
     63a:	18fa      	adds	r2, r7, r3
     63c:	6813      	ldr	r3, [r2, #0]
     63e:	0018      	movs	r0, r3
     640:	f003 f942 	bl	38c8 <strlen>
     644:	0003      	movs	r3, r0
     646:	2280      	movs	r2, #128	; 0x80
     648:	00d2      	lsls	r2, r2, #3
     64a:	18b9      	adds	r1, r7, r2
     64c:	600b      	str	r3, [r1, #0]
     64e:	f000 fe85 	bl	135c <reset_timer>
     652:	1939      	adds	r1, r7, r4
     654:	6809      	ldr	r1, [r1, #0]
     656:	2280      	movs	r2, #128	; 0x80
     658:	00d2      	lsls	r2, r2, #3
     65a:	18ba      	adds	r2, r7, r2
     65c:	6814      	ldr	r4, [r2, #0]
     65e:	2383      	movs	r3, #131	; 0x83
     660:	00db      	lsls	r3, r3, #3
     662:	18fb      	adds	r3, r7, r3
     664:	681a      	ldr	r2, [r3, #0]
     666:	19bb      	adds	r3, r7, r6
     668:	6818      	ldr	r0, [r3, #0]
     66a:	2680      	movs	r6, #128	; 0x80
     66c:	00b6      	lsls	r6, r6, #2
     66e:	19bb      	adds	r3, r7, r6
     670:	9302      	str	r3, [sp, #8]
     672:	197b      	adds	r3, r7, r5
     674:	681b      	ldr	r3, [r3, #0]
     676:	9301      	str	r3, [sp, #4]
     678:	4b1b      	ldr	r3, [pc, #108]	; (6e8 <time_pbkdf2_hmac_isha+0x130>)
     67a:	18fb      	adds	r3, r7, r3
     67c:	681b      	ldr	r3, [r3, #0]
     67e:	9300      	str	r3, [sp, #0]
     680:	0023      	movs	r3, r4
     682:	f000 fa35 	bl	af0 <pbkdf2_hmac_isha>
     686:	f000 fe77 	bl	1378 <get_timer>
     68a:	0003      	movs	r3, r0
     68c:	2481      	movs	r4, #129	; 0x81
     68e:	00e4      	lsls	r4, r4, #3
     690:	1939      	adds	r1, r7, r4
     692:	600b      	str	r3, [r1, #0]
     694:	1979      	adds	r1, r7, r5
     696:	680a      	ldr	r2, [r1, #0]
     698:	0039      	movs	r1, r7
     69a:	19bb      	adds	r3, r7, r6
     69c:	0018      	movs	r0, r3
     69e:	f003 fcc5 	bl	402c <cmp_bin>
     6a2:	1e03      	subs	r3, r0, #0
     6a4:	d00e      	beq.n	6c4 <time_pbkdf2_hmac_isha+0x10c>
     6a6:	1939      	adds	r1, r7, r4
     6a8:	680b      	ldr	r3, [r1, #0]
     6aa:	210a      	movs	r1, #10
     6ac:	0018      	movs	r0, r3
     6ae:	f003 fe03 	bl	42b8 <__aeabi_uidiv>
     6b2:	0003      	movs	r3, r0
     6b4:	4a0c      	ldr	r2, [pc, #48]	; (6e8 <time_pbkdf2_hmac_isha+0x130>)
     6b6:	18ba      	adds	r2, r7, r2
     6b8:	6812      	ldr	r2, [r2, #0]
     6ba:	4910      	ldr	r1, [pc, #64]	; (6fc <time_pbkdf2_hmac_isha+0x144>)
     6bc:	4810      	ldr	r0, [pc, #64]	; (700 <time_pbkdf2_hmac_isha+0x148>)
     6be:	f003 f89f 	bl	3800 <_printf>
     6c2:	e003      	b.n	6cc <time_pbkdf2_hmac_isha+0x114>
     6c4:	4b0f      	ldr	r3, [pc, #60]	; (704 <time_pbkdf2_hmac_isha+0x14c>)
     6c6:	0018      	movs	r0, r3
     6c8:	f003 f89a 	bl	3800 <_printf>
     6cc:	46c0      	nop			; (mov r8, r8)
     6ce:	46bd      	mov	sp, r7
     6d0:	4b0d      	ldr	r3, [pc, #52]	; (708 <time_pbkdf2_hmac_isha+0x150>)
     6d2:	449d      	add	sp, r3
     6d4:	bdf0      	pop	{r4, r5, r6, r7, pc}
     6d6:	46c0      	nop			; (mov r8, r8)
     6d8:	fffffbcc 	.word	0xfffffbcc
     6dc:	00004408 	.word	0x00004408
     6e0:	0000041c 	.word	0x0000041c
     6e4:	00004410 	.word	0x00004410
     6e8:	00000414 	.word	0x00000414
     6ec:	0000441c 	.word	0x0000441c
     6f0:	0000040c 	.word	0x0000040c
     6f4:	00004480 	.word	0x00004480
     6f8:	00000404 	.word	0x00000404
     6fc:	00004558 	.word	0x00004558
     700:	000044ac 	.word	0x000044ac
     704:	000044d0 	.word	0x000044d0
     708:	00000424 	.word	0x00000424

0000070c <run_tests>:
     70c:	b580      	push	{r7, lr}
     70e:	b082      	sub	sp, #8
     710:	af00      	add	r7, sp, #0
     712:	1dfb      	adds	r3, r7, #7
     714:	2201      	movs	r2, #1
     716:	701a      	strb	r2, [r3, #0]
     718:	f000 fa72 	bl	c00 <test_isha>
     71c:	0003      	movs	r3, r0
     71e:	001a      	movs	r2, r3
     720:	1dfb      	adds	r3, r7, #7
     722:	781b      	ldrb	r3, [r3, #0]
     724:	401a      	ands	r2, r3
     726:	1dfb      	adds	r3, r7, #7
     728:	1e51      	subs	r1, r2, #1
     72a:	418a      	sbcs	r2, r1
     72c:	701a      	strb	r2, [r3, #0]
     72e:	f000 fb85 	bl	e3c <test_hmac_isha>
     732:	0003      	movs	r3, r0
     734:	001a      	movs	r2, r3
     736:	1dfb      	adds	r3, r7, #7
     738:	781b      	ldrb	r3, [r3, #0]
     73a:	401a      	ands	r2, r3
     73c:	1dfb      	adds	r3, r7, #7
     73e:	1e51      	subs	r1, r2, #1
     740:	418a      	sbcs	r2, r1
     742:	701a      	strb	r2, [r3, #0]
     744:	f000 fc02 	bl	f4c <test_pbkdf2_hmac_isha>
     748:	0003      	movs	r3, r0
     74a:	001a      	movs	r2, r3
     74c:	1dfb      	adds	r3, r7, #7
     74e:	781b      	ldrb	r3, [r3, #0]
     750:	401a      	ands	r2, r3
     752:	1dfb      	adds	r3, r7, #7
     754:	1e51      	subs	r1, r2, #1
     756:	418a      	sbcs	r2, r1
     758:	701a      	strb	r2, [r3, #0]
     75a:	1dfb      	adds	r3, r7, #7
     75c:	781b      	ldrb	r3, [r3, #0]
     75e:	2b00      	cmp	r3, #0
     760:	d109      	bne.n	776 <run_tests+0x6a>
     762:	4b07      	ldr	r3, [pc, #28]	; (780 <run_tests+0x74>)
     764:	0018      	movs	r0, r3
     766:	f003 f84b 	bl	3800 <_printf>
     76a:	2301      	movs	r3, #1
     76c:	425b      	negs	r3, r3
     76e:	0018      	movs	r0, r3
     770:	f003 f894 	bl	389c <exit>
     774:	e000      	b.n	778 <run_tests+0x6c>
     776:	46c0      	nop			; (mov r8, r8)
     778:	46bd      	mov	sp, r7
     77a:	b002      	add	sp, #8
     77c:	bd80      	pop	{r7, pc}
     77e:	46c0      	nop			; (mov r8, r8)
     780:	000044e8 	.word	0x000044e8

00000784 <main>:
     784:	b580      	push	{r7, lr}
     786:	af00      	add	r7, sp, #0
     788:	f003 fd46 	bl	4218 <BOARD_InitBootPins>
     78c:	f003 fd38 	bl	4200 <BOARD_InitBootClocks>
     790:	f003 fd3d 	bl	420e <BOARD_InitBootPeripherals>
     794:	f001 fd9a 	bl	22cc <BOARD_InitDebugConsole>
     798:	f000 fda0 	bl	12dc <init_ticktime>
     79c:	4b09      	ldr	r3, [pc, #36]	; (7c4 <main+0x40>)
     79e:	0018      	movs	r0, r3
     7a0:	f003 f82e 	bl	3800 <_printf>
     7a4:	f7ff ffb2 	bl	70c <run_tests>
     7a8:	4b07      	ldr	r3, [pc, #28]	; (7c8 <main+0x44>)
     7aa:	0018      	movs	r0, r3
     7ac:	f003 f828 	bl	3800 <_printf>
     7b0:	4b06      	ldr	r3, [pc, #24]	; (7cc <main+0x48>)
     7b2:	0018      	movs	r0, r3
     7b4:	f003 f824 	bl	3800 <_printf>
     7b8:	f7ff fefe 	bl	5b8 <time_pbkdf2_hmac_isha>
     7bc:	2300      	movs	r3, #0
     7be:	0018      	movs	r0, r3
     7c0:	46bd      	mov	sp, r7
     7c2:	bd80      	pop	{r7, pc}
     7c4:	0000450c 	.word	0x0000450c
     7c8:	00004528 	.word	0x00004528
     7cc:	0000453c 	.word	0x0000453c

000007d0 <F>:
     7d0:	b5b0      	push	{r4, r5, r7, lr}
     7d2:	b08e      	sub	sp, #56	; 0x38
     7d4:	af02      	add	r7, sp, #8
     7d6:	60f8      	str	r0, [r7, #12]
     7d8:	60b9      	str	r1, [r7, #8]
     7da:	607a      	str	r2, [r7, #4]
     7dc:	603b      	str	r3, [r7, #0]
     7de:	2300      	movs	r3, #0
     7e0:	62fb      	str	r3, [r7, #44]	; 0x2c
     7e2:	683b      	ldr	r3, [r7, #0]
     7e4:	1d1a      	adds	r2, r3, #4
     7e6:	2380      	movs	r3, #128	; 0x80
     7e8:	011b      	lsls	r3, r3, #4
     7ea:	429a      	cmp	r2, r3
     7ec:	d90f      	bls.n	80e <F+0x3e>
     7ee:	4bbe      	ldr	r3, [pc, #760]	; (ae8 <F+0x318>)
     7f0:	0018      	movs	r0, r3
     7f2:	f001 fe5d 	bl	24b0 <__assertion_failed>
     7f6:	687a      	ldr	r2, [r7, #4]
     7f8:	6afb      	ldr	r3, [r7, #44]	; 0x2c
     7fa:	18d3      	adds	r3, r2, r3
     7fc:	7819      	ldrb	r1, [r3, #0]
     7fe:	4abb      	ldr	r2, [pc, #748]	; (aec <F+0x31c>)
     800:	6afb      	ldr	r3, [r7, #44]	; 0x2c
     802:	18d3      	adds	r3, r2, r3
     804:	1c0a      	adds	r2, r1, #0
     806:	701a      	strb	r2, [r3, #0]
     808:	6afb      	ldr	r3, [r7, #44]	; 0x2c
     80a:	3301      	adds	r3, #1
     80c:	62fb      	str	r3, [r7, #44]	; 0x2c
     80e:	6afa      	ldr	r2, [r7, #44]	; 0x2c
     810:	683b      	ldr	r3, [r7, #0]
     812:	429a      	cmp	r2, r3
     814:	d3ef      	bcc.n	7f6 <F+0x26>
     816:	6c7b      	ldr	r3, [r7, #68]	; 0x44
     818:	ba1b      	rev	r3, r3
     81a:	647b      	str	r3, [r7, #68]	; 0x44
     81c:	2344      	movs	r3, #68	; 0x44
     81e:	18fb      	adds	r3, r7, r3
     820:	62bb      	str	r3, [r7, #40]	; 0x28
     822:	6abb      	ldr	r3, [r7, #40]	; 0x28
     824:	7819      	ldrb	r1, [r3, #0]
     826:	4ab1      	ldr	r2, [pc, #708]	; (aec <F+0x31c>)
     828:	6afb      	ldr	r3, [r7, #44]	; 0x2c
     82a:	18d3      	adds	r3, r2, r3
     82c:	1c0a      	adds	r2, r1, #0
     82e:	701a      	strb	r2, [r3, #0]
     830:	6afb      	ldr	r3, [r7, #44]	; 0x2c
     832:	3301      	adds	r3, #1
     834:	6aba      	ldr	r2, [r7, #40]	; 0x28
     836:	7851      	ldrb	r1, [r2, #1]
     838:	4aac      	ldr	r2, [pc, #688]	; (aec <F+0x31c>)
     83a:	54d1      	strb	r1, [r2, r3]
     83c:	6afb      	ldr	r3, [r7, #44]	; 0x2c
     83e:	3302      	adds	r3, #2
     840:	6aba      	ldr	r2, [r7, #40]	; 0x28
     842:	7891      	ldrb	r1, [r2, #2]
     844:	4aa9      	ldr	r2, [pc, #676]	; (aec <F+0x31c>)
     846:	54d1      	strb	r1, [r2, r3]
     848:	6afb      	ldr	r3, [r7, #44]	; 0x2c
     84a:	3303      	adds	r3, #3
     84c:	6aba      	ldr	r2, [r7, #40]	; 0x28
     84e:	78d1      	ldrb	r1, [r2, #3]
     850:	4aa6      	ldr	r2, [pc, #664]	; (aec <F+0x31c>)
     852:	54d1      	strb	r1, [r2, r3]
     854:	683b      	ldr	r3, [r7, #0]
     856:	1d1c      	adds	r4, r3, #4
     858:	4aa4      	ldr	r2, [pc, #656]	; (aec <F+0x31c>)
     85a:	68b9      	ldr	r1, [r7, #8]
     85c:	68f8      	ldr	r0, [r7, #12]
     85e:	2514      	movs	r5, #20
     860:	197b      	adds	r3, r7, r5
     862:	9300      	str	r3, [sp, #0]
     864:	0023      	movs	r3, r4
     866:	f003 fb6a 	bl	3f3e <hmac_isha>
     86a:	0029      	movs	r1, r5
     86c:	187b      	adds	r3, r7, r1
     86e:	781a      	ldrb	r2, [r3, #0]
     870:	6cbb      	ldr	r3, [r7, #72]	; 0x48
     872:	701a      	strb	r2, [r3, #0]
     874:	6cbb      	ldr	r3, [r7, #72]	; 0x48
     876:	3301      	adds	r3, #1
     878:	187a      	adds	r2, r7, r1
     87a:	7852      	ldrb	r2, [r2, #1]
     87c:	701a      	strb	r2, [r3, #0]
     87e:	6cbb      	ldr	r3, [r7, #72]	; 0x48
     880:	3302      	adds	r3, #2
     882:	187a      	adds	r2, r7, r1
     884:	7892      	ldrb	r2, [r2, #2]
     886:	701a      	strb	r2, [r3, #0]
     888:	6cbb      	ldr	r3, [r7, #72]	; 0x48
     88a:	3303      	adds	r3, #3
     88c:	187a      	adds	r2, r7, r1
     88e:	78d2      	ldrb	r2, [r2, #3]
     890:	701a      	strb	r2, [r3, #0]
     892:	6cbb      	ldr	r3, [r7, #72]	; 0x48
     894:	3304      	adds	r3, #4
     896:	187a      	adds	r2, r7, r1
     898:	7912      	ldrb	r2, [r2, #4]
     89a:	701a      	strb	r2, [r3, #0]
     89c:	6cbb      	ldr	r3, [r7, #72]	; 0x48
     89e:	3305      	adds	r3, #5
     8a0:	187a      	adds	r2, r7, r1
     8a2:	7952      	ldrb	r2, [r2, #5]
     8a4:	701a      	strb	r2, [r3, #0]
     8a6:	6cbb      	ldr	r3, [r7, #72]	; 0x48
     8a8:	3306      	adds	r3, #6
     8aa:	187a      	adds	r2, r7, r1
     8ac:	7992      	ldrb	r2, [r2, #6]
     8ae:	701a      	strb	r2, [r3, #0]
     8b0:	6cbb      	ldr	r3, [r7, #72]	; 0x48
     8b2:	3307      	adds	r3, #7
     8b4:	187a      	adds	r2, r7, r1
     8b6:	79d2      	ldrb	r2, [r2, #7]
     8b8:	701a      	strb	r2, [r3, #0]
     8ba:	6cbb      	ldr	r3, [r7, #72]	; 0x48
     8bc:	3308      	adds	r3, #8
     8be:	187a      	adds	r2, r7, r1
     8c0:	7a12      	ldrb	r2, [r2, #8]
     8c2:	701a      	strb	r2, [r3, #0]
     8c4:	6cbb      	ldr	r3, [r7, #72]	; 0x48
     8c6:	3309      	adds	r3, #9
     8c8:	187a      	adds	r2, r7, r1
     8ca:	7a52      	ldrb	r2, [r2, #9]
     8cc:	701a      	strb	r2, [r3, #0]
     8ce:	6cbb      	ldr	r3, [r7, #72]	; 0x48
     8d0:	330a      	adds	r3, #10
     8d2:	187a      	adds	r2, r7, r1
     8d4:	7a92      	ldrb	r2, [r2, #10]
     8d6:	701a      	strb	r2, [r3, #0]
     8d8:	6cbb      	ldr	r3, [r7, #72]	; 0x48
     8da:	330b      	adds	r3, #11
     8dc:	187a      	adds	r2, r7, r1
     8de:	7ad2      	ldrb	r2, [r2, #11]
     8e0:	701a      	strb	r2, [r3, #0]
     8e2:	6cbb      	ldr	r3, [r7, #72]	; 0x48
     8e4:	330c      	adds	r3, #12
     8e6:	187a      	adds	r2, r7, r1
     8e8:	7b12      	ldrb	r2, [r2, #12]
     8ea:	701a      	strb	r2, [r3, #0]
     8ec:	6cbb      	ldr	r3, [r7, #72]	; 0x48
     8ee:	330d      	adds	r3, #13
     8f0:	187a      	adds	r2, r7, r1
     8f2:	7b52      	ldrb	r2, [r2, #13]
     8f4:	701a      	strb	r2, [r3, #0]
     8f6:	6cbb      	ldr	r3, [r7, #72]	; 0x48
     8f8:	330e      	adds	r3, #14
     8fa:	187a      	adds	r2, r7, r1
     8fc:	7b92      	ldrb	r2, [r2, #14]
     8fe:	701a      	strb	r2, [r3, #0]
     900:	6cbb      	ldr	r3, [r7, #72]	; 0x48
     902:	330f      	adds	r3, #15
     904:	187a      	adds	r2, r7, r1
     906:	7bd2      	ldrb	r2, [r2, #15]
     908:	701a      	strb	r2, [r3, #0]
     90a:	6cbb      	ldr	r3, [r7, #72]	; 0x48
     90c:	3310      	adds	r3, #16
     90e:	187a      	adds	r2, r7, r1
     910:	7c12      	ldrb	r2, [r2, #16]
     912:	701a      	strb	r2, [r3, #0]
     914:	6cbb      	ldr	r3, [r7, #72]	; 0x48
     916:	3311      	adds	r3, #17
     918:	187a      	adds	r2, r7, r1
     91a:	7c52      	ldrb	r2, [r2, #17]
     91c:	701a      	strb	r2, [r3, #0]
     91e:	6cbb      	ldr	r3, [r7, #72]	; 0x48
     920:	3312      	adds	r3, #18
     922:	187a      	adds	r2, r7, r1
     924:	7c92      	ldrb	r2, [r2, #18]
     926:	701a      	strb	r2, [r3, #0]
     928:	6cbb      	ldr	r3, [r7, #72]	; 0x48
     92a:	3313      	adds	r3, #19
     92c:	187a      	adds	r2, r7, r1
     92e:	7cd2      	ldrb	r2, [r2, #19]
     930:	701a      	strb	r2, [r3, #0]
     932:	6c3c      	ldr	r4, [r7, #64]	; 0x40
     934:	e0cf      	b.n	ad6 <F+0x306>
     936:	2514      	movs	r5, #20
     938:	197a      	adds	r2, r7, r5
     93a:	68b9      	ldr	r1, [r7, #8]
     93c:	68f8      	ldr	r0, [r7, #12]
     93e:	197b      	adds	r3, r7, r5
     940:	9300      	str	r3, [sp, #0]
     942:	2314      	movs	r3, #20
     944:	f003 fafb 	bl	3f3e <hmac_isha>
     948:	6cbb      	ldr	r3, [r7, #72]	; 0x48
     94a:	781a      	ldrb	r2, [r3, #0]
     94c:	0028      	movs	r0, r5
     94e:	183b      	adds	r3, r7, r0
     950:	781b      	ldrb	r3, [r3, #0]
     952:	4053      	eors	r3, r2
     954:	b2da      	uxtb	r2, r3
     956:	6cbb      	ldr	r3, [r7, #72]	; 0x48
     958:	701a      	strb	r2, [r3, #0]
     95a:	6cbb      	ldr	r3, [r7, #72]	; 0x48
     95c:	3301      	adds	r3, #1
     95e:	7819      	ldrb	r1, [r3, #0]
     960:	183b      	adds	r3, r7, r0
     962:	785a      	ldrb	r2, [r3, #1]
     964:	6cbb      	ldr	r3, [r7, #72]	; 0x48
     966:	3301      	adds	r3, #1
     968:	404a      	eors	r2, r1
     96a:	b2d2      	uxtb	r2, r2
     96c:	701a      	strb	r2, [r3, #0]
     96e:	6cbb      	ldr	r3, [r7, #72]	; 0x48
     970:	3302      	adds	r3, #2
     972:	7819      	ldrb	r1, [r3, #0]
     974:	183b      	adds	r3, r7, r0
     976:	789a      	ldrb	r2, [r3, #2]
     978:	6cbb      	ldr	r3, [r7, #72]	; 0x48
     97a:	3302      	adds	r3, #2
     97c:	404a      	eors	r2, r1
     97e:	b2d2      	uxtb	r2, r2
     980:	701a      	strb	r2, [r3, #0]
     982:	6cbb      	ldr	r3, [r7, #72]	; 0x48
     984:	3303      	adds	r3, #3
     986:	7819      	ldrb	r1, [r3, #0]
     988:	183b      	adds	r3, r7, r0
     98a:	78da      	ldrb	r2, [r3, #3]
     98c:	6cbb      	ldr	r3, [r7, #72]	; 0x48
     98e:	3303      	adds	r3, #3
     990:	404a      	eors	r2, r1
     992:	b2d2      	uxtb	r2, r2
     994:	701a      	strb	r2, [r3, #0]
     996:	6cbb      	ldr	r3, [r7, #72]	; 0x48
     998:	3304      	adds	r3, #4
     99a:	7819      	ldrb	r1, [r3, #0]
     99c:	183b      	adds	r3, r7, r0
     99e:	791a      	ldrb	r2, [r3, #4]
     9a0:	6cbb      	ldr	r3, [r7, #72]	; 0x48
     9a2:	3304      	adds	r3, #4
     9a4:	404a      	eors	r2, r1
     9a6:	b2d2      	uxtb	r2, r2
     9a8:	701a      	strb	r2, [r3, #0]
     9aa:	6cbb      	ldr	r3, [r7, #72]	; 0x48
     9ac:	3305      	adds	r3, #5
     9ae:	7819      	ldrb	r1, [r3, #0]
     9b0:	183b      	adds	r3, r7, r0
     9b2:	795a      	ldrb	r2, [r3, #5]
     9b4:	6cbb      	ldr	r3, [r7, #72]	; 0x48
     9b6:	3305      	adds	r3, #5
     9b8:	404a      	eors	r2, r1
     9ba:	b2d2      	uxtb	r2, r2
     9bc:	701a      	strb	r2, [r3, #0]
     9be:	6cbb      	ldr	r3, [r7, #72]	; 0x48
     9c0:	3306      	adds	r3, #6
     9c2:	7819      	ldrb	r1, [r3, #0]
     9c4:	183b      	adds	r3, r7, r0
     9c6:	799a      	ldrb	r2, [r3, #6]
     9c8:	6cbb      	ldr	r3, [r7, #72]	; 0x48
     9ca:	3306      	adds	r3, #6
     9cc:	404a      	eors	r2, r1
     9ce:	b2d2      	uxtb	r2, r2
     9d0:	701a      	strb	r2, [r3, #0]
     9d2:	6cbb      	ldr	r3, [r7, #72]	; 0x48
     9d4:	3307      	adds	r3, #7
     9d6:	7819      	ldrb	r1, [r3, #0]
     9d8:	183b      	adds	r3, r7, r0
     9da:	79da      	ldrb	r2, [r3, #7]
     9dc:	6cbb      	ldr	r3, [r7, #72]	; 0x48
     9de:	3307      	adds	r3, #7
     9e0:	404a      	eors	r2, r1
     9e2:	b2d2      	uxtb	r2, r2
     9e4:	701a      	strb	r2, [r3, #0]
     9e6:	6cbb      	ldr	r3, [r7, #72]	; 0x48
     9e8:	3308      	adds	r3, #8
     9ea:	7819      	ldrb	r1, [r3, #0]
     9ec:	183b      	adds	r3, r7, r0
     9ee:	7a1a      	ldrb	r2, [r3, #8]
     9f0:	6cbb      	ldr	r3, [r7, #72]	; 0x48
     9f2:	3308      	adds	r3, #8
     9f4:	404a      	eors	r2, r1
     9f6:	b2d2      	uxtb	r2, r2
     9f8:	701a      	strb	r2, [r3, #0]
     9fa:	6cbb      	ldr	r3, [r7, #72]	; 0x48
     9fc:	3309      	adds	r3, #9
     9fe:	7819      	ldrb	r1, [r3, #0]
     a00:	183b      	adds	r3, r7, r0
     a02:	7a5a      	ldrb	r2, [r3, #9]
     a04:	6cbb      	ldr	r3, [r7, #72]	; 0x48
     a06:	3309      	adds	r3, #9
     a08:	404a      	eors	r2, r1
     a0a:	b2d2      	uxtb	r2, r2
     a0c:	701a      	strb	r2, [r3, #0]
     a0e:	6cbb      	ldr	r3, [r7, #72]	; 0x48
     a10:	330a      	adds	r3, #10
     a12:	7819      	ldrb	r1, [r3, #0]
     a14:	183b      	adds	r3, r7, r0
     a16:	7a9a      	ldrb	r2, [r3, #10]
     a18:	6cbb      	ldr	r3, [r7, #72]	; 0x48
     a1a:	330a      	adds	r3, #10
     a1c:	404a      	eors	r2, r1
     a1e:	b2d2      	uxtb	r2, r2
     a20:	701a      	strb	r2, [r3, #0]
     a22:	6cbb      	ldr	r3, [r7, #72]	; 0x48
     a24:	330b      	adds	r3, #11
     a26:	7819      	ldrb	r1, [r3, #0]
     a28:	183b      	adds	r3, r7, r0
     a2a:	7ada      	ldrb	r2, [r3, #11]
     a2c:	6cbb      	ldr	r3, [r7, #72]	; 0x48
     a2e:	330b      	adds	r3, #11
     a30:	404a      	eors	r2, r1
     a32:	b2d2      	uxtb	r2, r2
     a34:	701a      	strb	r2, [r3, #0]
     a36:	6cbb      	ldr	r3, [r7, #72]	; 0x48
     a38:	330c      	adds	r3, #12
     a3a:	7819      	ldrb	r1, [r3, #0]
     a3c:	183b      	adds	r3, r7, r0
     a3e:	7b1a      	ldrb	r2, [r3, #12]
     a40:	6cbb      	ldr	r3, [r7, #72]	; 0x48
     a42:	330c      	adds	r3, #12
     a44:	404a      	eors	r2, r1
     a46:	b2d2      	uxtb	r2, r2
     a48:	701a      	strb	r2, [r3, #0]
     a4a:	6cbb      	ldr	r3, [r7, #72]	; 0x48
     a4c:	330d      	adds	r3, #13
     a4e:	7819      	ldrb	r1, [r3, #0]
     a50:	183b      	adds	r3, r7, r0
     a52:	7b5a      	ldrb	r2, [r3, #13]
     a54:	6cbb      	ldr	r3, [r7, #72]	; 0x48
     a56:	330d      	adds	r3, #13
     a58:	404a      	eors	r2, r1
     a5a:	b2d2      	uxtb	r2, r2
     a5c:	701a      	strb	r2, [r3, #0]
     a5e:	6cbb      	ldr	r3, [r7, #72]	; 0x48
     a60:	330e      	adds	r3, #14
     a62:	7819      	ldrb	r1, [r3, #0]
     a64:	183b      	adds	r3, r7, r0
     a66:	7b9a      	ldrb	r2, [r3, #14]
     a68:	6cbb      	ldr	r3, [r7, #72]	; 0x48
     a6a:	330e      	adds	r3, #14
     a6c:	404a      	eors	r2, r1
     a6e:	b2d2      	uxtb	r2, r2
     a70:	701a      	strb	r2, [r3, #0]
     a72:	6cbb      	ldr	r3, [r7, #72]	; 0x48
     a74:	330f      	adds	r3, #15
     a76:	7819      	ldrb	r1, [r3, #0]
     a78:	183b      	adds	r3, r7, r0
     a7a:	7bda      	ldrb	r2, [r3, #15]
     a7c:	6cbb      	ldr	r3, [r7, #72]	; 0x48
     a7e:	330f      	adds	r3, #15
     a80:	404a      	eors	r2, r1
     a82:	b2d2      	uxtb	r2, r2
     a84:	701a      	strb	r2, [r3, #0]
     a86:	6cbb      	ldr	r3, [r7, #72]	; 0x48
     a88:	3310      	adds	r3, #16
     a8a:	7819      	ldrb	r1, [r3, #0]
     a8c:	183b      	adds	r3, r7, r0
     a8e:	7c1a      	ldrb	r2, [r3, #16]
     a90:	6cbb      	ldr	r3, [r7, #72]	; 0x48
     a92:	3310      	adds	r3, #16
     a94:	404a      	eors	r2, r1
     a96:	b2d2      	uxtb	r2, r2
     a98:	701a      	strb	r2, [r3, #0]
     a9a:	6cbb      	ldr	r3, [r7, #72]	; 0x48
     a9c:	3311      	adds	r3, #17
     a9e:	7819      	ldrb	r1, [r3, #0]
     aa0:	183b      	adds	r3, r7, r0
     aa2:	7c5a      	ldrb	r2, [r3, #17]
     aa4:	6cbb      	ldr	r3, [r7, #72]	; 0x48
     aa6:	3311      	adds	r3, #17
     aa8:	404a      	eors	r2, r1
     aaa:	b2d2      	uxtb	r2, r2
     aac:	701a      	strb	r2, [r3, #0]
     aae:	6cbb      	ldr	r3, [r7, #72]	; 0x48
     ab0:	3312      	adds	r3, #18
     ab2:	7819      	ldrb	r1, [r3, #0]
     ab4:	183b      	adds	r3, r7, r0
     ab6:	7c9a      	ldrb	r2, [r3, #18]
     ab8:	6cbb      	ldr	r3, [r7, #72]	; 0x48
     aba:	3312      	adds	r3, #18
     abc:	404a      	eors	r2, r1
     abe:	b2d2      	uxtb	r2, r2
     ac0:	701a      	strb	r2, [r3, #0]
     ac2:	6cbb      	ldr	r3, [r7, #72]	; 0x48
     ac4:	3313      	adds	r3, #19
     ac6:	7819      	ldrb	r1, [r3, #0]
     ac8:	183b      	adds	r3, r7, r0
     aca:	7cda      	ldrb	r2, [r3, #19]
     acc:	6cbb      	ldr	r3, [r7, #72]	; 0x48
     ace:	3313      	adds	r3, #19
     ad0:	404a      	eors	r2, r1
     ad2:	b2d2      	uxtb	r2, r2
     ad4:	701a      	strb	r2, [r3, #0]
     ad6:	3c01      	subs	r4, #1
     ad8:	2c00      	cmp	r4, #0
     ada:	d000      	beq.n	ade <F+0x30e>
     adc:	e72b      	b.n	936 <F+0x166>
     ade:	46c0      	nop			; (mov r8, r8)
     ae0:	46c0      	nop			; (mov r8, r8)
     ae2:	46bd      	mov	sp, r7
     ae4:	b00c      	add	sp, #48	; 0x30
     ae6:	bdb0      	pop	{r4, r5, r7, pc}
     ae8:	00004570 	.word	0x00004570
     aec:	1ffff098 	.word	0x1ffff098

00000af0 <pbkdf2_hmac_isha>:
     af0:	b5b0      	push	{r4, r5, r7, lr}
     af2:	b08a      	sub	sp, #40	; 0x28
     af4:	af04      	add	r7, sp, #16
     af6:	60f8      	str	r0, [r7, #12]
     af8:	60b9      	str	r1, [r7, #8]
     afa:	607a      	str	r2, [r7, #4]
     afc:	603b      	str	r3, [r7, #0]
     afe:	2300      	movs	r3, #0
     b00:	617b      	str	r3, [r7, #20]
     b02:	6afa      	ldr	r2, [r7, #44]	; 0x2c
     b04:	23a0      	movs	r3, #160	; 0xa0
     b06:	011b      	lsls	r3, r3, #4
     b08:	429a      	cmp	r2, r3
     b0a:	d303      	bcc.n	b14 <pbkdf2_hmac_isha+0x24>
     b0c:	4b1e      	ldr	r3, [pc, #120]	; (b88 <pbkdf2_hmac_isha+0x98>)
     b0e:	0018      	movs	r0, r3
     b10:	f001 fcce 	bl	24b0 <__assertion_failed>
     b14:	6afb      	ldr	r3, [r7, #44]	; 0x2c
     b16:	2114      	movs	r1, #20
     b18:	0018      	movs	r0, r3
     b1a:	f003 fbcd 	bl	42b8 <__aeabi_uidiv>
     b1e:	0003      	movs	r3, r0
     b20:	3301      	adds	r3, #1
     b22:	617b      	str	r3, [r7, #20]
     b24:	e015      	b.n	b52 <pbkdf2_hmac_isha+0x62>
     b26:	697b      	ldr	r3, [r7, #20]
     b28:	1c59      	adds	r1, r3, #1
     b2a:	697a      	ldr	r2, [r7, #20]
     b2c:	0013      	movs	r3, r2
     b2e:	009b      	lsls	r3, r3, #2
     b30:	189b      	adds	r3, r3, r2
     b32:	009b      	lsls	r3, r3, #2
     b34:	001a      	movs	r2, r3
     b36:	4b15      	ldr	r3, [pc, #84]	; (b8c <pbkdf2_hmac_isha+0x9c>)
     b38:	18d3      	adds	r3, r2, r3
     b3a:	683d      	ldr	r5, [r7, #0]
     b3c:	687a      	ldr	r2, [r7, #4]
     b3e:	68bc      	ldr	r4, [r7, #8]
     b40:	68f8      	ldr	r0, [r7, #12]
     b42:	9302      	str	r3, [sp, #8]
     b44:	9101      	str	r1, [sp, #4]
     b46:	6abb      	ldr	r3, [r7, #40]	; 0x28
     b48:	9300      	str	r3, [sp, #0]
     b4a:	002b      	movs	r3, r5
     b4c:	0021      	movs	r1, r4
     b4e:	f7ff fe3f 	bl	7d0 <F>
     b52:	697b      	ldr	r3, [r7, #20]
     b54:	1e5a      	subs	r2, r3, #1
     b56:	617a      	str	r2, [r7, #20]
     b58:	2b00      	cmp	r3, #0
     b5a:	d1e4      	bne.n	b26 <pbkdf2_hmac_isha+0x36>
     b5c:	6afb      	ldr	r3, [r7, #44]	; 0x2c
     b5e:	617b      	str	r3, [r7, #20]
     b60:	e007      	b.n	b72 <pbkdf2_hmac_isha+0x82>
     b62:	6b3a      	ldr	r2, [r7, #48]	; 0x30
     b64:	697b      	ldr	r3, [r7, #20]
     b66:	18d3      	adds	r3, r2, r3
     b68:	4908      	ldr	r1, [pc, #32]	; (b8c <pbkdf2_hmac_isha+0x9c>)
     b6a:	697a      	ldr	r2, [r7, #20]
     b6c:	188a      	adds	r2, r1, r2
     b6e:	7812      	ldrb	r2, [r2, #0]
     b70:	701a      	strb	r2, [r3, #0]
     b72:	697b      	ldr	r3, [r7, #20]
     b74:	1e5a      	subs	r2, r3, #1
     b76:	617a      	str	r2, [r7, #20]
     b78:	2b00      	cmp	r3, #0
     b7a:	d1f2      	bne.n	b62 <pbkdf2_hmac_isha+0x72>
     b7c:	46c0      	nop			; (mov r8, r8)
     b7e:	46c0      	nop			; (mov r8, r8)
     b80:	46bd      	mov	sp, r7
     b82:	b006      	add	sp, #24
     b84:	bdb0      	pop	{r4, r5, r7, pc}
     b86:	46c0      	nop			; (mov r8, r8)
     b88:	000045a0 	.word	0x000045a0
     b8c:	1ffff898 	.word	0x1ffff898

00000b90 <hexdigit_to_int>:
     b90:	b580      	push	{r7, lr}
     b92:	b082      	sub	sp, #8
     b94:	af00      	add	r7, sp, #0
     b96:	0002      	movs	r2, r0
     b98:	1dfb      	adds	r3, r7, #7
     b9a:	701a      	strb	r2, [r3, #0]
     b9c:	1dfb      	adds	r3, r7, #7
     b9e:	781b      	ldrb	r3, [r3, #0]
     ba0:	2b60      	cmp	r3, #96	; 0x60
     ba2:	d908      	bls.n	bb6 <hexdigit_to_int+0x26>
     ba4:	1dfb      	adds	r3, r7, #7
     ba6:	781b      	ldrb	r3, [r3, #0]
     ba8:	2b66      	cmp	r3, #102	; 0x66
     baa:	d804      	bhi.n	bb6 <hexdigit_to_int+0x26>
     bac:	1dfb      	adds	r3, r7, #7
     bae:	781b      	ldrb	r3, [r3, #0]
     bb0:	3b57      	subs	r3, #87	; 0x57
     bb2:	b2db      	uxtb	r3, r3
     bb4:	e01d      	b.n	bf2 <hexdigit_to_int+0x62>
     bb6:	1dfb      	adds	r3, r7, #7
     bb8:	781b      	ldrb	r3, [r3, #0]
     bba:	2b40      	cmp	r3, #64	; 0x40
     bbc:	d908      	bls.n	bd0 <hexdigit_to_int+0x40>
     bbe:	1dfb      	adds	r3, r7, #7
     bc0:	781b      	ldrb	r3, [r3, #0]
     bc2:	2b46      	cmp	r3, #70	; 0x46
     bc4:	d804      	bhi.n	bd0 <hexdigit_to_int+0x40>
     bc6:	1dfb      	adds	r3, r7, #7
     bc8:	781b      	ldrb	r3, [r3, #0]
     bca:	3b37      	subs	r3, #55	; 0x37
     bcc:	b2db      	uxtb	r3, r3
     bce:	e010      	b.n	bf2 <hexdigit_to_int+0x62>
     bd0:	1dfb      	adds	r3, r7, #7
     bd2:	781b      	ldrb	r3, [r3, #0]
     bd4:	2b2f      	cmp	r3, #47	; 0x2f
     bd6:	d908      	bls.n	bea <hexdigit_to_int+0x5a>
     bd8:	1dfb      	adds	r3, r7, #7
     bda:	781b      	ldrb	r3, [r3, #0]
     bdc:	2b39      	cmp	r3, #57	; 0x39
     bde:	d804      	bhi.n	bea <hexdigit_to_int+0x5a>
     be0:	1dfb      	adds	r3, r7, #7
     be2:	781b      	ldrb	r3, [r3, #0]
     be4:	3b30      	subs	r3, #48	; 0x30
     be6:	b2db      	uxtb	r3, r3
     be8:	e003      	b.n	bf2 <hexdigit_to_int+0x62>
     bea:	4b04      	ldr	r3, [pc, #16]	; (bfc <hexdigit_to_int+0x6c>)
     bec:	0018      	movs	r0, r3
     bee:	f001 fc5f 	bl	24b0 <__assertion_failed>
     bf2:	0018      	movs	r0, r3
     bf4:	46bd      	mov	sp, r7
     bf6:	b002      	add	sp, #8
     bf8:	bd80      	pop	{r7, pc}
     bfa:	46c0      	nop			; (mov r8, r8)
     bfc:	00004d90 	.word	0x00004d90

00000c00 <test_isha>:
     c00:	b5f0      	push	{r4, r5, r6, r7, lr}
     c02:	b0b3      	sub	sp, #204	; 0xcc
     c04:	af00      	add	r7, sp, #0
     c06:	238c      	movs	r3, #140	; 0x8c
     c08:	18fb      	adds	r3, r7, r3
     c0a:	4a88      	ldr	r2, [pc, #544]	; (e2c <test_isha+0x22c>)
     c0c:	ca13      	ldmia	r2!, {r0, r1, r4}
     c0e:	c313      	stmia	r3!, {r0, r1, r4}
     c10:	ca13      	ldmia	r2!, {r0, r1, r4}
     c12:	c313      	stmia	r3!, {r0, r1, r4}
     c14:	ca03      	ldmia	r2!, {r0, r1}
     c16:	c303      	stmia	r3!, {r0, r1}
     c18:	2304      	movs	r3, #4
     c1a:	22b0      	movs	r2, #176	; 0xb0
     c1c:	18ba      	adds	r2, r7, r2
     c1e:	6013      	str	r3, [r2, #0]
     c20:	2300      	movs	r3, #0
     c22:	22c4      	movs	r2, #196	; 0xc4
     c24:	18ba      	adds	r2, r7, r2
     c26:	6013      	str	r3, [r2, #0]
     c28:	2300      	movs	r3, #0
     c2a:	22bc      	movs	r2, #188	; 0xbc
     c2c:	18ba      	adds	r2, r7, r2
     c2e:	6013      	str	r3, [r2, #0]
     c30:	e055      	b.n	cde <test_isha+0xde>
     c32:	258c      	movs	r5, #140	; 0x8c
     c34:	197b      	adds	r3, r7, r5
     c36:	24bc      	movs	r4, #188	; 0xbc
     c38:	193a      	adds	r2, r7, r4
     c3a:	6812      	ldr	r2, [r2, #0]
     c3c:	00d2      	lsls	r2, r2, #3
     c3e:	58d3      	ldr	r3, [r2, r3]
     c40:	0018      	movs	r0, r3
     c42:	f002 fe41 	bl	38c8 <strlen>
     c46:	0003      	movs	r3, r0
     c48:	26c0      	movs	r6, #192	; 0xc0
     c4a:	19ba      	adds	r2, r7, r6
     c4c:	6013      	str	r3, [r2, #0]
     c4e:	197a      	adds	r2, r7, r5
     c50:	193b      	adds	r3, r7, r4
     c52:	681b      	ldr	r3, [r3, #0]
     c54:	00db      	lsls	r3, r3, #3
     c56:	18d3      	adds	r3, r2, r3
     c58:	3304      	adds	r3, #4
     c5a:	6819      	ldr	r1, [r3, #0]
     c5c:	2378      	movs	r3, #120	; 0x78
     c5e:	18fb      	adds	r3, r7, r3
     c60:	2214      	movs	r2, #20
     c62:	0018      	movs	r0, r3
     c64:	f003 fa03 	bl	406e <hexstr_to_bytes>
     c68:	003b      	movs	r3, r7
     c6a:	0018      	movs	r0, r3
     c6c:	f7ff fc76 	bl	55c <ISHAReset>
     c70:	197b      	adds	r3, r7, r5
     c72:	193a      	adds	r2, r7, r4
     c74:	6812      	ldr	r2, [r2, #0]
     c76:	00d2      	lsls	r2, r2, #3
     c78:	58d1      	ldr	r1, [r2, r3]
     c7a:	19ba      	adds	r2, r7, r6
     c7c:	6812      	ldr	r2, [r2, #0]
     c7e:	003b      	movs	r3, r7
     c80:	0018      	movs	r0, r3
     c82:	f003 f915 	bl	3eb0 <ISHAInput>
     c86:	2564      	movs	r5, #100	; 0x64
     c88:	197a      	adds	r2, r7, r5
     c8a:	003b      	movs	r3, r7
     c8c:	0011      	movs	r1, r2
     c8e:	0018      	movs	r0, r3
     c90:	f003 f876 	bl	3d80 <ISHAResult>
     c94:	2378      	movs	r3, #120	; 0x78
     c96:	18f9      	adds	r1, r7, r3
     c98:	197b      	adds	r3, r7, r5
     c9a:	2214      	movs	r2, #20
     c9c:	0018      	movs	r0, r3
     c9e:	f003 f9c5 	bl	402c <cmp_bin>
     ca2:	1e03      	subs	r3, r0, #0
     ca4:	d00d      	beq.n	cc2 <test_isha+0xc2>
     ca6:	193b      	adds	r3, r7, r4
     ca8:	681a      	ldr	r2, [r3, #0]
     caa:	4961      	ldr	r1, [pc, #388]	; (e30 <test_isha+0x230>)
     cac:	4b61      	ldr	r3, [pc, #388]	; (e34 <test_isha+0x234>)
     cae:	0018      	movs	r0, r3
     cb0:	f002 fda6 	bl	3800 <_printf>
     cb4:	22c4      	movs	r2, #196	; 0xc4
     cb6:	18bb      	adds	r3, r7, r2
     cb8:	681b      	ldr	r3, [r3, #0]
     cba:	3301      	adds	r3, #1
     cbc:	18ba      	adds	r2, r7, r2
     cbe:	6013      	str	r3, [r2, #0]
     cc0:	e007      	b.n	cd2 <test_isha+0xd2>
     cc2:	23bc      	movs	r3, #188	; 0xbc
     cc4:	18fb      	adds	r3, r7, r3
     cc6:	681a      	ldr	r2, [r3, #0]
     cc8:	4959      	ldr	r1, [pc, #356]	; (e30 <test_isha+0x230>)
     cca:	4b5b      	ldr	r3, [pc, #364]	; (e38 <test_isha+0x238>)
     ccc:	0018      	movs	r0, r3
     cce:	f002 fd97 	bl	3800 <_printf>
     cd2:	22bc      	movs	r2, #188	; 0xbc
     cd4:	18bb      	adds	r3, r7, r2
     cd6:	681b      	ldr	r3, [r3, #0]
     cd8:	3301      	adds	r3, #1
     cda:	18ba      	adds	r2, r7, r2
     cdc:	6013      	str	r3, [r2, #0]
     cde:	23bc      	movs	r3, #188	; 0xbc
     ce0:	18fb      	adds	r3, r7, r3
     ce2:	681a      	ldr	r2, [r3, #0]
     ce4:	23b0      	movs	r3, #176	; 0xb0
     ce6:	18fb      	adds	r3, r7, r3
     ce8:	681b      	ldr	r3, [r3, #0]
     cea:	429a      	cmp	r2, r3
     cec:	dba1      	blt.n	c32 <test_isha+0x32>
     cee:	2300      	movs	r3, #0
     cf0:	22b8      	movs	r2, #184	; 0xb8
     cf2:	18ba      	adds	r2, r7, r2
     cf4:	6013      	str	r3, [r2, #0]
     cf6:	e082      	b.n	dfe <test_isha+0x1fe>
     cf8:	248c      	movs	r4, #140	; 0x8c
     cfa:	193b      	adds	r3, r7, r4
     cfc:	25b8      	movs	r5, #184	; 0xb8
     cfe:	197a      	adds	r2, r7, r5
     d00:	6812      	ldr	r2, [r2, #0]
     d02:	00d2      	lsls	r2, r2, #3
     d04:	58d3      	ldr	r3, [r2, r3]
     d06:	22b4      	movs	r2, #180	; 0xb4
     d08:	18ba      	adds	r2, r7, r2
     d0a:	6013      	str	r3, [r2, #0]
     d0c:	193b      	adds	r3, r7, r4
     d0e:	197a      	adds	r2, r7, r5
     d10:	6812      	ldr	r2, [r2, #0]
     d12:	00d2      	lsls	r2, r2, #3
     d14:	58d3      	ldr	r3, [r2, r3]
     d16:	0018      	movs	r0, r3
     d18:	f002 fdd6 	bl	38c8 <strlen>
     d1c:	0003      	movs	r3, r0
     d1e:	22c0      	movs	r2, #192	; 0xc0
     d20:	18ba      	adds	r2, r7, r2
     d22:	6013      	str	r3, [r2, #0]
     d24:	193a      	adds	r2, r7, r4
     d26:	197b      	adds	r3, r7, r5
     d28:	681b      	ldr	r3, [r3, #0]
     d2a:	00db      	lsls	r3, r3, #3
     d2c:	18d3      	adds	r3, r2, r3
     d2e:	3304      	adds	r3, #4
     d30:	6819      	ldr	r1, [r3, #0]
     d32:	2378      	movs	r3, #120	; 0x78
     d34:	18fb      	adds	r3, r7, r3
     d36:	2214      	movs	r2, #20
     d38:	0018      	movs	r0, r3
     d3a:	f003 f998 	bl	406e <hexstr_to_bytes>
     d3e:	003b      	movs	r3, r7
     d40:	0018      	movs	r0, r3
     d42:	f7ff fc0b 	bl	55c <ISHAReset>
     d46:	e020      	b.n	d8a <test_isha+0x18a>
     d48:	23c0      	movs	r3, #192	; 0xc0
     d4a:	18fb      	adds	r3, r7, r3
     d4c:	681b      	ldr	r3, [r3, #0]
     d4e:	2b0a      	cmp	r3, #10
     d50:	dd00      	ble.n	d54 <test_isha+0x154>
     d52:	230a      	movs	r3, #10
     d54:	24ac      	movs	r4, #172	; 0xac
     d56:	193a      	adds	r2, r7, r4
     d58:	6013      	str	r3, [r2, #0]
     d5a:	193b      	adds	r3, r7, r4
     d5c:	681a      	ldr	r2, [r3, #0]
     d5e:	25b4      	movs	r5, #180	; 0xb4
     d60:	197b      	adds	r3, r7, r5
     d62:	6819      	ldr	r1, [r3, #0]
     d64:	003b      	movs	r3, r7
     d66:	0018      	movs	r0, r3
     d68:	f003 f8a2 	bl	3eb0 <ISHAInput>
     d6c:	21c0      	movs	r1, #192	; 0xc0
     d6e:	187b      	adds	r3, r7, r1
     d70:	681a      	ldr	r2, [r3, #0]
     d72:	193b      	adds	r3, r7, r4
     d74:	681b      	ldr	r3, [r3, #0]
     d76:	1ad3      	subs	r3, r2, r3
     d78:	187a      	adds	r2, r7, r1
     d7a:	6013      	str	r3, [r2, #0]
     d7c:	193b      	adds	r3, r7, r4
     d7e:	681b      	ldr	r3, [r3, #0]
     d80:	197a      	adds	r2, r7, r5
     d82:	6812      	ldr	r2, [r2, #0]
     d84:	18d3      	adds	r3, r2, r3
     d86:	197a      	adds	r2, r7, r5
     d88:	6013      	str	r3, [r2, #0]
     d8a:	23c0      	movs	r3, #192	; 0xc0
     d8c:	18fb      	adds	r3, r7, r3
     d8e:	681b      	ldr	r3, [r3, #0]
     d90:	2b00      	cmp	r3, #0
     d92:	dcd9      	bgt.n	d48 <test_isha+0x148>
     d94:	2464      	movs	r4, #100	; 0x64
     d96:	193a      	adds	r2, r7, r4
     d98:	003b      	movs	r3, r7
     d9a:	0011      	movs	r1, r2
     d9c:	0018      	movs	r0, r3
     d9e:	f002 ffef 	bl	3d80 <ISHAResult>
     da2:	2378      	movs	r3, #120	; 0x78
     da4:	18f9      	adds	r1, r7, r3
     da6:	193b      	adds	r3, r7, r4
     da8:	2214      	movs	r2, #20
     daa:	0018      	movs	r0, r3
     dac:	f003 f93e 	bl	402c <cmp_bin>
     db0:	1e03      	subs	r3, r0, #0
     db2:	d012      	beq.n	dda <test_isha+0x1da>
     db4:	23b8      	movs	r3, #184	; 0xb8
     db6:	18fb      	adds	r3, r7, r3
     db8:	681a      	ldr	r2, [r3, #0]
     dba:	23b0      	movs	r3, #176	; 0xb0
     dbc:	18fb      	adds	r3, r7, r3
     dbe:	681b      	ldr	r3, [r3, #0]
     dc0:	18d2      	adds	r2, r2, r3
     dc2:	491b      	ldr	r1, [pc, #108]	; (e30 <test_isha+0x230>)
     dc4:	4b1b      	ldr	r3, [pc, #108]	; (e34 <test_isha+0x234>)
     dc6:	0018      	movs	r0, r3
     dc8:	f002 fd1a 	bl	3800 <_printf>
     dcc:	22c4      	movs	r2, #196	; 0xc4
     dce:	18bb      	adds	r3, r7, r2
     dd0:	681b      	ldr	r3, [r3, #0]
     dd2:	3301      	adds	r3, #1
     dd4:	18ba      	adds	r2, r7, r2
     dd6:	6013      	str	r3, [r2, #0]
     dd8:	e00b      	b.n	df2 <test_isha+0x1f2>
     dda:	23b8      	movs	r3, #184	; 0xb8
     ddc:	18fb      	adds	r3, r7, r3
     dde:	681a      	ldr	r2, [r3, #0]
     de0:	23b0      	movs	r3, #176	; 0xb0
     de2:	18fb      	adds	r3, r7, r3
     de4:	681b      	ldr	r3, [r3, #0]
     de6:	18d2      	adds	r2, r2, r3
     de8:	4911      	ldr	r1, [pc, #68]	; (e30 <test_isha+0x230>)
     dea:	4b13      	ldr	r3, [pc, #76]	; (e38 <test_isha+0x238>)
     dec:	0018      	movs	r0, r3
     dee:	f002 fd07 	bl	3800 <_printf>
     df2:	22b8      	movs	r2, #184	; 0xb8
     df4:	18bb      	adds	r3, r7, r2
     df6:	681b      	ldr	r3, [r3, #0]
     df8:	3301      	adds	r3, #1
     dfa:	18ba      	adds	r2, r7, r2
     dfc:	6013      	str	r3, [r2, #0]
     dfe:	23b8      	movs	r3, #184	; 0xb8
     e00:	18fb      	adds	r3, r7, r3
     e02:	681a      	ldr	r2, [r3, #0]
     e04:	21b0      	movs	r1, #176	; 0xb0
     e06:	187b      	adds	r3, r7, r1
     e08:	681b      	ldr	r3, [r3, #0]
     e0a:	429a      	cmp	r2, r3
     e0c:	da00      	bge.n	e10 <test_isha+0x210>
     e0e:	e773      	b.n	cf8 <test_isha+0xf8>
     e10:	187b      	adds	r3, r7, r1
     e12:	681b      	ldr	r3, [r3, #0]
     e14:	005b      	lsls	r3, r3, #1
     e16:	22c4      	movs	r2, #196	; 0xc4
     e18:	18ba      	adds	r2, r7, r2
     e1a:	6812      	ldr	r2, [r2, #0]
     e1c:	1ad3      	subs	r3, r2, r3
     e1e:	425a      	negs	r2, r3
     e20:	4153      	adcs	r3, r2
     e22:	b2db      	uxtb	r3, r3
     e24:	0018      	movs	r0, r3
     e26:	46bd      	mov	sp, r7
     e28:	b033      	add	sp, #204	; 0xcc
     e2a:	bdf0      	pop	{r4, r5, r6, r7, pc}
     e2c:	00004dd8 	.word	0x00004dd8
     e30:	00004f34 	.word	0x00004f34
     e34:	00004da8 	.word	0x00004da8
     e38:	00004dc0 	.word	0x00004dc0

00000e3c <test_hmac_isha>:
     e3c:	b5f0      	push	{r4, r5, r6, r7, lr}
     e3e:	b09b      	sub	sp, #108	; 0x6c
     e40:	af02      	add	r7, sp, #8
     e42:	2328      	movs	r3, #40	; 0x28
     e44:	18fb      	adds	r3, r7, r3
     e46:	4a3d      	ldr	r2, [pc, #244]	; (f3c <test_hmac_isha+0x100>)
     e48:	ca13      	ldmia	r2!, {r0, r1, r4}
     e4a:	c313      	stmia	r3!, {r0, r1, r4}
     e4c:	ca13      	ldmia	r2!, {r0, r1, r4}
     e4e:	c313      	stmia	r3!, {r0, r1, r4}
     e50:	ca13      	ldmia	r2!, {r0, r1, r4}
     e52:	c313      	stmia	r3!, {r0, r1, r4}
     e54:	2303      	movs	r3, #3
     e56:	657b      	str	r3, [r7, #84]	; 0x54
     e58:	2300      	movs	r3, #0
     e5a:	65fb      	str	r3, [r7, #92]	; 0x5c
     e5c:	2300      	movs	r3, #0
     e5e:	65bb      	str	r3, [r7, #88]	; 0x58
     e60:	e05d      	b.n	f1e <test_hmac_isha+0xe2>
     e62:	2428      	movs	r4, #40	; 0x28
     e64:	1939      	adds	r1, r7, r4
     e66:	6dba      	ldr	r2, [r7, #88]	; 0x58
     e68:	0013      	movs	r3, r2
     e6a:	005b      	lsls	r3, r3, #1
     e6c:	189b      	adds	r3, r3, r2
     e6e:	009b      	lsls	r3, r3, #2
     e70:	585b      	ldr	r3, [r3, r1]
     e72:	0018      	movs	r0, r3
     e74:	f002 fd28 	bl	38c8 <strlen>
     e78:	0003      	movs	r3, r0
     e7a:	653b      	str	r3, [r7, #80]	; 0x50
     e7c:	1939      	adds	r1, r7, r4
     e7e:	6dba      	ldr	r2, [r7, #88]	; 0x58
     e80:	0013      	movs	r3, r2
     e82:	005b      	lsls	r3, r3, #1
     e84:	189b      	adds	r3, r3, r2
     e86:	009b      	lsls	r3, r3, #2
     e88:	18cb      	adds	r3, r1, r3
     e8a:	3304      	adds	r3, #4
     e8c:	681b      	ldr	r3, [r3, #0]
     e8e:	0018      	movs	r0, r3
     e90:	f002 fd1a 	bl	38c8 <strlen>
     e94:	0003      	movs	r3, r0
     e96:	64fb      	str	r3, [r7, #76]	; 0x4c
     e98:	1939      	adds	r1, r7, r4
     e9a:	6dba      	ldr	r2, [r7, #88]	; 0x58
     e9c:	0013      	movs	r3, r2
     e9e:	005b      	lsls	r3, r3, #1
     ea0:	189b      	adds	r3, r3, r2
     ea2:	009b      	lsls	r3, r3, #2
     ea4:	18cb      	adds	r3, r1, r3
     ea6:	3308      	adds	r3, #8
     ea8:	6819      	ldr	r1, [r3, #0]
     eaa:	2614      	movs	r6, #20
     eac:	19bb      	adds	r3, r7, r6
     eae:	2214      	movs	r2, #20
     eb0:	0018      	movs	r0, r3
     eb2:	f003 f8dc 	bl	406e <hexstr_to_bytes>
     eb6:	0025      	movs	r5, r4
     eb8:	1939      	adds	r1, r7, r4
     eba:	6dba      	ldr	r2, [r7, #88]	; 0x58
     ebc:	0013      	movs	r3, r2
     ebe:	005b      	lsls	r3, r3, #1
     ec0:	189b      	adds	r3, r3, r2
     ec2:	009b      	lsls	r3, r3, #2
     ec4:	5858      	ldr	r0, [r3, r1]
     ec6:	6d3c      	ldr	r4, [r7, #80]	; 0x50
     ec8:	1979      	adds	r1, r7, r5
     eca:	6dba      	ldr	r2, [r7, #88]	; 0x58
     ecc:	0013      	movs	r3, r2
     ece:	005b      	lsls	r3, r3, #1
     ed0:	189b      	adds	r3, r3, r2
     ed2:	009b      	lsls	r3, r3, #2
     ed4:	18cb      	adds	r3, r1, r3
     ed6:	3304      	adds	r3, #4
     ed8:	681a      	ldr	r2, [r3, #0]
     eda:	6cf9      	ldr	r1, [r7, #76]	; 0x4c
     edc:	003b      	movs	r3, r7
     ede:	9300      	str	r3, [sp, #0]
     ee0:	000b      	movs	r3, r1
     ee2:	0021      	movs	r1, r4
     ee4:	f003 f82b 	bl	3f3e <hmac_isha>
     ee8:	19b9      	adds	r1, r7, r6
     eea:	003b      	movs	r3, r7
     eec:	2214      	movs	r2, #20
     eee:	0018      	movs	r0, r3
     ef0:	f003 f89c 	bl	402c <cmp_bin>
     ef4:	1e03      	subs	r3, r0, #0
     ef6:	d009      	beq.n	f0c <test_hmac_isha+0xd0>
     ef8:	6dba      	ldr	r2, [r7, #88]	; 0x58
     efa:	4911      	ldr	r1, [pc, #68]	; (f40 <test_hmac_isha+0x104>)
     efc:	4b11      	ldr	r3, [pc, #68]	; (f44 <test_hmac_isha+0x108>)
     efe:	0018      	movs	r0, r3
     f00:	f002 fc7e 	bl	3800 <_printf>
     f04:	6dfb      	ldr	r3, [r7, #92]	; 0x5c
     f06:	3301      	adds	r3, #1
     f08:	65fb      	str	r3, [r7, #92]	; 0x5c
     f0a:	e005      	b.n	f18 <test_hmac_isha+0xdc>
     f0c:	6dba      	ldr	r2, [r7, #88]	; 0x58
     f0e:	490c      	ldr	r1, [pc, #48]	; (f40 <test_hmac_isha+0x104>)
     f10:	4b0d      	ldr	r3, [pc, #52]	; (f48 <test_hmac_isha+0x10c>)
     f12:	0018      	movs	r0, r3
     f14:	f002 fc74 	bl	3800 <_printf>
     f18:	6dbb      	ldr	r3, [r7, #88]	; 0x58
     f1a:	3301      	adds	r3, #1
     f1c:	65bb      	str	r3, [r7, #88]	; 0x58
     f1e:	6dba      	ldr	r2, [r7, #88]	; 0x58
     f20:	6d7b      	ldr	r3, [r7, #84]	; 0x54
     f22:	429a      	cmp	r2, r3
     f24:	db9d      	blt.n	e62 <test_hmac_isha+0x26>
     f26:	6d7a      	ldr	r2, [r7, #84]	; 0x54
     f28:	6dfb      	ldr	r3, [r7, #92]	; 0x5c
     f2a:	1ad3      	subs	r3, r2, r3
     f2c:	425a      	negs	r2, r3
     f2e:	4153      	adcs	r3, r2
     f30:	b2db      	uxtb	r3, r3
     f32:	0018      	movs	r0, r3
     f34:	46bd      	mov	sp, r7
     f36:	b019      	add	sp, #100	; 0x64
     f38:	bdf0      	pop	{r4, r5, r6, r7, pc}
     f3a:	46c0      	nop			; (mov r8, r8)
     f3c:	00004df8 	.word	0x00004df8
     f40:	00004f40 	.word	0x00004f40
     f44:	00004da8 	.word	0x00004da8
     f48:	00004dc0 	.word	0x00004dc0

00000f4c <test_pbkdf2_hmac_isha>:
     f4c:	b5f0      	push	{r4, r5, r6, r7, lr}
     f4e:	4c7f      	ldr	r4, [pc, #508]	; (114c <test_pbkdf2_hmac_isha+0x200>)
     f50:	44a5      	add	sp, r4
     f52:	af04      	add	r7, sp, #16
     f54:	2380      	movs	r3, #128	; 0x80
     f56:	00db      	lsls	r3, r3, #3
     f58:	18fa      	adds	r2, r7, r3
     f5a:	4b7d      	ldr	r3, [pc, #500]	; (1150 <test_pbkdf2_hmac_isha+0x204>)
     f5c:	0010      	movs	r0, r2
     f5e:	0019      	movs	r1, r3
     f60:	23dc      	movs	r3, #220	; 0xdc
     f62:	001a      	movs	r2, r3
     f64:	f003 f965 	bl	4232 <memcpy>
     f68:	230b      	movs	r3, #11
     f6a:	4a7a      	ldr	r2, [pc, #488]	; (1154 <test_pbkdf2_hmac_isha+0x208>)
     f6c:	18ba      	adds	r2, r7, r2
     f6e:	6013      	str	r3, [r2, #0]
     f70:	2300      	movs	r3, #0
     f72:	4a79      	ldr	r2, [pc, #484]	; (1158 <test_pbkdf2_hmac_isha+0x20c>)
     f74:	18ba      	adds	r2, r7, r2
     f76:	6013      	str	r3, [r2, #0]
     f78:	2300      	movs	r3, #0
     f7a:	229d      	movs	r2, #157	; 0x9d
     f7c:	00d2      	lsls	r2, r2, #3
     f7e:	18ba      	adds	r2, r7, r2
     f80:	6013      	str	r3, [r2, #0]
     f82:	e0ca      	b.n	111a <test_pbkdf2_hmac_isha+0x1ce>
     f84:	2480      	movs	r4, #128	; 0x80
     f86:	00e4      	lsls	r4, r4, #3
     f88:	1939      	adds	r1, r7, r4
     f8a:	259d      	movs	r5, #157	; 0x9d
     f8c:	00ed      	lsls	r5, r5, #3
     f8e:	197b      	adds	r3, r7, r5
     f90:	681a      	ldr	r2, [r3, #0]
     f92:	0013      	movs	r3, r2
     f94:	009b      	lsls	r3, r3, #2
     f96:	189b      	adds	r3, r3, r2
     f98:	009b      	lsls	r3, r3, #2
     f9a:	585b      	ldr	r3, [r3, r1]
     f9c:	0018      	movs	r0, r3
     f9e:	f002 fc93 	bl	38c8 <strlen>
     fa2:	0003      	movs	r3, r0
     fa4:	229c      	movs	r2, #156	; 0x9c
     fa6:	00d2      	lsls	r2, r2, #3
     fa8:	18ba      	adds	r2, r7, r2
     faa:	6013      	str	r3, [r2, #0]
     fac:	1939      	adds	r1, r7, r4
     fae:	197b      	adds	r3, r7, r5
     fb0:	681a      	ldr	r2, [r3, #0]
     fb2:	0013      	movs	r3, r2
     fb4:	009b      	lsls	r3, r3, #2
     fb6:	189b      	adds	r3, r3, r2
     fb8:	009b      	lsls	r3, r3, #2
     fba:	18cb      	adds	r3, r1, r3
     fbc:	3304      	adds	r3, #4
     fbe:	681b      	ldr	r3, [r3, #0]
     fc0:	0018      	movs	r0, r3
     fc2:	f002 fc81 	bl	38c8 <strlen>
     fc6:	0003      	movs	r3, r0
     fc8:	4a64      	ldr	r2, [pc, #400]	; (115c <test_pbkdf2_hmac_isha+0x210>)
     fca:	18ba      	adds	r2, r7, r2
     fcc:	6013      	str	r3, [r2, #0]
     fce:	1939      	adds	r1, r7, r4
     fd0:	197b      	adds	r3, r7, r5
     fd2:	681a      	ldr	r2, [r3, #0]
     fd4:	0013      	movs	r3, r2
     fd6:	009b      	lsls	r3, r3, #2
     fd8:	189b      	adds	r3, r3, r2
     fda:	009b      	lsls	r3, r3, #2
     fdc:	18cb      	adds	r3, r1, r3
     fde:	330c      	adds	r3, #12
     fe0:	681a      	ldr	r2, [r3, #0]
     fe2:	2380      	movs	r3, #128	; 0x80
     fe4:	009b      	lsls	r3, r3, #2
     fe6:	429a      	cmp	r2, r3
     fe8:	d903      	bls.n	ff2 <test_pbkdf2_hmac_isha+0xa6>
     fea:	4b5d      	ldr	r3, [pc, #372]	; (1160 <test_pbkdf2_hmac_isha+0x214>)
     fec:	0018      	movs	r0, r3
     fee:	f001 fa5f 	bl	24b0 <__assertion_failed>
     ff2:	2580      	movs	r5, #128	; 0x80
     ff4:	00ed      	lsls	r5, r5, #3
     ff6:	1979      	adds	r1, r7, r5
     ff8:	249d      	movs	r4, #157	; 0x9d
     ffa:	00e4      	lsls	r4, r4, #3
     ffc:	193b      	adds	r3, r7, r4
     ffe:	681a      	ldr	r2, [r3, #0]
    1000:	0013      	movs	r3, r2
    1002:	009b      	lsls	r3, r3, #2
    1004:	189b      	adds	r3, r3, r2
    1006:	009b      	lsls	r3, r3, #2
    1008:	18cb      	adds	r3, r1, r3
    100a:	3310      	adds	r3, #16
    100c:	6818      	ldr	r0, [r3, #0]
    100e:	1979      	adds	r1, r7, r5
    1010:	193b      	adds	r3, r7, r4
    1012:	681a      	ldr	r2, [r3, #0]
    1014:	0013      	movs	r3, r2
    1016:	009b      	lsls	r3, r3, #2
    1018:	189b      	adds	r3, r3, r2
    101a:	009b      	lsls	r3, r3, #2
    101c:	18cb      	adds	r3, r1, r3
    101e:	330c      	adds	r3, #12
    1020:	681a      	ldr	r2, [r3, #0]
    1022:	2380      	movs	r3, #128	; 0x80
    1024:	009b      	lsls	r3, r3, #2
    1026:	18fb      	adds	r3, r7, r3
    1028:	0001      	movs	r1, r0
    102a:	0018      	movs	r0, r3
    102c:	f003 f81f 	bl	406e <hexstr_to_bytes>
    1030:	002e      	movs	r6, r5
    1032:	1979      	adds	r1, r7, r5
    1034:	0020      	movs	r0, r4
    1036:	183a      	adds	r2, r7, r0
    1038:	6812      	ldr	r2, [r2, #0]
    103a:	0013      	movs	r3, r2
    103c:	009b      	lsls	r3, r3, #2
    103e:	189b      	adds	r3, r3, r2
    1040:	009b      	lsls	r3, r3, #2
    1042:	585c      	ldr	r4, [r3, r1]
    1044:	229c      	movs	r2, #156	; 0x9c
    1046:	00d2      	lsls	r2, r2, #3
    1048:	18ba      	adds	r2, r7, r2
    104a:	6815      	ldr	r5, [r2, #0]
    104c:	19b9      	adds	r1, r7, r6
    104e:	183a      	adds	r2, r7, r0
    1050:	6812      	ldr	r2, [r2, #0]
    1052:	0013      	movs	r3, r2
    1054:	009b      	lsls	r3, r3, #2
    1056:	189b      	adds	r3, r3, r2
    1058:	009b      	lsls	r3, r3, #2
    105a:	18cb      	adds	r3, r1, r3
    105c:	3304      	adds	r3, #4
    105e:	681e      	ldr	r6, [r3, #0]
    1060:	4a3e      	ldr	r2, [pc, #248]	; (115c <test_pbkdf2_hmac_isha+0x210>)
    1062:	18ba      	adds	r2, r7, r2
    1064:	6812      	ldr	r2, [r2, #0]
    1066:	4694      	mov	ip, r2
    1068:	2380      	movs	r3, #128	; 0x80
    106a:	00db      	lsls	r3, r3, #3
    106c:	18f9      	adds	r1, r7, r3
    106e:	183a      	adds	r2, r7, r0
    1070:	6812      	ldr	r2, [r2, #0]
    1072:	0013      	movs	r3, r2
    1074:	009b      	lsls	r3, r3, #2
    1076:	189b      	adds	r3, r3, r2
    1078:	009b      	lsls	r3, r3, #2
    107a:	18cb      	adds	r3, r1, r3
    107c:	3308      	adds	r3, #8
    107e:	6819      	ldr	r1, [r3, #0]
    1080:	2280      	movs	r2, #128	; 0x80
    1082:	00d2      	lsls	r2, r2, #3
    1084:	18b8      	adds	r0, r7, r2
    1086:	239d      	movs	r3, #157	; 0x9d
    1088:	00db      	lsls	r3, r3, #3
    108a:	18fa      	adds	r2, r7, r3
    108c:	6812      	ldr	r2, [r2, #0]
    108e:	0013      	movs	r3, r2
    1090:	009b      	lsls	r3, r3, #2
    1092:	189b      	adds	r3, r3, r2
    1094:	009b      	lsls	r3, r3, #2
    1096:	18c3      	adds	r3, r0, r3
    1098:	330c      	adds	r3, #12
    109a:	681b      	ldr	r3, [r3, #0]
    109c:	003a      	movs	r2, r7
    109e:	9202      	str	r2, [sp, #8]
    10a0:	9301      	str	r3, [sp, #4]
    10a2:	9100      	str	r1, [sp, #0]
    10a4:	4663      	mov	r3, ip
    10a6:	0032      	movs	r2, r6
    10a8:	0029      	movs	r1, r5
    10aa:	0020      	movs	r0, r4
    10ac:	f7ff fd20 	bl	af0 <pbkdf2_hmac_isha>
    10b0:	2280      	movs	r2, #128	; 0x80
    10b2:	00d2      	lsls	r2, r2, #3
    10b4:	18b9      	adds	r1, r7, r2
    10b6:	249d      	movs	r4, #157	; 0x9d
    10b8:	00e4      	lsls	r4, r4, #3
    10ba:	193a      	adds	r2, r7, r4
    10bc:	6812      	ldr	r2, [r2, #0]
    10be:	0013      	movs	r3, r2
    10c0:	009b      	lsls	r3, r3, #2
    10c2:	189b      	adds	r3, r3, r2
    10c4:	009b      	lsls	r3, r3, #2
    10c6:	18cb      	adds	r3, r1, r3
    10c8:	330c      	adds	r3, #12
    10ca:	681a      	ldr	r2, [r3, #0]
    10cc:	2380      	movs	r3, #128	; 0x80
    10ce:	009b      	lsls	r3, r3, #2
    10d0:	18f9      	adds	r1, r7, r3
    10d2:	003b      	movs	r3, r7
    10d4:	0018      	movs	r0, r3
    10d6:	f002 ffa9 	bl	402c <cmp_bin>
    10da:	1e03      	subs	r3, r0, #0
    10dc:	d00d      	beq.n	10fa <test_pbkdf2_hmac_isha+0x1ae>
    10de:	193b      	adds	r3, r7, r4
    10e0:	681a      	ldr	r2, [r3, #0]
    10e2:	4920      	ldr	r1, [pc, #128]	; (1164 <test_pbkdf2_hmac_isha+0x218>)
    10e4:	4b20      	ldr	r3, [pc, #128]	; (1168 <test_pbkdf2_hmac_isha+0x21c>)
    10e6:	0018      	movs	r0, r3
    10e8:	f002 fb8a 	bl	3800 <_printf>
    10ec:	4a1a      	ldr	r2, [pc, #104]	; (1158 <test_pbkdf2_hmac_isha+0x20c>)
    10ee:	18bb      	adds	r3, r7, r2
    10f0:	681b      	ldr	r3, [r3, #0]
    10f2:	3301      	adds	r3, #1
    10f4:	18ba      	adds	r2, r7, r2
    10f6:	6013      	str	r3, [r2, #0]
    10f8:	e008      	b.n	110c <test_pbkdf2_hmac_isha+0x1c0>
    10fa:	239d      	movs	r3, #157	; 0x9d
    10fc:	00db      	lsls	r3, r3, #3
    10fe:	18fb      	adds	r3, r7, r3
    1100:	681a      	ldr	r2, [r3, #0]
    1102:	4918      	ldr	r1, [pc, #96]	; (1164 <test_pbkdf2_hmac_isha+0x218>)
    1104:	4b19      	ldr	r3, [pc, #100]	; (116c <test_pbkdf2_hmac_isha+0x220>)
    1106:	0018      	movs	r0, r3
    1108:	f002 fb7a 	bl	3800 <_printf>
    110c:	229d      	movs	r2, #157	; 0x9d
    110e:	00d2      	lsls	r2, r2, #3
    1110:	18bb      	adds	r3, r7, r2
    1112:	681b      	ldr	r3, [r3, #0]
    1114:	3301      	adds	r3, #1
    1116:	18ba      	adds	r2, r7, r2
    1118:	6013      	str	r3, [r2, #0]
    111a:	239d      	movs	r3, #157	; 0x9d
    111c:	00db      	lsls	r3, r3, #3
    111e:	18fb      	adds	r3, r7, r3
    1120:	681a      	ldr	r2, [r3, #0]
    1122:	490c      	ldr	r1, [pc, #48]	; (1154 <test_pbkdf2_hmac_isha+0x208>)
    1124:	187b      	adds	r3, r7, r1
    1126:	681b      	ldr	r3, [r3, #0]
    1128:	429a      	cmp	r2, r3
    112a:	da00      	bge.n	112e <test_pbkdf2_hmac_isha+0x1e2>
    112c:	e72a      	b.n	f84 <test_pbkdf2_hmac_isha+0x38>
    112e:	187b      	adds	r3, r7, r1
    1130:	681a      	ldr	r2, [r3, #0]
    1132:	4b09      	ldr	r3, [pc, #36]	; (1158 <test_pbkdf2_hmac_isha+0x20c>)
    1134:	18fb      	adds	r3, r7, r3
    1136:	681b      	ldr	r3, [r3, #0]
    1138:	1ad3      	subs	r3, r2, r3
    113a:	425a      	negs	r2, r3
    113c:	4153      	adcs	r3, r2
    113e:	b2db      	uxtb	r3, r3
    1140:	0018      	movs	r0, r3
    1142:	46bd      	mov	sp, r7
    1144:	4b0a      	ldr	r3, [pc, #40]	; (1170 <test_pbkdf2_hmac_isha+0x224>)
    1146:	449d      	add	sp, r3
    1148:	bdf0      	pop	{r4, r5, r6, r7, pc}
    114a:	46c0      	nop			; (mov r8, r8)
    114c:	fffffafc 	.word	0xfffffafc
    1150:	00004e1c 	.word	0x00004e1c
    1154:	000004e4 	.word	0x000004e4
    1158:	000004ec 	.word	0x000004ec
    115c:	000004dc 	.word	0x000004dc
    1160:	00004ef8 	.word	0x00004ef8
    1164:	00004f50 	.word	0x00004f50
    1168:	00004da8 	.word	0x00004da8
    116c:	00004dc0 	.word	0x00004dc0
    1170:	000004f4 	.word	0x000004f4

00001174 <HardFault_Handler>:
    1174:	2004      	movs	r0, #4
    1176:	4671      	mov	r1, lr
    1178:	4208      	tst	r0, r1
    117a:	d002      	beq.n	1182 <_MSP>
    117c:	f3ef 8009 	mrs	r0, PSP
    1180:	e001      	b.n	1186 <_process>

00001182 <_MSP>:
    1182:	f3ef 8008 	mrs	r0, MSP

00001186 <_process>:
    1186:	6981      	ldr	r1, [r0, #24]
    1188:	880a      	ldrh	r2, [r1, #0]
    118a:	4b05      	ldr	r3, [pc, #20]	; (11a0 <_semihost_return+0xe>)
    118c:	429a      	cmp	r2, r3
    118e:	d000      	beq.n	1192 <_semihost_return>
    1190:	e7fe      	b.n	1190 <_process+0xa>

00001192 <_semihost_return>:
    1192:	3102      	adds	r1, #2
    1194:	6181      	str	r1, [r0, #24]
    1196:	2120      	movs	r1, #32
    1198:	6001      	str	r1, [r0, #0]
    119a:	4770      	bx	lr
    119c:	46c0      	nop			; (mov r8, r8)
    119e:	0000      	.short	0x0000
    11a0:	0000beab 	.word	0x0000beab

000011a4 <NVIC_EnableIRQ>:
    11a4:	b580      	push	{r7, lr}
    11a6:	b082      	sub	sp, #8
    11a8:	af00      	add	r7, sp, #0
    11aa:	0002      	movs	r2, r0
    11ac:	1dfb      	adds	r3, r7, #7
    11ae:	701a      	strb	r2, [r3, #0]
    11b0:	1dfb      	adds	r3, r7, #7
    11b2:	781b      	ldrb	r3, [r3, #0]
    11b4:	001a      	movs	r2, r3
    11b6:	231f      	movs	r3, #31
    11b8:	401a      	ands	r2, r3
    11ba:	4b04      	ldr	r3, [pc, #16]	; (11cc <NVIC_EnableIRQ+0x28>)
    11bc:	2101      	movs	r1, #1
    11be:	4091      	lsls	r1, r2
    11c0:	000a      	movs	r2, r1
    11c2:	601a      	str	r2, [r3, #0]
    11c4:	46c0      	nop			; (mov r8, r8)
    11c6:	46bd      	mov	sp, r7
    11c8:	b002      	add	sp, #8
    11ca:	bd80      	pop	{r7, pc}
    11cc:	e000e100 	.word	0xe000e100

000011d0 <NVIC_ClearPendingIRQ>:
    11d0:	b580      	push	{r7, lr}
    11d2:	b082      	sub	sp, #8
    11d4:	af00      	add	r7, sp, #0
    11d6:	0002      	movs	r2, r0
    11d8:	1dfb      	adds	r3, r7, #7
    11da:	701a      	strb	r2, [r3, #0]
    11dc:	1dfb      	adds	r3, r7, #7
    11de:	781b      	ldrb	r3, [r3, #0]
    11e0:	001a      	movs	r2, r3
    11e2:	231f      	movs	r3, #31
    11e4:	4013      	ands	r3, r2
    11e6:	4905      	ldr	r1, [pc, #20]	; (11fc <NVIC_ClearPendingIRQ+0x2c>)
    11e8:	2201      	movs	r2, #1
    11ea:	409a      	lsls	r2, r3
    11ec:	23c0      	movs	r3, #192	; 0xc0
    11ee:	005b      	lsls	r3, r3, #1
    11f0:	50ca      	str	r2, [r1, r3]
    11f2:	46c0      	nop			; (mov r8, r8)
    11f4:	46bd      	mov	sp, r7
    11f6:	b002      	add	sp, #8
    11f8:	bd80      	pop	{r7, pc}
    11fa:	46c0      	nop			; (mov r8, r8)
    11fc:	e000e100 	.word	0xe000e100

00001200 <NVIC_SetPriority>:
    1200:	b590      	push	{r4, r7, lr}
    1202:	b083      	sub	sp, #12
    1204:	af00      	add	r7, sp, #0
    1206:	0002      	movs	r2, r0
    1208:	6039      	str	r1, [r7, #0]
    120a:	1dfb      	adds	r3, r7, #7
    120c:	701a      	strb	r2, [r3, #0]
    120e:	1dfb      	adds	r3, r7, #7
    1210:	781b      	ldrb	r3, [r3, #0]
    1212:	2b7f      	cmp	r3, #127	; 0x7f
    1214:	d932      	bls.n	127c <NVIC_SetPriority+0x7c>
    1216:	4a2f      	ldr	r2, [pc, #188]	; (12d4 <NVIC_SetPriority+0xd4>)
    1218:	1dfb      	adds	r3, r7, #7
    121a:	781b      	ldrb	r3, [r3, #0]
    121c:	0019      	movs	r1, r3
    121e:	230f      	movs	r3, #15
    1220:	400b      	ands	r3, r1
    1222:	3b08      	subs	r3, #8
    1224:	089b      	lsrs	r3, r3, #2
    1226:	3306      	adds	r3, #6
    1228:	009b      	lsls	r3, r3, #2
    122a:	18d3      	adds	r3, r2, r3
    122c:	3304      	adds	r3, #4
    122e:	681b      	ldr	r3, [r3, #0]
    1230:	1dfa      	adds	r2, r7, #7
    1232:	7812      	ldrb	r2, [r2, #0]
    1234:	0011      	movs	r1, r2
    1236:	2203      	movs	r2, #3
    1238:	400a      	ands	r2, r1
    123a:	00d2      	lsls	r2, r2, #3
    123c:	21ff      	movs	r1, #255	; 0xff
    123e:	4091      	lsls	r1, r2
    1240:	000a      	movs	r2, r1
    1242:	43d2      	mvns	r2, r2
    1244:	401a      	ands	r2, r3
    1246:	0011      	movs	r1, r2
    1248:	683b      	ldr	r3, [r7, #0]
    124a:	019b      	lsls	r3, r3, #6
    124c:	22ff      	movs	r2, #255	; 0xff
    124e:	401a      	ands	r2, r3
    1250:	1dfb      	adds	r3, r7, #7
    1252:	781b      	ldrb	r3, [r3, #0]
    1254:	0018      	movs	r0, r3
    1256:	2303      	movs	r3, #3
    1258:	4003      	ands	r3, r0
    125a:	00db      	lsls	r3, r3, #3
    125c:	409a      	lsls	r2, r3
    125e:	481d      	ldr	r0, [pc, #116]	; (12d4 <NVIC_SetPriority+0xd4>)
    1260:	1dfb      	adds	r3, r7, #7
    1262:	781b      	ldrb	r3, [r3, #0]
    1264:	001c      	movs	r4, r3
    1266:	230f      	movs	r3, #15
    1268:	4023      	ands	r3, r4
    126a:	3b08      	subs	r3, #8
    126c:	089b      	lsrs	r3, r3, #2
    126e:	430a      	orrs	r2, r1
    1270:	3306      	adds	r3, #6
    1272:	009b      	lsls	r3, r3, #2
    1274:	18c3      	adds	r3, r0, r3
    1276:	3304      	adds	r3, #4
    1278:	601a      	str	r2, [r3, #0]
    127a:	e027      	b.n	12cc <NVIC_SetPriority+0xcc>
    127c:	4a16      	ldr	r2, [pc, #88]	; (12d8 <NVIC_SetPriority+0xd8>)
    127e:	1dfb      	adds	r3, r7, #7
    1280:	781b      	ldrb	r3, [r3, #0]
    1282:	b25b      	sxtb	r3, r3
    1284:	089b      	lsrs	r3, r3, #2
    1286:	33c0      	adds	r3, #192	; 0xc0
    1288:	009b      	lsls	r3, r3, #2
    128a:	589b      	ldr	r3, [r3, r2]
    128c:	1dfa      	adds	r2, r7, #7
    128e:	7812      	ldrb	r2, [r2, #0]
    1290:	0011      	movs	r1, r2
    1292:	2203      	movs	r2, #3
    1294:	400a      	ands	r2, r1
    1296:	00d2      	lsls	r2, r2, #3
    1298:	21ff      	movs	r1, #255	; 0xff
    129a:	4091      	lsls	r1, r2
    129c:	000a      	movs	r2, r1
    129e:	43d2      	mvns	r2, r2
    12a0:	401a      	ands	r2, r3
    12a2:	0011      	movs	r1, r2
    12a4:	683b      	ldr	r3, [r7, #0]
    12a6:	019b      	lsls	r3, r3, #6
    12a8:	22ff      	movs	r2, #255	; 0xff
    12aa:	401a      	ands	r2, r3
    12ac:	1dfb      	adds	r3, r7, #7
    12ae:	781b      	ldrb	r3, [r3, #0]
    12b0:	0018      	movs	r0, r3
    12b2:	2303      	movs	r3, #3
    12b4:	4003      	ands	r3, r0
    12b6:	00db      	lsls	r3, r3, #3
    12b8:	409a      	lsls	r2, r3
    12ba:	4807      	ldr	r0, [pc, #28]	; (12d8 <NVIC_SetPriority+0xd8>)
    12bc:	1dfb      	adds	r3, r7, #7
    12be:	781b      	ldrb	r3, [r3, #0]
    12c0:	b25b      	sxtb	r3, r3
    12c2:	089b      	lsrs	r3, r3, #2
    12c4:	430a      	orrs	r2, r1
    12c6:	33c0      	adds	r3, #192	; 0xc0
    12c8:	009b      	lsls	r3, r3, #2
    12ca:	501a      	str	r2, [r3, r0]
    12cc:	46c0      	nop			; (mov r8, r8)
    12ce:	46bd      	mov	sp, r7
    12d0:	b003      	add	sp, #12
    12d2:	bd90      	pop	{r4, r7, pc}
    12d4:	e000ed00 	.word	0xe000ed00
    12d8:	e000e100 	.word	0xe000e100

000012dc <init_ticktime>:
    12dc:	b580      	push	{r7, lr}
    12de:	af00      	add	r7, sp, #0
    12e0:	4b15      	ldr	r3, [pc, #84]	; (1338 <init_ticktime+0x5c>)
    12e2:	2296      	movs	r2, #150	; 0x96
    12e4:	0052      	lsls	r2, r2, #1
    12e6:	605a      	str	r2, [r3, #4]
    12e8:	2301      	movs	r3, #1
    12ea:	425b      	negs	r3, r3
    12ec:	2103      	movs	r1, #3
    12ee:	0018      	movs	r0, r3
    12f0:	f7ff ff86 	bl	1200 <NVIC_SetPriority>
    12f4:	2301      	movs	r3, #1
    12f6:	425b      	negs	r3, r3
    12f8:	0018      	movs	r0, r3
    12fa:	f7ff ff69 	bl	11d0 <NVIC_ClearPendingIRQ>
    12fe:	2301      	movs	r3, #1
    1300:	425b      	negs	r3, r3
    1302:	0018      	movs	r0, r3
    1304:	f7ff ff4e 	bl	11a4 <NVIC_EnableIRQ>
    1308:	4b0b      	ldr	r3, [pc, #44]	; (1338 <init_ticktime+0x5c>)
    130a:	2200      	movs	r2, #0
    130c:	609a      	str	r2, [r3, #8]
    130e:	4b0a      	ldr	r3, [pc, #40]	; (1338 <init_ticktime+0x5c>)
    1310:	681a      	ldr	r2, [r3, #0]
    1312:	4b09      	ldr	r3, [pc, #36]	; (1338 <init_ticktime+0x5c>)
    1314:	2104      	movs	r1, #4
    1316:	438a      	bics	r2, r1
    1318:	601a      	str	r2, [r3, #0]
    131a:	4b07      	ldr	r3, [pc, #28]	; (1338 <init_ticktime+0x5c>)
    131c:	681a      	ldr	r2, [r3, #0]
    131e:	4b06      	ldr	r3, [pc, #24]	; (1338 <init_ticktime+0x5c>)
    1320:	2103      	movs	r1, #3
    1322:	430a      	orrs	r2, r1
    1324:	601a      	str	r2, [r3, #0]
    1326:	4b05      	ldr	r3, [pc, #20]	; (133c <init_ticktime+0x60>)
    1328:	2200      	movs	r2, #0
    132a:	601a      	str	r2, [r3, #0]
    132c:	4b04      	ldr	r3, [pc, #16]	; (1340 <init_ticktime+0x64>)
    132e:	2200      	movs	r2, #0
    1330:	601a      	str	r2, [r3, #0]
    1332:	46c0      	nop			; (mov r8, r8)
    1334:	46bd      	mov	sp, r7
    1336:	bd80      	pop	{r7, pc}
    1338:	e000e010 	.word	0xe000e010
    133c:	20000298 	.word	0x20000298
    1340:	2000029c 	.word	0x2000029c

00001344 <SysTick_Handler>:
    1344:	b580      	push	{r7, lr}
    1346:	af00      	add	r7, sp, #0
    1348:	4b03      	ldr	r3, [pc, #12]	; (1358 <SysTick_Handler+0x14>)
    134a:	681b      	ldr	r3, [r3, #0]
    134c:	1c5a      	adds	r2, r3, #1
    134e:	4b02      	ldr	r3, [pc, #8]	; (1358 <SysTick_Handler+0x14>)
    1350:	601a      	str	r2, [r3, #0]
    1352:	46c0      	nop			; (mov r8, r8)
    1354:	46bd      	mov	sp, r7
    1356:	bd80      	pop	{r7, pc}
    1358:	20000298 	.word	0x20000298

0000135c <reset_timer>:
    135c:	b580      	push	{r7, lr}
    135e:	af00      	add	r7, sp, #0
    1360:	4b03      	ldr	r3, [pc, #12]	; (1370 <reset_timer+0x14>)
    1362:	681a      	ldr	r2, [r3, #0]
    1364:	4b03      	ldr	r3, [pc, #12]	; (1374 <reset_timer+0x18>)
    1366:	601a      	str	r2, [r3, #0]
    1368:	46c0      	nop			; (mov r8, r8)
    136a:	46bd      	mov	sp, r7
    136c:	bd80      	pop	{r7, pc}
    136e:	46c0      	nop			; (mov r8, r8)
    1370:	20000298 	.word	0x20000298
    1374:	2000029c 	.word	0x2000029c

00001378 <get_timer>:
    1378:	b580      	push	{r7, lr}
    137a:	af00      	add	r7, sp, #0
    137c:	4b03      	ldr	r3, [pc, #12]	; (138c <get_timer+0x14>)
    137e:	681a      	ldr	r2, [r3, #0]
    1380:	4b03      	ldr	r3, [pc, #12]	; (1390 <get_timer+0x18>)
    1382:	681b      	ldr	r3, [r3, #0]
    1384:	1ad3      	subs	r3, r2, r3
    1386:	0018      	movs	r0, r3
    1388:	46bd      	mov	sp, r7
    138a:	bd80      	pop	{r7, pc}
    138c:	20000298 	.word	0x20000298
    1390:	2000029c 	.word	0x2000029c

00001394 <CLOCK_SetEr32kClock>:
    1394:	b580      	push	{r7, lr}
    1396:	b082      	sub	sp, #8
    1398:	af00      	add	r7, sp, #0
    139a:	6078      	str	r0, [r7, #4]
    139c:	4b08      	ldr	r3, [pc, #32]	; (13c0 <CLOCK_SetEr32kClock+0x2c>)
    139e:	681b      	ldr	r3, [r3, #0]
    13a0:	4a08      	ldr	r2, [pc, #32]	; (13c4 <CLOCK_SetEr32kClock+0x30>)
    13a2:	4013      	ands	r3, r2
    13a4:	0019      	movs	r1, r3
    13a6:	687b      	ldr	r3, [r7, #4]
    13a8:	049a      	lsls	r2, r3, #18
    13aa:	23c0      	movs	r3, #192	; 0xc0
    13ac:	031b      	lsls	r3, r3, #12
    13ae:	401a      	ands	r2, r3
    13b0:	4b03      	ldr	r3, [pc, #12]	; (13c0 <CLOCK_SetEr32kClock+0x2c>)
    13b2:	430a      	orrs	r2, r1
    13b4:	601a      	str	r2, [r3, #0]
    13b6:	46c0      	nop			; (mov r8, r8)
    13b8:	46bd      	mov	sp, r7
    13ba:	b002      	add	sp, #8
    13bc:	bd80      	pop	{r7, pc}
    13be:	46c0      	nop			; (mov r8, r8)
    13c0:	40047000 	.word	0x40047000
    13c4:	fff3ffff 	.word	0xfff3ffff

000013c8 <CLOCK_SetPllFllSelClock>:
    13c8:	b580      	push	{r7, lr}
    13ca:	b082      	sub	sp, #8
    13cc:	af00      	add	r7, sp, #0
    13ce:	6078      	str	r0, [r7, #4]
    13d0:	4a08      	ldr	r2, [pc, #32]	; (13f4 <CLOCK_SetPllFllSelClock+0x2c>)
    13d2:	4b09      	ldr	r3, [pc, #36]	; (13f8 <CLOCK_SetPllFllSelClock+0x30>)
    13d4:	58d3      	ldr	r3, [r2, r3]
    13d6:	4a09      	ldr	r2, [pc, #36]	; (13fc <CLOCK_SetPllFllSelClock+0x34>)
    13d8:	401a      	ands	r2, r3
    13da:	687b      	ldr	r3, [r7, #4]
    13dc:	0419      	lsls	r1, r3, #16
    13de:	2380      	movs	r3, #128	; 0x80
    13e0:	025b      	lsls	r3, r3, #9
    13e2:	400b      	ands	r3, r1
    13e4:	4903      	ldr	r1, [pc, #12]	; (13f4 <CLOCK_SetPllFllSelClock+0x2c>)
    13e6:	4313      	orrs	r3, r2
    13e8:	4a03      	ldr	r2, [pc, #12]	; (13f8 <CLOCK_SetPllFllSelClock+0x30>)
    13ea:	508b      	str	r3, [r1, r2]
    13ec:	46c0      	nop			; (mov r8, r8)
    13ee:	46bd      	mov	sp, r7
    13f0:	b002      	add	sp, #8
    13f2:	bd80      	pop	{r7, pc}
    13f4:	40047000 	.word	0x40047000
    13f8:	00001004 	.word	0x00001004
    13fc:	fffeffff 	.word	0xfffeffff

00001400 <CLOCK_GetMcgExtClkFreq>:
    1400:	b580      	push	{r7, lr}
    1402:	af00      	add	r7, sp, #0
    1404:	4b06      	ldr	r3, [pc, #24]	; (1420 <CLOCK_GetMcgExtClkFreq+0x20>)
    1406:	681b      	ldr	r3, [r3, #0]
    1408:	2b00      	cmp	r3, #0
    140a:	d103      	bne.n	1414 <CLOCK_GetMcgExtClkFreq+0x14>
    140c:	4b05      	ldr	r3, [pc, #20]	; (1424 <CLOCK_GetMcgExtClkFreq+0x24>)
    140e:	0018      	movs	r0, r3
    1410:	f001 f84e 	bl	24b0 <__assertion_failed>
    1414:	4b02      	ldr	r3, [pc, #8]	; (1420 <CLOCK_GetMcgExtClkFreq+0x20>)
    1416:	681b      	ldr	r3, [r3, #0]
    1418:	0018      	movs	r0, r3
    141a:	46bd      	mov	sp, r7
    141c:	bd80      	pop	{r7, pc}
    141e:	46c0      	nop			; (mov r8, r8)
    1420:	200002a0 	.word	0x200002a0
    1424:	00004f68 	.word	0x00004f68

00001428 <CLOCK_GetFllExtRefClkFreq>:
    1428:	b580      	push	{r7, lr}
    142a:	b082      	sub	sp, #8
    142c:	af00      	add	r7, sp, #0
    142e:	f7ff ffe7 	bl	1400 <CLOCK_GetMcgExtClkFreq>
    1432:	0003      	movs	r3, r0
    1434:	607b      	str	r3, [r7, #4]
    1436:	687b      	ldr	r3, [r7, #4]
    1438:	2b00      	cmp	r3, #0
    143a:	d101      	bne.n	1440 <CLOCK_GetFllExtRefClkFreq+0x18>
    143c:	687b      	ldr	r3, [r7, #4]
    143e:	e041      	b.n	14c4 <CLOCK_GetFllExtRefClkFreq+0x9c>
    1440:	4b22      	ldr	r3, [pc, #136]	; (14cc <CLOCK_GetFllExtRefClkFreq+0xa4>)
    1442:	781b      	ldrb	r3, [r3, #0]
    1444:	b2db      	uxtb	r3, r3
    1446:	08db      	lsrs	r3, r3, #3
    1448:	b2da      	uxtb	r2, r3
    144a:	1cfb      	adds	r3, r7, #3
    144c:	2107      	movs	r1, #7
    144e:	400a      	ands	r2, r1
    1450:	701a      	strb	r2, [r3, #0]
    1452:	1cfb      	adds	r3, r7, #3
    1454:	781b      	ldrb	r3, [r3, #0]
    1456:	687a      	ldr	r2, [r7, #4]
    1458:	40da      	lsrs	r2, r3
    145a:	0013      	movs	r3, r2
    145c:	607b      	str	r3, [r7, #4]
    145e:	4b1b      	ldr	r3, [pc, #108]	; (14cc <CLOCK_GetFllExtRefClkFreq+0xa4>)
    1460:	785b      	ldrb	r3, [r3, #1]
    1462:	b2db      	uxtb	r3, r3
    1464:	091b      	lsrs	r3, r3, #4
    1466:	b2da      	uxtb	r2, r3
    1468:	1cbb      	adds	r3, r7, #2
    146a:	2103      	movs	r1, #3
    146c:	400a      	ands	r2, r1
    146e:	701a      	strb	r2, [r3, #0]
    1470:	1cbb      	adds	r3, r7, #2
    1472:	781b      	ldrb	r3, [r3, #0]
    1474:	2b00      	cmp	r3, #0
    1476:	d023      	beq.n	14c0 <CLOCK_GetFllExtRefClkFreq+0x98>
    1478:	1cfb      	adds	r3, r7, #3
    147a:	781b      	ldrb	r3, [r3, #0]
    147c:	2b07      	cmp	r3, #7
    147e:	d014      	beq.n	14aa <CLOCK_GetFllExtRefClkFreq+0x82>
    1480:	dc1b      	bgt.n	14ba <CLOCK_GetFllExtRefClkFreq+0x92>
    1482:	2b05      	cmp	r3, #5
    1484:	dc02      	bgt.n	148c <CLOCK_GetFllExtRefClkFreq+0x64>
    1486:	2b00      	cmp	r3, #0
    1488:	da03      	bge.n	1492 <CLOCK_GetFllExtRefClkFreq+0x6a>
    148a:	e016      	b.n	14ba <CLOCK_GetFllExtRefClkFreq+0x92>
    148c:	2b06      	cmp	r3, #6
    148e:	d004      	beq.n	149a <CLOCK_GetFllExtRefClkFreq+0x72>
    1490:	e013      	b.n	14ba <CLOCK_GetFllExtRefClkFreq+0x92>
    1492:	687b      	ldr	r3, [r7, #4]
    1494:	095b      	lsrs	r3, r3, #5
    1496:	607b      	str	r3, [r7, #4]
    1498:	e013      	b.n	14c2 <CLOCK_GetFllExtRefClkFreq+0x9a>
    149a:	687b      	ldr	r3, [r7, #4]
    149c:	2114      	movs	r1, #20
    149e:	0018      	movs	r0, r3
    14a0:	f002 ff0a 	bl	42b8 <__aeabi_uidiv>
    14a4:	0003      	movs	r3, r0
    14a6:	607b      	str	r3, [r7, #4]
    14a8:	e00b      	b.n	14c2 <CLOCK_GetFllExtRefClkFreq+0x9a>
    14aa:	687b      	ldr	r3, [r7, #4]
    14ac:	210c      	movs	r1, #12
    14ae:	0018      	movs	r0, r3
    14b0:	f002 ff02 	bl	42b8 <__aeabi_uidiv>
    14b4:	0003      	movs	r3, r0
    14b6:	607b      	str	r3, [r7, #4]
    14b8:	e003      	b.n	14c2 <CLOCK_GetFllExtRefClkFreq+0x9a>
    14ba:	2300      	movs	r3, #0
    14bc:	607b      	str	r3, [r7, #4]
    14be:	e000      	b.n	14c2 <CLOCK_GetFllExtRefClkFreq+0x9a>
    14c0:	46c0      	nop			; (mov r8, r8)
    14c2:	687b      	ldr	r3, [r7, #4]
    14c4:	0018      	movs	r0, r3
    14c6:	46bd      	mov	sp, r7
    14c8:	b002      	add	sp, #8
    14ca:	bd80      	pop	{r7, pc}
    14cc:	40064000 	.word	0x40064000

000014d0 <CLOCK_GetFllRefClkFreq>:
    14d0:	b580      	push	{r7, lr}
    14d2:	af00      	add	r7, sp, #0
    14d4:	4b07      	ldr	r3, [pc, #28]	; (14f4 <CLOCK_GetFllRefClkFreq+0x24>)
    14d6:	799b      	ldrb	r3, [r3, #6]
    14d8:	b2db      	uxtb	r3, r3
    14da:	001a      	movs	r2, r3
    14dc:	2310      	movs	r3, #16
    14de:	4013      	ands	r3, r2
    14e0:	d103      	bne.n	14ea <CLOCK_GetFllRefClkFreq+0x1a>
    14e2:	f7ff ffa1 	bl	1428 <CLOCK_GetFllExtRefClkFreq>
    14e6:	0003      	movs	r3, r0
    14e8:	e001      	b.n	14ee <CLOCK_GetFllRefClkFreq+0x1e>
    14ea:	4b03      	ldr	r3, [pc, #12]	; (14f8 <CLOCK_GetFllRefClkFreq+0x28>)
    14ec:	681b      	ldr	r3, [r3, #0]
    14ee:	0018      	movs	r0, r3
    14f0:	46bd      	mov	sp, r7
    14f2:	bd80      	pop	{r7, pc}
    14f4:	40064000 	.word	0x40064000
    14f8:	1ffff080 	.word	0x1ffff080

000014fc <CLOCK_GetOscRangeFromFreq>:
    14fc:	b580      	push	{r7, lr}
    14fe:	b084      	sub	sp, #16
    1500:	af00      	add	r7, sp, #0
    1502:	6078      	str	r0, [r7, #4]
    1504:	687b      	ldr	r3, [r7, #4]
    1506:	4a0e      	ldr	r2, [pc, #56]	; (1540 <CLOCK_GetOscRangeFromFreq+0x44>)
    1508:	4293      	cmp	r3, r2
    150a:	d804      	bhi.n	1516 <CLOCK_GetOscRangeFromFreq+0x1a>
    150c:	230f      	movs	r3, #15
    150e:	18fb      	adds	r3, r7, r3
    1510:	2200      	movs	r2, #0
    1512:	701a      	strb	r2, [r3, #0]
    1514:	e00c      	b.n	1530 <CLOCK_GetOscRangeFromFreq+0x34>
    1516:	687b      	ldr	r3, [r7, #4]
    1518:	4a0a      	ldr	r2, [pc, #40]	; (1544 <CLOCK_GetOscRangeFromFreq+0x48>)
    151a:	4293      	cmp	r3, r2
    151c:	d804      	bhi.n	1528 <CLOCK_GetOscRangeFromFreq+0x2c>
    151e:	230f      	movs	r3, #15
    1520:	18fb      	adds	r3, r7, r3
    1522:	2201      	movs	r2, #1
    1524:	701a      	strb	r2, [r3, #0]
    1526:	e003      	b.n	1530 <CLOCK_GetOscRangeFromFreq+0x34>
    1528:	230f      	movs	r3, #15
    152a:	18fb      	adds	r3, r7, r3
    152c:	2202      	movs	r2, #2
    152e:	701a      	strb	r2, [r3, #0]
    1530:	230f      	movs	r3, #15
    1532:	18fb      	adds	r3, r7, r3
    1534:	781b      	ldrb	r3, [r3, #0]
    1536:	0018      	movs	r0, r3
    1538:	46bd      	mov	sp, r7
    153a:	b004      	add	sp, #16
    153c:	bd80      	pop	{r7, pc}
    153e:	46c0      	nop			; (mov r8, r8)
    1540:	00009897 	.word	0x00009897
    1544:	007a1200 	.word	0x007a1200

00001548 <CLOCK_GetPllFllSelClkFreq>:
    1548:	b580      	push	{r7, lr}
    154a:	b082      	sub	sp, #8
    154c:	af00      	add	r7, sp, #0
    154e:	4a0f      	ldr	r2, [pc, #60]	; (158c <CLOCK_GetPllFllSelClkFreq+0x44>)
    1550:	4b0f      	ldr	r3, [pc, #60]	; (1590 <CLOCK_GetPllFllSelClkFreq+0x48>)
    1552:	58d3      	ldr	r3, [r2, r3]
    1554:	0c1b      	lsrs	r3, r3, #16
    1556:	2201      	movs	r2, #1
    1558:	4013      	ands	r3, r2
    155a:	d002      	beq.n	1562 <CLOCK_GetPllFllSelClkFreq+0x1a>
    155c:	2b01      	cmp	r3, #1
    155e:	d005      	beq.n	156c <CLOCK_GetPllFllSelClkFreq+0x24>
    1560:	e00c      	b.n	157c <CLOCK_GetPllFllSelClkFreq+0x34>
    1562:	f000 f833 	bl	15cc <CLOCK_GetFllFreq>
    1566:	0003      	movs	r3, r0
    1568:	607b      	str	r3, [r7, #4]
    156a:	e00a      	b.n	1582 <CLOCK_GetPllFllSelClkFreq+0x3a>
    156c:	f000 f870 	bl	1650 <CLOCK_GetPll0Freq>
    1570:	0003      	movs	r3, r0
    1572:	607b      	str	r3, [r7, #4]
    1574:	687b      	ldr	r3, [r7, #4]
    1576:	085b      	lsrs	r3, r3, #1
    1578:	607b      	str	r3, [r7, #4]
    157a:	e002      	b.n	1582 <CLOCK_GetPllFllSelClkFreq+0x3a>
    157c:	2300      	movs	r3, #0
    157e:	607b      	str	r3, [r7, #4]
    1580:	46c0      	nop			; (mov r8, r8)
    1582:	687b      	ldr	r3, [r7, #4]
    1584:	0018      	movs	r0, r3
    1586:	46bd      	mov	sp, r7
    1588:	b002      	add	sp, #8
    158a:	bd80      	pop	{r7, pc}
    158c:	40047000 	.word	0x40047000
    1590:	00001004 	.word	0x00001004

00001594 <CLOCK_SetSimConfig>:
    1594:	b580      	push	{r7, lr}
    1596:	b082      	sub	sp, #8
    1598:	af00      	add	r7, sp, #0
    159a:	6078      	str	r0, [r7, #4]
    159c:	4909      	ldr	r1, [pc, #36]	; (15c4 <CLOCK_SetSimConfig+0x30>)
    159e:	687b      	ldr	r3, [r7, #4]
    15a0:	685b      	ldr	r3, [r3, #4]
    15a2:	4a09      	ldr	r2, [pc, #36]	; (15c8 <CLOCK_SetSimConfig+0x34>)
    15a4:	508b      	str	r3, [r1, r2]
    15a6:	687b      	ldr	r3, [r7, #4]
    15a8:	781b      	ldrb	r3, [r3, #0]
    15aa:	0018      	movs	r0, r3
    15ac:	f7ff ff0c 	bl	13c8 <CLOCK_SetPllFllSelClock>
    15b0:	687b      	ldr	r3, [r7, #4]
    15b2:	785b      	ldrb	r3, [r3, #1]
    15b4:	0018      	movs	r0, r3
    15b6:	f7ff feed 	bl	1394 <CLOCK_SetEr32kClock>
    15ba:	46c0      	nop			; (mov r8, r8)
    15bc:	46bd      	mov	sp, r7
    15be:	b002      	add	sp, #8
    15c0:	bd80      	pop	{r7, pc}
    15c2:	46c0      	nop			; (mov r8, r8)
    15c4:	40047000 	.word	0x40047000
    15c8:	00001044 	.word	0x00001044

000015cc <CLOCK_GetFllFreq>:
    15cc:	b580      	push	{r7, lr}
    15ce:	b082      	sub	sp, #8
    15d0:	af00      	add	r7, sp, #0
    15d2:	4b1d      	ldr	r3, [pc, #116]	; (1648 <CLOCK_GetFllFreq+0x7c>)
    15d4:	785b      	ldrb	r3, [r3, #1]
    15d6:	b2db      	uxtb	r3, r3
    15d8:	001a      	movs	r2, r3
    15da:	2302      	movs	r3, #2
    15dc:	4013      	ands	r3, r2
    15de:	d106      	bne.n	15ee <CLOCK_GetFllFreq+0x22>
    15e0:	4b19      	ldr	r3, [pc, #100]	; (1648 <CLOCK_GetFllFreq+0x7c>)
    15e2:	799b      	ldrb	r3, [r3, #6]
    15e4:	b2db      	uxtb	r3, r3
    15e6:	001a      	movs	r2, r3
    15e8:	2320      	movs	r3, #32
    15ea:	4013      	ands	r3, r2
    15ec:	d001      	beq.n	15f2 <CLOCK_GetFllFreq+0x26>
    15ee:	2300      	movs	r3, #0
    15f0:	e026      	b.n	1640 <CLOCK_GetFllFreq+0x74>
    15f2:	f7ff ff6d 	bl	14d0 <CLOCK_GetFllRefClkFreq>
    15f6:	0003      	movs	r3, r0
    15f8:	607b      	str	r3, [r7, #4]
    15fa:	687b      	ldr	r3, [r7, #4]
    15fc:	2b00      	cmp	r3, #0
    15fe:	d101      	bne.n	1604 <CLOCK_GetFllFreq+0x38>
    1600:	687b      	ldr	r3, [r7, #4]
    1602:	e01d      	b.n	1640 <CLOCK_GetFllFreq+0x74>
    1604:	4b10      	ldr	r3, [pc, #64]	; (1648 <CLOCK_GetFllFreq+0x7c>)
    1606:	78db      	ldrb	r3, [r3, #3]
    1608:	b2db      	uxtb	r3, r3
    160a:	095b      	lsrs	r3, r3, #5
    160c:	b2da      	uxtb	r2, r3
    160e:	1cfb      	adds	r3, r7, #3
    1610:	2103      	movs	r1, #3
    1612:	400a      	ands	r2, r1
    1614:	701a      	strb	r2, [r3, #0]
    1616:	4b0c      	ldr	r3, [pc, #48]	; (1648 <CLOCK_GetFllFreq+0x7c>)
    1618:	78db      	ldrb	r3, [r3, #3]
    161a:	b2db      	uxtb	r3, r3
    161c:	09db      	lsrs	r3, r3, #7
    161e:	b2da      	uxtb	r2, r3
    1620:	1cbb      	adds	r3, r7, #2
    1622:	2101      	movs	r1, #1
    1624:	400a      	ands	r2, r1
    1626:	701a      	strb	r2, [r3, #0]
    1628:	1cfb      	adds	r3, r7, #3
    162a:	7819      	ldrb	r1, [r3, #0]
    162c:	1cbb      	adds	r3, r7, #2
    162e:	781a      	ldrb	r2, [r3, #0]
    1630:	4b06      	ldr	r3, [pc, #24]	; (164c <CLOCK_GetFllFreq+0x80>)
    1632:	0049      	lsls	r1, r1, #1
    1634:	188a      	adds	r2, r1, r2
    1636:	0052      	lsls	r2, r2, #1
    1638:	5ad3      	ldrh	r3, [r2, r3]
    163a:	001a      	movs	r2, r3
    163c:	687b      	ldr	r3, [r7, #4]
    163e:	4353      	muls	r3, r2
    1640:	0018      	movs	r0, r3
    1642:	46bd      	mov	sp, r7
    1644:	b002      	add	sp, #8
    1646:	bd80      	pop	{r7, pc}
    1648:	40064000 	.word	0x40064000
    164c:	00004ffc 	.word	0x00004ffc

00001650 <CLOCK_GetPll0Freq>:
    1650:	b580      	push	{r7, lr}
    1652:	b082      	sub	sp, #8
    1654:	af00      	add	r7, sp, #0
    1656:	4b18      	ldr	r3, [pc, #96]	; (16b8 <CLOCK_GetPll0Freq+0x68>)
    1658:	799b      	ldrb	r3, [r3, #6]
    165a:	b2db      	uxtb	r3, r3
    165c:	001a      	movs	r2, r3
    165e:	2340      	movs	r3, #64	; 0x40
    1660:	4013      	ands	r3, r2
    1662:	d101      	bne.n	1668 <CLOCK_GetPll0Freq+0x18>
    1664:	2300      	movs	r3, #0
    1666:	e023      	b.n	16b0 <CLOCK_GetPll0Freq+0x60>
    1668:	f002 fd73 	bl	4152 <CLOCK_GetPll0RefFreq>
    166c:	0003      	movs	r3, r0
    166e:	607b      	str	r3, [r7, #4]
    1670:	687b      	ldr	r3, [r7, #4]
    1672:	2b00      	cmp	r3, #0
    1674:	d103      	bne.n	167e <CLOCK_GetPll0Freq+0x2e>
    1676:	4b11      	ldr	r3, [pc, #68]	; (16bc <CLOCK_GetPll0Freq+0x6c>)
    1678:	0018      	movs	r0, r3
    167a:	f000 ff19 	bl	24b0 <__assertion_failed>
    167e:	4b0e      	ldr	r3, [pc, #56]	; (16b8 <CLOCK_GetPll0Freq+0x68>)
    1680:	791b      	ldrb	r3, [r3, #4]
    1682:	b2db      	uxtb	r3, r3
    1684:	001a      	movs	r2, r3
    1686:	231f      	movs	r3, #31
    1688:	4013      	ands	r3, r2
    168a:	3301      	adds	r3, #1
    168c:	0019      	movs	r1, r3
    168e:	6878      	ldr	r0, [r7, #4]
    1690:	f002 fe12 	bl	42b8 <__aeabi_uidiv>
    1694:	0003      	movs	r3, r0
    1696:	607b      	str	r3, [r7, #4]
    1698:	4b07      	ldr	r3, [pc, #28]	; (16b8 <CLOCK_GetPll0Freq+0x68>)
    169a:	795b      	ldrb	r3, [r3, #5]
    169c:	b2db      	uxtb	r3, r3
    169e:	001a      	movs	r2, r3
    16a0:	231f      	movs	r3, #31
    16a2:	4013      	ands	r3, r2
    16a4:	3318      	adds	r3, #24
    16a6:	001a      	movs	r2, r3
    16a8:	687b      	ldr	r3, [r7, #4]
    16aa:	4353      	muls	r3, r2
    16ac:	607b      	str	r3, [r7, #4]
    16ae:	687b      	ldr	r3, [r7, #4]
    16b0:	0018      	movs	r0, r3
    16b2:	46bd      	mov	sp, r7
    16b4:	b002      	add	sp, #8
    16b6:	bd80      	pop	{r7, pc}
    16b8:	40064000 	.word	0x40064000
    16bc:	00004f88 	.word	0x00004f88

000016c0 <CLOCK_SetInternalRefClkConfig>:
    16c0:	b590      	push	{r4, r7, lr}
    16c2:	b085      	sub	sp, #20
    16c4:	af00      	add	r7, sp, #0
    16c6:	0004      	movs	r4, r0
    16c8:	0008      	movs	r0, r1
    16ca:	0011      	movs	r1, r2
    16cc:	1dfb      	adds	r3, r7, #7
    16ce:	1c22      	adds	r2, r4, #0
    16d0:	701a      	strb	r2, [r3, #0]
    16d2:	1dbb      	adds	r3, r7, #6
    16d4:	1c02      	adds	r2, r0, #0
    16d6:	701a      	strb	r2, [r3, #0]
    16d8:	1d7b      	adds	r3, r7, #5
    16da:	1c0a      	adds	r2, r1, #0
    16dc:	701a      	strb	r2, [r3, #0]
    16de:	4b40      	ldr	r3, [pc, #256]	; (17e0 <CLOCK_SetInternalRefClkConfig+0x120>)
    16e0:	799b      	ldrb	r3, [r3, #6]
    16e2:	b2db      	uxtb	r3, r3
    16e4:	089b      	lsrs	r3, r3, #2
    16e6:	2203      	movs	r2, #3
    16e8:	4013      	ands	r3, r2
    16ea:	60fb      	str	r3, [r7, #12]
    16ec:	4b3c      	ldr	r3, [pc, #240]	; (17e0 <CLOCK_SetInternalRefClkConfig+0x120>)
    16ee:	799b      	ldrb	r3, [r3, #6]
    16f0:	b2da      	uxtb	r2, r3
    16f2:	200b      	movs	r0, #11
    16f4:	183b      	adds	r3, r7, r0
    16f6:	2101      	movs	r1, #1
    16f8:	400a      	ands	r2, r1
    16fa:	701a      	strb	r2, [r3, #0]
    16fc:	4b38      	ldr	r3, [pc, #224]	; (17e0 <CLOCK_SetInternalRefClkConfig+0x120>)
    16fe:	7a1b      	ldrb	r3, [r3, #8]
    1700:	b2db      	uxtb	r3, r3
    1702:	085b      	lsrs	r3, r3, #1
    1704:	b2da      	uxtb	r2, r3
    1706:	240a      	movs	r4, #10
    1708:	193b      	adds	r3, r7, r4
    170a:	2107      	movs	r1, #7
    170c:	400a      	ands	r2, r1
    170e:	701a      	strb	r2, [r3, #0]
    1710:	1d7a      	adds	r2, r7, #5
    1712:	193b      	adds	r3, r7, r4
    1714:	7812      	ldrb	r2, [r2, #0]
    1716:	781b      	ldrb	r3, [r3, #0]
    1718:	429a      	cmp	r2, r3
    171a:	d02e      	beq.n	177a <CLOCK_SetInternalRefClkConfig+0xba>
    171c:	183b      	adds	r3, r7, r0
    171e:	781b      	ldrb	r3, [r3, #0]
    1720:	2b01      	cmp	r3, #1
    1722:	d119      	bne.n	1758 <CLOCK_SetInternalRefClkConfig+0x98>
    1724:	68fb      	ldr	r3, [r7, #12]
    1726:	2b01      	cmp	r3, #1
    1728:	d006      	beq.n	1738 <CLOCK_SetInternalRefClkConfig+0x78>
    172a:	4b2d      	ldr	r3, [pc, #180]	; (17e0 <CLOCK_SetInternalRefClkConfig+0x120>)
    172c:	781b      	ldrb	r3, [r3, #0]
    172e:	b2db      	uxtb	r3, r3
    1730:	001a      	movs	r2, r3
    1732:	2302      	movs	r3, #2
    1734:	4013      	ands	r3, r2
    1736:	d00f      	beq.n	1758 <CLOCK_SetInternalRefClkConfig+0x98>
    1738:	4b29      	ldr	r3, [pc, #164]	; (17e0 <CLOCK_SetInternalRefClkConfig+0x120>)
    173a:	785b      	ldrb	r3, [r3, #1]
    173c:	b2db      	uxtb	r3, r3
    173e:	4a28      	ldr	r2, [pc, #160]	; (17e0 <CLOCK_SetInternalRefClkConfig+0x120>)
    1740:	2101      	movs	r1, #1
    1742:	438b      	bics	r3, r1
    1744:	b2db      	uxtb	r3, r3
    1746:	7053      	strb	r3, [r2, #1]
    1748:	46c0      	nop			; (mov r8, r8)
    174a:	4b25      	ldr	r3, [pc, #148]	; (17e0 <CLOCK_SetInternalRefClkConfig+0x120>)
    174c:	799b      	ldrb	r3, [r3, #6]
    174e:	b2db      	uxtb	r3, r3
    1750:	001a      	movs	r2, r3
    1752:	2301      	movs	r3, #1
    1754:	4013      	ands	r3, r2
    1756:	d1f8      	bne.n	174a <CLOCK_SetInternalRefClkConfig+0x8a>
    1758:	4b21      	ldr	r3, [pc, #132]	; (17e0 <CLOCK_SetInternalRefClkConfig+0x120>)
    175a:	7a1b      	ldrb	r3, [r3, #8]
    175c:	b2db      	uxtb	r3, r3
    175e:	222f      	movs	r2, #47	; 0x2f
    1760:	4393      	bics	r3, r2
    1762:	b2da      	uxtb	r2, r3
    1764:	1d7b      	adds	r3, r7, #5
    1766:	781b      	ldrb	r3, [r3, #0]
    1768:	18db      	adds	r3, r3, r3
    176a:	b2db      	uxtb	r3, r3
    176c:	210e      	movs	r1, #14
    176e:	400b      	ands	r3, r1
    1770:	b2db      	uxtb	r3, r3
    1772:	491b      	ldr	r1, [pc, #108]	; (17e0 <CLOCK_SetInternalRefClkConfig+0x120>)
    1774:	4313      	orrs	r3, r2
    1776:	b2db      	uxtb	r3, r3
    1778:	720b      	strb	r3, [r1, #8]
    177a:	4b19      	ldr	r3, [pc, #100]	; (17e0 <CLOCK_SetInternalRefClkConfig+0x120>)
    177c:	785b      	ldrb	r3, [r3, #1]
    177e:	b2db      	uxtb	r3, r3
    1780:	2201      	movs	r2, #1
    1782:	4393      	bics	r3, r2
    1784:	b2da      	uxtb	r2, r3
    1786:	1dbb      	adds	r3, r7, #6
    1788:	781b      	ldrb	r3, [r3, #0]
    178a:	2101      	movs	r1, #1
    178c:	400b      	ands	r3, r1
    178e:	b2db      	uxtb	r3, r3
    1790:	4913      	ldr	r1, [pc, #76]	; (17e0 <CLOCK_SetInternalRefClkConfig+0x120>)
    1792:	4313      	orrs	r3, r2
    1794:	b2db      	uxtb	r3, r3
    1796:	704b      	strb	r3, [r1, #1]
    1798:	4b11      	ldr	r3, [pc, #68]	; (17e0 <CLOCK_SetInternalRefClkConfig+0x120>)
    179a:	781b      	ldrb	r3, [r3, #0]
    179c:	b2db      	uxtb	r3, r3
    179e:	2203      	movs	r2, #3
    17a0:	4393      	bics	r3, r2
    17a2:	b2da      	uxtb	r2, r3
    17a4:	490e      	ldr	r1, [pc, #56]	; (17e0 <CLOCK_SetInternalRefClkConfig+0x120>)
    17a6:	1dfb      	adds	r3, r7, #7
    17a8:	781b      	ldrb	r3, [r3, #0]
    17aa:	4313      	orrs	r3, r2
    17ac:	b2db      	uxtb	r3, r3
    17ae:	700b      	strb	r3, [r1, #0]
    17b0:	68fb      	ldr	r3, [r7, #12]
    17b2:	2b01      	cmp	r3, #1
    17b4:	d004      	beq.n	17c0 <CLOCK_SetInternalRefClkConfig+0x100>
    17b6:	1dfb      	adds	r3, r7, #7
    17b8:	781b      	ldrb	r3, [r3, #0]
    17ba:	2202      	movs	r2, #2
    17bc:	4013      	ands	r3, r2
    17be:	d00a      	beq.n	17d6 <CLOCK_SetInternalRefClkConfig+0x116>
    17c0:	46c0      	nop			; (mov r8, r8)
    17c2:	4b07      	ldr	r3, [pc, #28]	; (17e0 <CLOCK_SetInternalRefClkConfig+0x120>)
    17c4:	799b      	ldrb	r3, [r3, #6]
    17c6:	b2db      	uxtb	r3, r3
    17c8:	001a      	movs	r2, r3
    17ca:	2301      	movs	r3, #1
    17cc:	401a      	ands	r2, r3
    17ce:	1dbb      	adds	r3, r7, #6
    17d0:	781b      	ldrb	r3, [r3, #0]
    17d2:	429a      	cmp	r2, r3
    17d4:	d1f5      	bne.n	17c2 <CLOCK_SetInternalRefClkConfig+0x102>
    17d6:	2300      	movs	r3, #0
    17d8:	0018      	movs	r0, r3
    17da:	46bd      	mov	sp, r7
    17dc:	b005      	add	sp, #20
    17de:	bd90      	pop	{r4, r7, pc}
    17e0:	40064000 	.word	0x40064000

000017e4 <CLOCK_EnablePll0>:
    17e4:	b580      	push	{r7, lr}
    17e6:	b084      	sub	sp, #16
    17e8:	af00      	add	r7, sp, #0
    17ea:	6078      	str	r0, [r7, #4]
    17ec:	687b      	ldr	r3, [r7, #4]
    17ee:	2b00      	cmp	r3, #0
    17f0:	d103      	bne.n	17fa <CLOCK_EnablePll0+0x16>
    17f2:	4b1f      	ldr	r3, [pc, #124]	; (1870 <CLOCK_EnablePll0+0x8c>)
    17f4:	0018      	movs	r0, r3
    17f6:	f000 fe5b 	bl	24b0 <__assertion_failed>
    17fa:	200f      	movs	r0, #15
    17fc:	183b      	adds	r3, r7, r0
    17fe:	2200      	movs	r2, #0
    1800:	701a      	strb	r2, [r3, #0]
    1802:	687b      	ldr	r3, [r7, #4]
    1804:	785b      	ldrb	r3, [r3, #1]
    1806:	221f      	movs	r2, #31
    1808:	4013      	ands	r3, r2
    180a:	b2d9      	uxtb	r1, r3
    180c:	183b      	adds	r3, r7, r0
    180e:	183a      	adds	r2, r7, r0
    1810:	7812      	ldrb	r2, [r2, #0]
    1812:	430a      	orrs	r2, r1
    1814:	701a      	strb	r2, [r3, #0]
    1816:	4a17      	ldr	r2, [pc, #92]	; (1874 <CLOCK_EnablePll0+0x90>)
    1818:	183b      	adds	r3, r7, r0
    181a:	781b      	ldrb	r3, [r3, #0]
    181c:	7113      	strb	r3, [r2, #4]
    181e:	4b15      	ldr	r3, [pc, #84]	; (1874 <CLOCK_EnablePll0+0x90>)
    1820:	795b      	ldrb	r3, [r3, #5]
    1822:	b2db      	uxtb	r3, r3
    1824:	221f      	movs	r2, #31
    1826:	4393      	bics	r3, r2
    1828:	b2da      	uxtb	r2, r3
    182a:	687b      	ldr	r3, [r7, #4]
    182c:	789b      	ldrb	r3, [r3, #2]
    182e:	211f      	movs	r1, #31
    1830:	400b      	ands	r3, r1
    1832:	b2db      	uxtb	r3, r3
    1834:	490f      	ldr	r1, [pc, #60]	; (1874 <CLOCK_EnablePll0+0x90>)
    1836:	4313      	orrs	r3, r2
    1838:	b2db      	uxtb	r3, r3
    183a:	714b      	strb	r3, [r1, #5]
    183c:	4b0d      	ldr	r3, [pc, #52]	; (1874 <CLOCK_EnablePll0+0x90>)
    183e:	791b      	ldrb	r3, [r3, #4]
    1840:	b2da      	uxtb	r2, r3
    1842:	687b      	ldr	r3, [r7, #4]
    1844:	781b      	ldrb	r3, [r3, #0]
    1846:	4313      	orrs	r3, r2
    1848:	b2db      	uxtb	r3, r3
    184a:	4a0a      	ldr	r2, [pc, #40]	; (1874 <CLOCK_EnablePll0+0x90>)
    184c:	2140      	movs	r1, #64	; 0x40
    184e:	430b      	orrs	r3, r1
    1850:	b2db      	uxtb	r3, r3
    1852:	7113      	strb	r3, [r2, #4]
    1854:	46c0      	nop			; (mov r8, r8)
    1856:	4b07      	ldr	r3, [pc, #28]	; (1874 <CLOCK_EnablePll0+0x90>)
    1858:	799b      	ldrb	r3, [r3, #6]
    185a:	b2db      	uxtb	r3, r3
    185c:	001a      	movs	r2, r3
    185e:	2340      	movs	r3, #64	; 0x40
    1860:	4013      	ands	r3, r2
    1862:	d0f8      	beq.n	1856 <CLOCK_EnablePll0+0x72>
    1864:	46c0      	nop			; (mov r8, r8)
    1866:	46c0      	nop			; (mov r8, r8)
    1868:	46bd      	mov	sp, r7
    186a:	b004      	add	sp, #16
    186c:	bd80      	pop	{r7, pc}
    186e:	46c0      	nop			; (mov r8, r8)
    1870:	00004fa8 	.word	0x00004fa8
    1874:	40064000 	.word	0x40064000

00001878 <CLOCK_InitOsc0>:
    1878:	b5b0      	push	{r4, r5, r7, lr}
    187a:	b084      	sub	sp, #16
    187c:	af00      	add	r7, sp, #0
    187e:	6078      	str	r0, [r7, #4]
    1880:	687b      	ldr	r3, [r7, #4]
    1882:	681b      	ldr	r3, [r3, #0]
    1884:	250f      	movs	r5, #15
    1886:	197c      	adds	r4, r7, r5
    1888:	0018      	movs	r0, r3
    188a:	f7ff fe37 	bl	14fc <CLOCK_GetOscRangeFromFreq>
    188e:	0003      	movs	r3, r0
    1890:	7023      	strb	r3, [r4, #0]
    1892:	687b      	ldr	r3, [r7, #4]
    1894:	791b      	ldrb	r3, [r3, #4]
    1896:	4a1b      	ldr	r2, [pc, #108]	; (1904 <CLOCK_InitOsc0+0x8c>)
    1898:	0019      	movs	r1, r3
    189a:	0010      	movs	r0, r2
    189c:	f002 fc38 	bl	4110 <OSC_SetCapLoad>
    18a0:	687b      	ldr	r3, [r7, #4]
    18a2:	3306      	adds	r3, #6
    18a4:	4a17      	ldr	r2, [pc, #92]	; (1904 <CLOCK_InitOsc0+0x8c>)
    18a6:	0019      	movs	r1, r3
    18a8:	0010      	movs	r0, r2
    18aa:	f002 fc12 	bl	40d2 <OSC_SetExtRefClkConfig>
    18ae:	4b16      	ldr	r3, [pc, #88]	; (1908 <CLOCK_InitOsc0+0x90>)
    18b0:	785b      	ldrb	r3, [r3, #1]
    18b2:	b2db      	uxtb	r3, r3
    18b4:	223c      	movs	r2, #60	; 0x3c
    18b6:	4393      	bics	r3, r2
    18b8:	b2da      	uxtb	r2, r3
    18ba:	197b      	adds	r3, r7, r5
    18bc:	781b      	ldrb	r3, [r3, #0]
    18be:	011b      	lsls	r3, r3, #4
    18c0:	b2db      	uxtb	r3, r3
    18c2:	2130      	movs	r1, #48	; 0x30
    18c4:	400b      	ands	r3, r1
    18c6:	b2db      	uxtb	r3, r3
    18c8:	4313      	orrs	r3, r2
    18ca:	b2da      	uxtb	r2, r3
    18cc:	687b      	ldr	r3, [r7, #4]
    18ce:	795b      	ldrb	r3, [r3, #5]
    18d0:	490d      	ldr	r1, [pc, #52]	; (1908 <CLOCK_InitOsc0+0x90>)
    18d2:	4313      	orrs	r3, r2
    18d4:	b2db      	uxtb	r3, r3
    18d6:	704b      	strb	r3, [r1, #1]
    18d8:	687b      	ldr	r3, [r7, #4]
    18da:	795b      	ldrb	r3, [r3, #5]
    18dc:	2b00      	cmp	r3, #0
    18de:	d00d      	beq.n	18fc <CLOCK_InitOsc0+0x84>
    18e0:	4b08      	ldr	r3, [pc, #32]	; (1904 <CLOCK_InitOsc0+0x8c>)
    18e2:	781b      	ldrb	r3, [r3, #0]
    18e4:	b2db      	uxtb	r3, r3
    18e6:	b25b      	sxtb	r3, r3
    18e8:	2b00      	cmp	r3, #0
    18ea:	da07      	bge.n	18fc <CLOCK_InitOsc0+0x84>
    18ec:	46c0      	nop			; (mov r8, r8)
    18ee:	4b06      	ldr	r3, [pc, #24]	; (1908 <CLOCK_InitOsc0+0x90>)
    18f0:	799b      	ldrb	r3, [r3, #6]
    18f2:	b2db      	uxtb	r3, r3
    18f4:	001a      	movs	r2, r3
    18f6:	2302      	movs	r3, #2
    18f8:	4013      	ands	r3, r2
    18fa:	d0f8      	beq.n	18ee <CLOCK_InitOsc0+0x76>
    18fc:	46c0      	nop			; (mov r8, r8)
    18fe:	46bd      	mov	sp, r7
    1900:	b004      	add	sp, #16
    1902:	bdb0      	pop	{r4, r5, r7, pc}
    1904:	40065000 	.word	0x40065000
    1908:	40064000 	.word	0x40064000

0000190c <CLOCK_SetPbeMode>:
    190c:	b580      	push	{r7, lr}
    190e:	b082      	sub	sp, #8
    1910:	af00      	add	r7, sp, #0
    1912:	0002      	movs	r2, r0
    1914:	6039      	str	r1, [r7, #0]
    1916:	1dfb      	adds	r3, r7, #7
    1918:	701a      	strb	r2, [r3, #0]
    191a:	683b      	ldr	r3, [r7, #0]
    191c:	2b00      	cmp	r3, #0
    191e:	d103      	bne.n	1928 <CLOCK_SetPbeMode+0x1c>
    1920:	4b24      	ldr	r3, [pc, #144]	; (19b4 <CLOCK_SetPbeMode+0xa8>)
    1922:	0018      	movs	r0, r3
    1924:	f000 fdc4 	bl	24b0 <__assertion_failed>
    1928:	4b23      	ldr	r3, [pc, #140]	; (19b8 <CLOCK_SetPbeMode+0xac>)
    192a:	785b      	ldrb	r3, [r3, #1]
    192c:	b2db      	uxtb	r3, r3
    192e:	4a22      	ldr	r2, [pc, #136]	; (19b8 <CLOCK_SetPbeMode+0xac>)
    1930:	2102      	movs	r1, #2
    1932:	438b      	bics	r3, r1
    1934:	b2db      	uxtb	r3, r3
    1936:	7053      	strb	r3, [r2, #1]
    1938:	4b1f      	ldr	r3, [pc, #124]	; (19b8 <CLOCK_SetPbeMode+0xac>)
    193a:	781b      	ldrb	r3, [r3, #0]
    193c:	b2db      	uxtb	r3, r3
    193e:	223b      	movs	r2, #59	; 0x3b
    1940:	4013      	ands	r3, r2
    1942:	b2db      	uxtb	r3, r3
    1944:	491c      	ldr	r1, [pc, #112]	; (19b8 <CLOCK_SetPbeMode+0xac>)
    1946:	2280      	movs	r2, #128	; 0x80
    1948:	4252      	negs	r2, r2
    194a:	4313      	orrs	r3, r2
    194c:	b2db      	uxtb	r3, r3
    194e:	700b      	strb	r3, [r1, #0]
    1950:	46c0      	nop			; (mov r8, r8)
    1952:	4b19      	ldr	r3, [pc, #100]	; (19b8 <CLOCK_SetPbeMode+0xac>)
    1954:	799b      	ldrb	r3, [r3, #6]
    1956:	b2db      	uxtb	r3, r3
    1958:	001a      	movs	r2, r3
    195a:	231c      	movs	r3, #28
    195c:	4013      	ands	r3, r2
    195e:	2b08      	cmp	r3, #8
    1960:	d1f7      	bne.n	1952 <CLOCK_SetPbeMode+0x46>
    1962:	4b15      	ldr	r3, [pc, #84]	; (19b8 <CLOCK_SetPbeMode+0xac>)
    1964:	795b      	ldrb	r3, [r3, #5]
    1966:	b2db      	uxtb	r3, r3
    1968:	4a13      	ldr	r2, [pc, #76]	; (19b8 <CLOCK_SetPbeMode+0xac>)
    196a:	2140      	movs	r1, #64	; 0x40
    196c:	438b      	bics	r3, r1
    196e:	b2db      	uxtb	r3, r3
    1970:	7153      	strb	r3, [r2, #5]
    1972:	46c0      	nop			; (mov r8, r8)
    1974:	4b10      	ldr	r3, [pc, #64]	; (19b8 <CLOCK_SetPbeMode+0xac>)
    1976:	799b      	ldrb	r3, [r3, #6]
    1978:	b2db      	uxtb	r3, r3
    197a:	001a      	movs	r2, r3
    197c:	2320      	movs	r3, #32
    197e:	4013      	ands	r3, r2
    1980:	d1f8      	bne.n	1974 <CLOCK_SetPbeMode+0x68>
    1982:	683b      	ldr	r3, [r7, #0]
    1984:	0018      	movs	r0, r3
    1986:	f7ff ff2d 	bl	17e4 <CLOCK_EnablePll0>
    198a:	4b0b      	ldr	r3, [pc, #44]	; (19b8 <CLOCK_SetPbeMode+0xac>)
    198c:	795b      	ldrb	r3, [r3, #5]
    198e:	b2db      	uxtb	r3, r3
    1990:	4a09      	ldr	r2, [pc, #36]	; (19b8 <CLOCK_SetPbeMode+0xac>)
    1992:	2140      	movs	r1, #64	; 0x40
    1994:	430b      	orrs	r3, r1
    1996:	b2db      	uxtb	r3, r3
    1998:	7153      	strb	r3, [r2, #5]
    199a:	46c0      	nop			; (mov r8, r8)
    199c:	4b06      	ldr	r3, [pc, #24]	; (19b8 <CLOCK_SetPbeMode+0xac>)
    199e:	799b      	ldrb	r3, [r3, #6]
    19a0:	b2db      	uxtb	r3, r3
    19a2:	001a      	movs	r2, r3
    19a4:	2320      	movs	r3, #32
    19a6:	4013      	ands	r3, r2
    19a8:	d0f8      	beq.n	199c <CLOCK_SetPbeMode+0x90>
    19aa:	2300      	movs	r3, #0
    19ac:	0018      	movs	r0, r3
    19ae:	46bd      	mov	sp, r7
    19b0:	b002      	add	sp, #8
    19b2:	bd80      	pop	{r7, pc}
    19b4:	00004fc4 	.word	0x00004fc4
    19b8:	40064000 	.word	0x40064000

000019bc <CLOCK_BootToPeeMode>:
    19bc:	b580      	push	{r7, lr}
    19be:	b082      	sub	sp, #8
    19c0:	af00      	add	r7, sp, #0
    19c2:	603a      	str	r2, [r7, #0]
    19c4:	1dfb      	adds	r3, r7, #7
    19c6:	1c02      	adds	r2, r0, #0
    19c8:	701a      	strb	r2, [r3, #0]
    19ca:	1dbb      	adds	r3, r7, #6
    19cc:	1c0a      	adds	r2, r1, #0
    19ce:	701a      	strb	r2, [r3, #0]
    19d0:	683b      	ldr	r3, [r7, #0]
    19d2:	2b00      	cmp	r3, #0
    19d4:	d103      	bne.n	19de <CLOCK_BootToPeeMode+0x22>
    19d6:	4b13      	ldr	r3, [pc, #76]	; (1a24 <CLOCK_BootToPeeMode+0x68>)
    19d8:	0018      	movs	r0, r3
    19da:	f000 fd69 	bl	24b0 <__assertion_failed>
    19de:	1dfb      	adds	r3, r7, #7
    19e0:	781b      	ldrb	r3, [r3, #0]
    19e2:	0018      	movs	r0, r3
    19e4:	f002 fbbd 	bl	4162 <CLOCK_SetExternalRefClkConfig>
    19e8:	683a      	ldr	r2, [r7, #0]
    19ea:	1dbb      	adds	r3, r7, #6
    19ec:	781b      	ldrb	r3, [r3, #0]
    19ee:	0011      	movs	r1, r2
    19f0:	0018      	movs	r0, r3
    19f2:	f7ff ff8b 	bl	190c <CLOCK_SetPbeMode>
    19f6:	4b0c      	ldr	r3, [pc, #48]	; (1a28 <CLOCK_BootToPeeMode+0x6c>)
    19f8:	781b      	ldrb	r3, [r3, #0]
    19fa:	b2db      	uxtb	r3, r3
    19fc:	4a0a      	ldr	r2, [pc, #40]	; (1a28 <CLOCK_BootToPeeMode+0x6c>)
    19fe:	213f      	movs	r1, #63	; 0x3f
    1a00:	400b      	ands	r3, r1
    1a02:	b2db      	uxtb	r3, r3
    1a04:	7013      	strb	r3, [r2, #0]
    1a06:	46c0      	nop			; (mov r8, r8)
    1a08:	4b07      	ldr	r3, [pc, #28]	; (1a28 <CLOCK_BootToPeeMode+0x6c>)
    1a0a:	799b      	ldrb	r3, [r3, #6]
    1a0c:	b2db      	uxtb	r3, r3
    1a0e:	089b      	lsrs	r3, r3, #2
    1a10:	2203      	movs	r2, #3
    1a12:	4013      	ands	r3, r2
    1a14:	2b03      	cmp	r3, #3
    1a16:	d1f7      	bne.n	1a08 <CLOCK_BootToPeeMode+0x4c>
    1a18:	2300      	movs	r3, #0
    1a1a:	0018      	movs	r0, r3
    1a1c:	46bd      	mov	sp, r7
    1a1e:	b002      	add	sp, #8
    1a20:	bd80      	pop	{r7, pc}
    1a22:	46c0      	nop			; (mov r8, r8)
    1a24:	00004fe0 	.word	0x00004fe0
    1a28:	40064000 	.word	0x40064000

00001a2c <CLOCK_EnableClock>:
    1a2c:	b580      	push	{r7, lr}
    1a2e:	b084      	sub	sp, #16
    1a30:	af00      	add	r7, sp, #0
    1a32:	6078      	str	r0, [r7, #4]
    1a34:	687b      	ldr	r3, [r7, #4]
    1a36:	0c1b      	lsrs	r3, r3, #16
    1a38:	4a08      	ldr	r2, [pc, #32]	; (1a5c <CLOCK_EnableClock+0x30>)
    1a3a:	4694      	mov	ip, r2
    1a3c:	4463      	add	r3, ip
    1a3e:	60fb      	str	r3, [r7, #12]
    1a40:	68fb      	ldr	r3, [r7, #12]
    1a42:	6819      	ldr	r1, [r3, #0]
    1a44:	687b      	ldr	r3, [r7, #4]
    1a46:	041b      	lsls	r3, r3, #16
    1a48:	0c1b      	lsrs	r3, r3, #16
    1a4a:	2201      	movs	r2, #1
    1a4c:	409a      	lsls	r2, r3
    1a4e:	68fb      	ldr	r3, [r7, #12]
    1a50:	430a      	orrs	r2, r1
    1a52:	601a      	str	r2, [r3, #0]
    1a54:	46c0      	nop			; (mov r8, r8)
    1a56:	46bd      	mov	sp, r7
    1a58:	b004      	add	sp, #16
    1a5a:	bd80      	pop	{r7, pc}
    1a5c:	40047000 	.word	0x40047000

00001a60 <LPSCI_GetInstance>:
    1a60:	b580      	push	{r7, lr}
    1a62:	b084      	sub	sp, #16
    1a64:	af00      	add	r7, sp, #0
    1a66:	6078      	str	r0, [r7, #4]
    1a68:	2300      	movs	r3, #0
    1a6a:	60fb      	str	r3, [r7, #12]
    1a6c:	e006      	b.n	1a7c <LPSCI_GetInstance+0x1c>
    1a6e:	4a0c      	ldr	r2, [pc, #48]	; (1aa0 <LPSCI_GetInstance+0x40>)
    1a70:	687b      	ldr	r3, [r7, #4]
    1a72:	4293      	cmp	r3, r2
    1a74:	d006      	beq.n	1a84 <LPSCI_GetInstance+0x24>
    1a76:	68fb      	ldr	r3, [r7, #12]
    1a78:	3301      	adds	r3, #1
    1a7a:	60fb      	str	r3, [r7, #12]
    1a7c:	68fb      	ldr	r3, [r7, #12]
    1a7e:	2b00      	cmp	r3, #0
    1a80:	d0f5      	beq.n	1a6e <LPSCI_GetInstance+0xe>
    1a82:	e000      	b.n	1a86 <LPSCI_GetInstance+0x26>
    1a84:	46c0      	nop			; (mov r8, r8)
    1a86:	68fb      	ldr	r3, [r7, #12]
    1a88:	2b00      	cmp	r3, #0
    1a8a:	d003      	beq.n	1a94 <LPSCI_GetInstance+0x34>
    1a8c:	4b05      	ldr	r3, [pc, #20]	; (1aa4 <LPSCI_GetInstance+0x44>)
    1a8e:	0018      	movs	r0, r3
    1a90:	f000 fd0e 	bl	24b0 <__assertion_failed>
    1a94:	68fb      	ldr	r3, [r7, #12]
    1a96:	0018      	movs	r0, r3
    1a98:	46bd      	mov	sp, r7
    1a9a:	b004      	add	sp, #16
    1a9c:	bd80      	pop	{r7, pc}
    1a9e:	46c0      	nop			; (mov r8, r8)
    1aa0:	4006a000 	.word	0x4006a000
    1aa4:	0000500c 	.word	0x0000500c

00001aa8 <LPSCI_Init>:
    1aa8:	b5b0      	push	{r4, r5, r7, lr}
    1aaa:	b08c      	sub	sp, #48	; 0x30
    1aac:	af00      	add	r7, sp, #0
    1aae:	60f8      	str	r0, [r7, #12]
    1ab0:	60b9      	str	r1, [r7, #8]
    1ab2:	607a      	str	r2, [r7, #4]
    1ab4:	68bb      	ldr	r3, [r7, #8]
    1ab6:	2b00      	cmp	r3, #0
    1ab8:	d103      	bne.n	1ac2 <LPSCI_Init+0x1a>
    1aba:	4b8d      	ldr	r3, [pc, #564]	; (1cf0 <LPSCI_Init+0x248>)
    1abc:	0018      	movs	r0, r3
    1abe:	f000 fcf7 	bl	24b0 <__assertion_failed>
    1ac2:	68bb      	ldr	r3, [r7, #8]
    1ac4:	681b      	ldr	r3, [r3, #0]
    1ac6:	2b00      	cmp	r3, #0
    1ac8:	d103      	bne.n	1ad2 <LPSCI_Init+0x2a>
    1aca:	4b8a      	ldr	r3, [pc, #552]	; (1cf4 <LPSCI_Init+0x24c>)
    1acc:	0018      	movs	r0, r3
    1ace:	f000 fcef 	bl	24b0 <__assertion_failed>
    1ad2:	232c      	movs	r3, #44	; 0x2c
    1ad4:	18fb      	adds	r3, r7, r3
    1ad6:	2200      	movs	r2, #0
    1ad8:	801a      	strh	r2, [r3, #0]
    1ada:	2300      	movs	r3, #0
    1adc:	627b      	str	r3, [r7, #36]	; 0x24
    1ade:	68bb      	ldr	r3, [r7, #8]
    1ae0:	681b      	ldr	r3, [r3, #0]
    1ae2:	61bb      	str	r3, [r7, #24]
    1ae4:	2304      	movs	r3, #4
    1ae6:	623b      	str	r3, [r7, #32]
    1ae8:	e05a      	b.n	1ba0 <LPSCI_Init+0xf8>
    1aea:	68bb      	ldr	r3, [r7, #8]
    1aec:	681b      	ldr	r3, [r3, #0]
    1aee:	6a3a      	ldr	r2, [r7, #32]
    1af0:	4353      	muls	r3, r2
    1af2:	0019      	movs	r1, r3
    1af4:	6878      	ldr	r0, [r7, #4]
    1af6:	f002 fbdf 	bl	42b8 <__aeabi_uidiv>
    1afa:	0003      	movs	r3, r0
    1afc:	001a      	movs	r2, r3
    1afe:	212a      	movs	r1, #42	; 0x2a
    1b00:	187b      	adds	r3, r7, r1
    1b02:	801a      	strh	r2, [r3, #0]
    1b04:	000a      	movs	r2, r1
    1b06:	18bb      	adds	r3, r7, r2
    1b08:	881b      	ldrh	r3, [r3, #0]
    1b0a:	2b00      	cmp	r3, #0
    1b0c:	d102      	bne.n	1b14 <LPSCI_Init+0x6c>
    1b0e:	18bb      	adds	r3, r7, r2
    1b10:	2201      	movs	r2, #1
    1b12:	801a      	strh	r2, [r3, #0]
    1b14:	252a      	movs	r5, #42	; 0x2a
    1b16:	197b      	adds	r3, r7, r5
    1b18:	881b      	ldrh	r3, [r3, #0]
    1b1a:	6a3a      	ldr	r2, [r7, #32]
    1b1c:	4353      	muls	r3, r2
    1b1e:	0019      	movs	r1, r3
    1b20:	6878      	ldr	r0, [r7, #4]
    1b22:	f002 fbc9 	bl	42b8 <__aeabi_uidiv>
    1b26:	0003      	movs	r3, r0
    1b28:	617b      	str	r3, [r7, #20]
    1b2a:	68bb      	ldr	r3, [r7, #8]
    1b2c:	681b      	ldr	r3, [r3, #0]
    1b2e:	697a      	ldr	r2, [r7, #20]
    1b30:	1ad3      	subs	r3, r2, r3
    1b32:	61fb      	str	r3, [r7, #28]
    1b34:	68bb      	ldr	r3, [r7, #8]
    1b36:	681c      	ldr	r4, [r3, #0]
    1b38:	197b      	adds	r3, r7, r5
    1b3a:	881b      	ldrh	r3, [r3, #0]
    1b3c:	3301      	adds	r3, #1
    1b3e:	001a      	movs	r2, r3
    1b40:	6a3b      	ldr	r3, [r7, #32]
    1b42:	4353      	muls	r3, r2
    1b44:	0019      	movs	r1, r3
    1b46:	6878      	ldr	r0, [r7, #4]
    1b48:	f002 fbb6 	bl	42b8 <__aeabi_uidiv>
    1b4c:	0003      	movs	r3, r0
    1b4e:	1ae3      	subs	r3, r4, r3
    1b50:	69fa      	ldr	r2, [r7, #28]
    1b52:	429a      	cmp	r2, r3
    1b54:	d913      	bls.n	1b7e <LPSCI_Init+0xd6>
    1b56:	68bb      	ldr	r3, [r7, #8]
    1b58:	681c      	ldr	r4, [r3, #0]
    1b5a:	197b      	adds	r3, r7, r5
    1b5c:	881b      	ldrh	r3, [r3, #0]
    1b5e:	3301      	adds	r3, #1
    1b60:	001a      	movs	r2, r3
    1b62:	6a3b      	ldr	r3, [r7, #32]
    1b64:	4353      	muls	r3, r2
    1b66:	0019      	movs	r1, r3
    1b68:	6878      	ldr	r0, [r7, #4]
    1b6a:	f002 fba5 	bl	42b8 <__aeabi_uidiv>
    1b6e:	0003      	movs	r3, r0
    1b70:	1ae3      	subs	r3, r4, r3
    1b72:	61fb      	str	r3, [r7, #28]
    1b74:	197b      	adds	r3, r7, r5
    1b76:	881a      	ldrh	r2, [r3, #0]
    1b78:	197b      	adds	r3, r7, r5
    1b7a:	3201      	adds	r2, #1
    1b7c:	801a      	strh	r2, [r3, #0]
    1b7e:	69fa      	ldr	r2, [r7, #28]
    1b80:	69bb      	ldr	r3, [r7, #24]
    1b82:	429a      	cmp	r2, r3
    1b84:	d809      	bhi.n	1b9a <LPSCI_Init+0xf2>
    1b86:	69fb      	ldr	r3, [r7, #28]
    1b88:	61bb      	str	r3, [r7, #24]
    1b8a:	6a3b      	ldr	r3, [r7, #32]
    1b8c:	627b      	str	r3, [r7, #36]	; 0x24
    1b8e:	232c      	movs	r3, #44	; 0x2c
    1b90:	18fb      	adds	r3, r7, r3
    1b92:	222a      	movs	r2, #42	; 0x2a
    1b94:	18ba      	adds	r2, r7, r2
    1b96:	8812      	ldrh	r2, [r2, #0]
    1b98:	801a      	strh	r2, [r3, #0]
    1b9a:	6a3b      	ldr	r3, [r7, #32]
    1b9c:	3301      	adds	r3, #1
    1b9e:	623b      	str	r3, [r7, #32]
    1ba0:	6a3b      	ldr	r3, [r7, #32]
    1ba2:	2b20      	cmp	r3, #32
    1ba4:	d9a1      	bls.n	1aea <LPSCI_Init+0x42>
    1ba6:	68bb      	ldr	r3, [r7, #8]
    1ba8:	681b      	ldr	r3, [r3, #0]
    1baa:	2164      	movs	r1, #100	; 0x64
    1bac:	0018      	movs	r0, r3
    1bae:	f002 fb83 	bl	42b8 <__aeabi_uidiv>
    1bb2:	0003      	movs	r3, r0
    1bb4:	001a      	movs	r2, r3
    1bb6:	0013      	movs	r3, r2
    1bb8:	005b      	lsls	r3, r3, #1
    1bba:	189b      	adds	r3, r3, r2
    1bbc:	69ba      	ldr	r2, [r7, #24]
    1bbe:	429a      	cmp	r2, r3
    1bc0:	d901      	bls.n	1bc6 <LPSCI_Init+0x11e>
    1bc2:	4b4d      	ldr	r3, [pc, #308]	; (1cf8 <LPSCI_Init+0x250>)
    1bc4:	e090      	b.n	1ce8 <LPSCI_Init+0x240>
    1bc6:	68fb      	ldr	r3, [r7, #12]
    1bc8:	0018      	movs	r0, r3
    1bca:	f7ff ff49 	bl	1a60 <LPSCI_GetInstance>
    1bce:	4b4b      	ldr	r3, [pc, #300]	; (1cfc <LPSCI_Init+0x254>)
    1bd0:	0018      	movs	r0, r3
    1bd2:	f7ff ff2b 	bl	1a2c <CLOCK_EnableClock>
    1bd6:	68fb      	ldr	r3, [r7, #12]
    1bd8:	78db      	ldrb	r3, [r3, #3]
    1bda:	b2db      	uxtb	r3, r3
    1bdc:	220c      	movs	r2, #12
    1bde:	4393      	bics	r3, r2
    1be0:	b2da      	uxtb	r2, r3
    1be2:	68fb      	ldr	r3, [r7, #12]
    1be4:	70da      	strb	r2, [r3, #3]
    1be6:	6a7b      	ldr	r3, [r7, #36]	; 0x24
    1be8:	2b03      	cmp	r3, #3
    1bea:	d90a      	bls.n	1c02 <LPSCI_Init+0x15a>
    1bec:	6a7b      	ldr	r3, [r7, #36]	; 0x24
    1bee:	2b07      	cmp	r3, #7
    1bf0:	d807      	bhi.n	1c02 <LPSCI_Init+0x15a>
    1bf2:	68fb      	ldr	r3, [r7, #12]
    1bf4:	7adb      	ldrb	r3, [r3, #11]
    1bf6:	b2db      	uxtb	r3, r3
    1bf8:	2202      	movs	r2, #2
    1bfa:	4313      	orrs	r3, r2
    1bfc:	b2da      	uxtb	r2, r3
    1bfe:	68fb      	ldr	r3, [r7, #12]
    1c00:	72da      	strb	r2, [r3, #11]
    1c02:	68fb      	ldr	r3, [r7, #12]
    1c04:	7a9b      	ldrb	r3, [r3, #10]
    1c06:	b2db      	uxtb	r3, r3
    1c08:	221f      	movs	r2, #31
    1c0a:	4393      	bics	r3, r2
    1c0c:	b2da      	uxtb	r2, r3
    1c0e:	6a7b      	ldr	r3, [r7, #36]	; 0x24
    1c10:	b2db      	uxtb	r3, r3
    1c12:	3b01      	subs	r3, #1
    1c14:	b2db      	uxtb	r3, r3
    1c16:	4313      	orrs	r3, r2
    1c18:	b2da      	uxtb	r2, r3
    1c1a:	68fb      	ldr	r3, [r7, #12]
    1c1c:	729a      	strb	r2, [r3, #10]
    1c1e:	68fb      	ldr	r3, [r7, #12]
    1c20:	7a9b      	ldrb	r3, [r3, #10]
    1c22:	b2db      	uxtb	r3, r3
    1c24:	221f      	movs	r2, #31
    1c26:	4393      	bics	r3, r2
    1c28:	b2da      	uxtb	r2, r3
    1c2a:	212c      	movs	r1, #44	; 0x2c
    1c2c:	187b      	adds	r3, r7, r1
    1c2e:	881b      	ldrh	r3, [r3, #0]
    1c30:	0a1b      	lsrs	r3, r3, #8
    1c32:	b29b      	uxth	r3, r3
    1c34:	b2db      	uxtb	r3, r3
    1c36:	4313      	orrs	r3, r2
    1c38:	b2da      	uxtb	r2, r3
    1c3a:	68fb      	ldr	r3, [r7, #12]
    1c3c:	701a      	strb	r2, [r3, #0]
    1c3e:	187b      	adds	r3, r7, r1
    1c40:	881b      	ldrh	r3, [r3, #0]
    1c42:	b2da      	uxtb	r2, r3
    1c44:	68fb      	ldr	r3, [r7, #12]
    1c46:	705a      	strb	r2, [r3, #1]
    1c48:	68fb      	ldr	r3, [r7, #12]
    1c4a:	789b      	ldrb	r3, [r3, #2]
    1c4c:	b2da      	uxtb	r2, r3
    1c4e:	202f      	movs	r0, #47	; 0x2f
    1c50:	183b      	adds	r3, r7, r0
    1c52:	2113      	movs	r1, #19
    1c54:	438a      	bics	r2, r1
    1c56:	701a      	strb	r2, [r3, #0]
    1c58:	68bb      	ldr	r3, [r7, #8]
    1c5a:	791b      	ldrb	r3, [r3, #4]
    1c5c:	2b00      	cmp	r3, #0
    1c5e:	d009      	beq.n	1c74 <LPSCI_Init+0x1cc>
    1c60:	68bb      	ldr	r3, [r7, #8]
    1c62:	791a      	ldrb	r2, [r3, #4]
    1c64:	183b      	adds	r3, r7, r0
    1c66:	781b      	ldrb	r3, [r3, #0]
    1c68:	4313      	orrs	r3, r2
    1c6a:	b2da      	uxtb	r2, r3
    1c6c:	183b      	adds	r3, r7, r0
    1c6e:	2110      	movs	r1, #16
    1c70:	430a      	orrs	r2, r1
    1c72:	701a      	strb	r2, [r3, #0]
    1c74:	68fb      	ldr	r3, [r7, #12]
    1c76:	202f      	movs	r0, #47	; 0x2f
    1c78:	183a      	adds	r2, r7, r0
    1c7a:	7812      	ldrb	r2, [r2, #0]
    1c7c:	709a      	strb	r2, [r3, #2]
    1c7e:	68fb      	ldr	r3, [r7, #12]
    1c80:	781b      	ldrb	r3, [r3, #0]
    1c82:	b2db      	uxtb	r3, r3
    1c84:	2220      	movs	r2, #32
    1c86:	4393      	bics	r3, r2
    1c88:	b2da      	uxtb	r2, r3
    1c8a:	68fb      	ldr	r3, [r7, #12]
    1c8c:	701a      	strb	r2, [r3, #0]
    1c8e:	68fb      	ldr	r3, [r7, #12]
    1c90:	781b      	ldrb	r3, [r3, #0]
    1c92:	b2da      	uxtb	r2, r3
    1c94:	68bb      	ldr	r3, [r7, #8]
    1c96:	795b      	ldrb	r3, [r3, #5]
    1c98:	015b      	lsls	r3, r3, #5
    1c9a:	b2db      	uxtb	r3, r3
    1c9c:	2120      	movs	r1, #32
    1c9e:	400b      	ands	r3, r1
    1ca0:	b2db      	uxtb	r3, r3
    1ca2:	4313      	orrs	r3, r2
    1ca4:	b2da      	uxtb	r2, r3
    1ca6:	68fb      	ldr	r3, [r7, #12]
    1ca8:	701a      	strb	r2, [r3, #0]
    1caa:	183b      	adds	r3, r7, r0
    1cac:	68fa      	ldr	r2, [r7, #12]
    1cae:	78d2      	ldrb	r2, [r2, #3]
    1cb0:	701a      	strb	r2, [r3, #0]
    1cb2:	68bb      	ldr	r3, [r7, #8]
    1cb4:	799b      	ldrb	r3, [r3, #6]
    1cb6:	2b00      	cmp	r3, #0
    1cb8:	d005      	beq.n	1cc6 <LPSCI_Init+0x21e>
    1cba:	183b      	adds	r3, r7, r0
    1cbc:	183a      	adds	r2, r7, r0
    1cbe:	7812      	ldrb	r2, [r2, #0]
    1cc0:	2108      	movs	r1, #8
    1cc2:	430a      	orrs	r2, r1
    1cc4:	701a      	strb	r2, [r3, #0]
    1cc6:	68bb      	ldr	r3, [r7, #8]
    1cc8:	79db      	ldrb	r3, [r3, #7]
    1cca:	2b00      	cmp	r3, #0
    1ccc:	d006      	beq.n	1cdc <LPSCI_Init+0x234>
    1cce:	222f      	movs	r2, #47	; 0x2f
    1cd0:	18bb      	adds	r3, r7, r2
    1cd2:	18ba      	adds	r2, r7, r2
    1cd4:	7812      	ldrb	r2, [r2, #0]
    1cd6:	2104      	movs	r1, #4
    1cd8:	430a      	orrs	r2, r1
    1cda:	701a      	strb	r2, [r3, #0]
    1cdc:	68fb      	ldr	r3, [r7, #12]
    1cde:	222f      	movs	r2, #47	; 0x2f
    1ce0:	18ba      	adds	r2, r7, r2
    1ce2:	7812      	ldrb	r2, [r2, #0]
    1ce4:	70da      	strb	r2, [r3, #3]
    1ce6:	2300      	movs	r3, #0
    1ce8:	0018      	movs	r0, r3
    1cea:	46bd      	mov	sp, r7
    1cec:	b00c      	add	sp, #48	; 0x30
    1cee:	bdb0      	pop	{r4, r5, r7, pc}
    1cf0:	00005044 	.word	0x00005044
    1cf4:	00005060 	.word	0x00005060
    1cf8:	000004b5 	.word	0x000004b5
    1cfc:	1034000a 	.word	0x1034000a

00001d00 <LPSCI_GetDefaultConfig>:
    1d00:	b580      	push	{r7, lr}
    1d02:	b082      	sub	sp, #8
    1d04:	af00      	add	r7, sp, #0
    1d06:	6078      	str	r0, [r7, #4]
    1d08:	687b      	ldr	r3, [r7, #4]
    1d0a:	2b00      	cmp	r3, #0
    1d0c:	d103      	bne.n	1d16 <LPSCI_GetDefaultConfig+0x16>
    1d0e:	4b0c      	ldr	r3, [pc, #48]	; (1d40 <LPSCI_GetDefaultConfig+0x40>)
    1d10:	0018      	movs	r0, r3
    1d12:	f000 fbcd 	bl	24b0 <__assertion_failed>
    1d16:	687b      	ldr	r3, [r7, #4]
    1d18:	22e1      	movs	r2, #225	; 0xe1
    1d1a:	0252      	lsls	r2, r2, #9
    1d1c:	601a      	str	r2, [r3, #0]
    1d1e:	687b      	ldr	r3, [r7, #4]
    1d20:	2200      	movs	r2, #0
    1d22:	711a      	strb	r2, [r3, #4]
    1d24:	687b      	ldr	r3, [r7, #4]
    1d26:	2200      	movs	r2, #0
    1d28:	715a      	strb	r2, [r3, #5]
    1d2a:	687b      	ldr	r3, [r7, #4]
    1d2c:	2200      	movs	r2, #0
    1d2e:	719a      	strb	r2, [r3, #6]
    1d30:	687b      	ldr	r3, [r7, #4]
    1d32:	2200      	movs	r2, #0
    1d34:	71da      	strb	r2, [r3, #7]
    1d36:	46c0      	nop			; (mov r8, r8)
    1d38:	46bd      	mov	sp, r7
    1d3a:	b002      	add	sp, #8
    1d3c:	bd80      	pop	{r7, pc}
    1d3e:	46c0      	nop			; (mov r8, r8)
    1d40:	00005088 	.word	0x00005088

00001d44 <LPSCI_ClearStatusFlags>:
    1d44:	b580      	push	{r7, lr}
    1d46:	b084      	sub	sp, #16
    1d48:	af00      	add	r7, sp, #0
    1d4a:	6078      	str	r0, [r7, #4]
    1d4c:	6039      	str	r1, [r7, #0]
    1d4e:	210b      	movs	r1, #11
    1d50:	187b      	adds	r3, r7, r1
    1d52:	2200      	movs	r2, #0
    1d54:	701a      	strb	r2, [r3, #0]
    1d56:	187b      	adds	r3, r7, r1
    1d58:	781b      	ldrb	r3, [r3, #0]
    1d5a:	b2db      	uxtb	r3, r3
    1d5c:	3301      	adds	r3, #1
    1d5e:	b2da      	uxtb	r2, r3
    1d60:	187b      	adds	r3, r7, r1
    1d62:	701a      	strb	r2, [r3, #0]
    1d64:	683a      	ldr	r2, [r7, #0]
    1d66:	2380      	movs	r3, #128	; 0x80
    1d68:	021b      	lsls	r3, r3, #8
    1d6a:	4013      	ands	r3, r2
    1d6c:	d006      	beq.n	1d7c <LPSCI_ClearStatusFlags+0x38>
    1d6e:	687b      	ldr	r3, [r7, #4]
    1d70:	2280      	movs	r2, #128	; 0x80
    1d72:	715a      	strb	r2, [r3, #5]
    1d74:	683b      	ldr	r3, [r7, #0]
    1d76:	4a15      	ldr	r2, [pc, #84]	; (1dcc <LPSCI_ClearStatusFlags+0x88>)
    1d78:	4013      	ands	r3, r2
    1d7a:	603b      	str	r3, [r7, #0]
    1d7c:	683a      	ldr	r2, [r7, #0]
    1d7e:	2380      	movs	r3, #128	; 0x80
    1d80:	01db      	lsls	r3, r3, #7
    1d82:	4013      	ands	r3, r2
    1d84:	d006      	beq.n	1d94 <LPSCI_ClearStatusFlags+0x50>
    1d86:	687b      	ldr	r3, [r7, #4]
    1d88:	2240      	movs	r2, #64	; 0x40
    1d8a:	715a      	strb	r2, [r3, #5]
    1d8c:	683b      	ldr	r3, [r7, #0]
    1d8e:	4a10      	ldr	r2, [pc, #64]	; (1dd0 <LPSCI_ClearStatusFlags+0x8c>)
    1d90:	4013      	ands	r3, r2
    1d92:	603b      	str	r3, [r7, #0]
    1d94:	683b      	ldr	r3, [r7, #0]
    1d96:	221f      	movs	r2, #31
    1d98:	4013      	ands	r3, r2
    1d9a:	d00a      	beq.n	1db2 <LPSCI_ClearStatusFlags+0x6e>
    1d9c:	683b      	ldr	r3, [r7, #0]
    1d9e:	b2db      	uxtb	r3, r3
    1da0:	221f      	movs	r2, #31
    1da2:	4013      	ands	r3, r2
    1da4:	b2da      	uxtb	r2, r3
    1da6:	687b      	ldr	r3, [r7, #4]
    1da8:	711a      	strb	r2, [r3, #4]
    1daa:	683b      	ldr	r3, [r7, #0]
    1dac:	221f      	movs	r2, #31
    1dae:	4393      	bics	r3, r2
    1db0:	603b      	str	r3, [r7, #0]
    1db2:	683b      	ldr	r3, [r7, #0]
    1db4:	2b00      	cmp	r3, #0
    1db6:	d002      	beq.n	1dbe <LPSCI_ClearStatusFlags+0x7a>
    1db8:	4b06      	ldr	r3, [pc, #24]	; (1dd4 <LPSCI_ClearStatusFlags+0x90>)
    1dba:	60fb      	str	r3, [r7, #12]
    1dbc:	e001      	b.n	1dc2 <LPSCI_ClearStatusFlags+0x7e>
    1dbe:	2300      	movs	r3, #0
    1dc0:	60fb      	str	r3, [r7, #12]
    1dc2:	68fb      	ldr	r3, [r7, #12]
    1dc4:	0018      	movs	r0, r3
    1dc6:	46bd      	mov	sp, r7
    1dc8:	b004      	add	sp, #16
    1dca:	bd80      	pop	{r7, pc}
    1dcc:	ffff7fff 	.word	0xffff7fff
    1dd0:	ffffbfff 	.word	0xffffbfff
    1dd4:	000004b4 	.word	0x000004b4

00001dd8 <LPSCI_WriteBlocking>:
    1dd8:	b580      	push	{r7, lr}
    1dda:	b084      	sub	sp, #16
    1ddc:	af00      	add	r7, sp, #0
    1dde:	60f8      	str	r0, [r7, #12]
    1de0:	60b9      	str	r1, [r7, #8]
    1de2:	607a      	str	r2, [r7, #4]
    1de4:	68bb      	ldr	r3, [r7, #8]
    1de6:	2b00      	cmp	r3, #0
    1de8:	d110      	bne.n	1e0c <LPSCI_WriteBlocking+0x34>
    1dea:	4b0d      	ldr	r3, [pc, #52]	; (1e20 <LPSCI_WriteBlocking+0x48>)
    1dec:	0018      	movs	r0, r3
    1dee:	f000 fb5f 	bl	24b0 <__assertion_failed>
    1df2:	46c0      	nop			; (mov r8, r8)
    1df4:	68fb      	ldr	r3, [r7, #12]
    1df6:	791b      	ldrb	r3, [r3, #4]
    1df8:	b2db      	uxtb	r3, r3
    1dfa:	b25b      	sxtb	r3, r3
    1dfc:	2b00      	cmp	r3, #0
    1dfe:	daf9      	bge.n	1df4 <LPSCI_WriteBlocking+0x1c>
    1e00:	68bb      	ldr	r3, [r7, #8]
    1e02:	1c5a      	adds	r2, r3, #1
    1e04:	60ba      	str	r2, [r7, #8]
    1e06:	781a      	ldrb	r2, [r3, #0]
    1e08:	68fb      	ldr	r3, [r7, #12]
    1e0a:	71da      	strb	r2, [r3, #7]
    1e0c:	687b      	ldr	r3, [r7, #4]
    1e0e:	1e5a      	subs	r2, r3, #1
    1e10:	607a      	str	r2, [r7, #4]
    1e12:	2b00      	cmp	r3, #0
    1e14:	d1ed      	bne.n	1df2 <LPSCI_WriteBlocking+0x1a>
    1e16:	46c0      	nop			; (mov r8, r8)
    1e18:	46c0      	nop			; (mov r8, r8)
    1e1a:	46bd      	mov	sp, r7
    1e1c:	b004      	add	sp, #16
    1e1e:	bd80      	pop	{r7, pc}
    1e20:	000050a4 	.word	0x000050a4

00001e24 <LPSCI_ReadBlocking>:
    1e24:	b580      	push	{r7, lr}
    1e26:	b086      	sub	sp, #24
    1e28:	af00      	add	r7, sp, #0
    1e2a:	60f8      	str	r0, [r7, #12]
    1e2c:	60b9      	str	r1, [r7, #8]
    1e2e:	607a      	str	r2, [r7, #4]
    1e30:	68bb      	ldr	r3, [r7, #8]
    1e32:	2b00      	cmp	r3, #0
    1e34:	d144      	bne.n	1ec0 <LPSCI_ReadBlocking+0x9c>
    1e36:	4b27      	ldr	r3, [pc, #156]	; (1ed4 <LPSCI_ReadBlocking+0xb0>)
    1e38:	0018      	movs	r0, r3
    1e3a:	f000 fb39 	bl	24b0 <__assertion_failed>
    1e3e:	68fb      	ldr	r3, [r7, #12]
    1e40:	0018      	movs	r0, r3
    1e42:	f002 f999 	bl	4178 <LPSCI_GetStatusFlags>
    1e46:	0003      	movs	r3, r0
    1e48:	617b      	str	r3, [r7, #20]
    1e4a:	697b      	ldr	r3, [r7, #20]
    1e4c:	2208      	movs	r2, #8
    1e4e:	4013      	ands	r3, r2
    1e50:	d007      	beq.n	1e62 <LPSCI_ReadBlocking+0x3e>
    1e52:	68fb      	ldr	r3, [r7, #12]
    1e54:	2108      	movs	r1, #8
    1e56:	0018      	movs	r0, r3
    1e58:	f7ff ff74 	bl	1d44 <LPSCI_ClearStatusFlags>
    1e5c:	2397      	movs	r3, #151	; 0x97
    1e5e:	00db      	lsls	r3, r3, #3
    1e60:	e034      	b.n	1ecc <LPSCI_ReadBlocking+0xa8>
    1e62:	697b      	ldr	r3, [r7, #20]
    1e64:	2204      	movs	r2, #4
    1e66:	4013      	ands	r3, r2
    1e68:	d006      	beq.n	1e78 <LPSCI_ReadBlocking+0x54>
    1e6a:	68fb      	ldr	r3, [r7, #12]
    1e6c:	2104      	movs	r1, #4
    1e6e:	0018      	movs	r0, r3
    1e70:	f7ff ff68 	bl	1d44 <LPSCI_ClearStatusFlags>
    1e74:	4b18      	ldr	r3, [pc, #96]	; (1ed8 <LPSCI_ReadBlocking+0xb4>)
    1e76:	e029      	b.n	1ecc <LPSCI_ReadBlocking+0xa8>
    1e78:	697b      	ldr	r3, [r7, #20]
    1e7a:	2202      	movs	r2, #2
    1e7c:	4013      	ands	r3, r2
    1e7e:	d006      	beq.n	1e8e <LPSCI_ReadBlocking+0x6a>
    1e80:	68fb      	ldr	r3, [r7, #12]
    1e82:	2102      	movs	r1, #2
    1e84:	0018      	movs	r0, r3
    1e86:	f7ff ff5d 	bl	1d44 <LPSCI_ClearStatusFlags>
    1e8a:	4b14      	ldr	r3, [pc, #80]	; (1edc <LPSCI_ReadBlocking+0xb8>)
    1e8c:	e01e      	b.n	1ecc <LPSCI_ReadBlocking+0xa8>
    1e8e:	697b      	ldr	r3, [r7, #20]
    1e90:	2201      	movs	r2, #1
    1e92:	4013      	ands	r3, r2
    1e94:	d006      	beq.n	1ea4 <LPSCI_ReadBlocking+0x80>
    1e96:	68fb      	ldr	r3, [r7, #12]
    1e98:	2101      	movs	r1, #1
    1e9a:	0018      	movs	r0, r3
    1e9c:	f7ff ff52 	bl	1d44 <LPSCI_ClearStatusFlags>
    1ea0:	4b0f      	ldr	r3, [pc, #60]	; (1ee0 <LPSCI_ReadBlocking+0xbc>)
    1ea2:	e013      	b.n	1ecc <LPSCI_ReadBlocking+0xa8>
    1ea4:	68fb      	ldr	r3, [r7, #12]
    1ea6:	791b      	ldrb	r3, [r3, #4]
    1ea8:	b2db      	uxtb	r3, r3
    1eaa:	001a      	movs	r2, r3
    1eac:	2320      	movs	r3, #32
    1eae:	4013      	ands	r3, r2
    1eb0:	d0c5      	beq.n	1e3e <LPSCI_ReadBlocking+0x1a>
    1eb2:	68bb      	ldr	r3, [r7, #8]
    1eb4:	1c5a      	adds	r2, r3, #1
    1eb6:	60ba      	str	r2, [r7, #8]
    1eb8:	68fa      	ldr	r2, [r7, #12]
    1eba:	79d2      	ldrb	r2, [r2, #7]
    1ebc:	b2d2      	uxtb	r2, r2
    1ebe:	701a      	strb	r2, [r3, #0]
    1ec0:	687b      	ldr	r3, [r7, #4]
    1ec2:	1e5a      	subs	r2, r3, #1
    1ec4:	607a      	str	r2, [r7, #4]
    1ec6:	2b00      	cmp	r3, #0
    1ec8:	d1ec      	bne.n	1ea4 <LPSCI_ReadBlocking+0x80>
    1eca:	2300      	movs	r3, #0
    1ecc:	0018      	movs	r0, r3
    1ece:	46bd      	mov	sp, r7
    1ed0:	b006      	add	sp, #24
    1ed2:	bd80      	pop	{r7, pc}
    1ed4:	000050bc 	.word	0x000050bc
    1ed8:	000004b9 	.word	0x000004b9
    1edc:	000004ba 	.word	0x000004ba
    1ee0:	000004bb 	.word	0x000004bb

00001ee4 <UART0_DriverIRQHandler>:
    1ee4:	b580      	push	{r7, lr}
    1ee6:	af00      	add	r7, sp, #0
    1ee8:	4b04      	ldr	r3, [pc, #16]	; (1efc <UART0_DriverIRQHandler+0x18>)
    1eea:	681a      	ldr	r2, [r3, #0]
    1eec:	4b04      	ldr	r3, [pc, #16]	; (1f00 <UART0_DriverIRQHandler+0x1c>)
    1eee:	681b      	ldr	r3, [r3, #0]
    1ef0:	4804      	ldr	r0, [pc, #16]	; (1f04 <UART0_DriverIRQHandler+0x20>)
    1ef2:	0019      	movs	r1, r3
    1ef4:	4790      	blx	r2
    1ef6:	46c0      	nop			; (mov r8, r8)
    1ef8:	46bd      	mov	sp, r7
    1efa:	bd80      	pop	{r7, pc}
    1efc:	200002a8 	.word	0x200002a8
    1f00:	200002a4 	.word	0x200002a4
    1f04:	4006a000 	.word	0x4006a000

00001f08 <CLOCK_EnableClock>:
    1f08:	b580      	push	{r7, lr}
    1f0a:	b084      	sub	sp, #16
    1f0c:	af00      	add	r7, sp, #0
    1f0e:	6078      	str	r0, [r7, #4]
    1f10:	687b      	ldr	r3, [r7, #4]
    1f12:	0c1b      	lsrs	r3, r3, #16
    1f14:	4a08      	ldr	r2, [pc, #32]	; (1f38 <CLOCK_EnableClock+0x30>)
    1f16:	4694      	mov	ip, r2
    1f18:	4463      	add	r3, ip
    1f1a:	60fb      	str	r3, [r7, #12]
    1f1c:	68fb      	ldr	r3, [r7, #12]
    1f1e:	6819      	ldr	r1, [r3, #0]
    1f20:	687b      	ldr	r3, [r7, #4]
    1f22:	041b      	lsls	r3, r3, #16
    1f24:	0c1b      	lsrs	r3, r3, #16
    1f26:	2201      	movs	r2, #1
    1f28:	409a      	lsls	r2, r3
    1f2a:	68fb      	ldr	r3, [r7, #12]
    1f2c:	430a      	orrs	r2, r1
    1f2e:	601a      	str	r2, [r3, #0]
    1f30:	46c0      	nop			; (mov r8, r8)
    1f32:	46bd      	mov	sp, r7
    1f34:	b004      	add	sp, #16
    1f36:	bd80      	pop	{r7, pc}
    1f38:	40047000 	.word	0x40047000

00001f3c <UART_GetInstance>:
    1f3c:	b580      	push	{r7, lr}
    1f3e:	b084      	sub	sp, #16
    1f40:	af00      	add	r7, sp, #0
    1f42:	6078      	str	r0, [r7, #4]
    1f44:	2303      	movs	r3, #3
    1f46:	60bb      	str	r3, [r7, #8]
    1f48:	2300      	movs	r3, #0
    1f4a:	60fb      	str	r3, [r7, #12]
    1f4c:	e009      	b.n	1f62 <UART_GetInstance+0x26>
    1f4e:	4b0e      	ldr	r3, [pc, #56]	; (1f88 <UART_GetInstance+0x4c>)
    1f50:	68fa      	ldr	r2, [r7, #12]
    1f52:	0092      	lsls	r2, r2, #2
    1f54:	58d3      	ldr	r3, [r2, r3]
    1f56:	687a      	ldr	r2, [r7, #4]
    1f58:	429a      	cmp	r2, r3
    1f5a:	d007      	beq.n	1f6c <UART_GetInstance+0x30>
    1f5c:	68fb      	ldr	r3, [r7, #12]
    1f5e:	3301      	adds	r3, #1
    1f60:	60fb      	str	r3, [r7, #12]
    1f62:	68fa      	ldr	r2, [r7, #12]
    1f64:	68bb      	ldr	r3, [r7, #8]
    1f66:	429a      	cmp	r2, r3
    1f68:	d3f1      	bcc.n	1f4e <UART_GetInstance+0x12>
    1f6a:	e000      	b.n	1f6e <UART_GetInstance+0x32>
    1f6c:	46c0      	nop			; (mov r8, r8)
    1f6e:	68fa      	ldr	r2, [r7, #12]
    1f70:	68bb      	ldr	r3, [r7, #8]
    1f72:	429a      	cmp	r2, r3
    1f74:	d303      	bcc.n	1f7e <UART_GetInstance+0x42>
    1f76:	4b05      	ldr	r3, [pc, #20]	; (1f8c <UART_GetInstance+0x50>)
    1f78:	0018      	movs	r0, r3
    1f7a:	f000 fa99 	bl	24b0 <__assertion_failed>
    1f7e:	68fb      	ldr	r3, [r7, #12]
    1f80:	0018      	movs	r0, r3
    1f82:	46bd      	mov	sp, r7
    1f84:	b004      	add	sp, #16
    1f86:	bd80      	pop	{r7, pc}
    1f88:	000050d4 	.word	0x000050d4
    1f8c:	000050ec 	.word	0x000050ec

00001f90 <UART_Init>:
    1f90:	b5b0      	push	{r4, r5, r7, lr}
    1f92:	b086      	sub	sp, #24
    1f94:	af00      	add	r7, sp, #0
    1f96:	60f8      	str	r0, [r7, #12]
    1f98:	60b9      	str	r1, [r7, #8]
    1f9a:	607a      	str	r2, [r7, #4]
    1f9c:	68bb      	ldr	r3, [r7, #8]
    1f9e:	2b00      	cmp	r3, #0
    1fa0:	d103      	bne.n	1faa <UART_Init+0x1a>
    1fa2:	4b6f      	ldr	r3, [pc, #444]	; (2160 <_StackSize+0x160>)
    1fa4:	0018      	movs	r0, r3
    1fa6:	f000 fa83 	bl	24b0 <__assertion_failed>
    1faa:	68bb      	ldr	r3, [r7, #8]
    1fac:	681b      	ldr	r3, [r3, #0]
    1fae:	2b00      	cmp	r3, #0
    1fb0:	d103      	bne.n	1fba <UART_Init+0x2a>
    1fb2:	4b6c      	ldr	r3, [pc, #432]	; (2164 <_StackSize+0x164>)
    1fb4:	0018      	movs	r0, r3
    1fb6:	f000 fa7b 	bl	24b0 <__assertion_failed>
    1fba:	2416      	movs	r4, #22
    1fbc:	193b      	adds	r3, r7, r4
    1fbe:	2200      	movs	r2, #0
    1fc0:	801a      	strh	r2, [r3, #0]
    1fc2:	2315      	movs	r3, #21
    1fc4:	18fb      	adds	r3, r7, r3
    1fc6:	2200      	movs	r2, #0
    1fc8:	701a      	strb	r2, [r3, #0]
    1fca:	2300      	movs	r3, #0
    1fcc:	613b      	str	r3, [r7, #16]
    1fce:	68bb      	ldr	r3, [r7, #8]
    1fd0:	681b      	ldr	r3, [r3, #0]
    1fd2:	011b      	lsls	r3, r3, #4
    1fd4:	0019      	movs	r1, r3
    1fd6:	6878      	ldr	r0, [r7, #4]
    1fd8:	f002 f96e 	bl	42b8 <__aeabi_uidiv>
    1fdc:	0003      	movs	r3, r0
    1fde:	001a      	movs	r2, r3
    1fe0:	193b      	adds	r3, r7, r4
    1fe2:	801a      	strh	r2, [r3, #0]
    1fe4:	193b      	adds	r3, r7, r4
    1fe6:	881b      	ldrh	r3, [r3, #0]
    1fe8:	2b00      	cmp	r3, #0
    1fea:	d102      	bne.n	1ff2 <UART_Init+0x62>
    1fec:	193b      	adds	r3, r7, r4
    1fee:	2201      	movs	r2, #1
    1ff0:	801a      	strh	r2, [r3, #0]
    1ff2:	2516      	movs	r5, #22
    1ff4:	197b      	adds	r3, r7, r5
    1ff6:	881b      	ldrh	r3, [r3, #0]
    1ff8:	011b      	lsls	r3, r3, #4
    1ffa:	0019      	movs	r1, r3
    1ffc:	6878      	ldr	r0, [r7, #4]
    1ffe:	f002 f95b 	bl	42b8 <__aeabi_uidiv>
    2002:	0003      	movs	r3, r0
    2004:	001a      	movs	r2, r3
    2006:	68bb      	ldr	r3, [r7, #8]
    2008:	681b      	ldr	r3, [r3, #0]
    200a:	1ad3      	subs	r3, r2, r3
    200c:	613b      	str	r3, [r7, #16]
    200e:	68bb      	ldr	r3, [r7, #8]
    2010:	681c      	ldr	r4, [r3, #0]
    2012:	197b      	adds	r3, r7, r5
    2014:	881b      	ldrh	r3, [r3, #0]
    2016:	3301      	adds	r3, #1
    2018:	011b      	lsls	r3, r3, #4
    201a:	0019      	movs	r1, r3
    201c:	6878      	ldr	r0, [r7, #4]
    201e:	f002 f94b 	bl	42b8 <__aeabi_uidiv>
    2022:	0003      	movs	r3, r0
    2024:	1ae3      	subs	r3, r4, r3
    2026:	693a      	ldr	r2, [r7, #16]
    2028:	429a      	cmp	r2, r3
    202a:	d911      	bls.n	2050 <_StackSize+0x50>
    202c:	68bb      	ldr	r3, [r7, #8]
    202e:	681c      	ldr	r4, [r3, #0]
    2030:	197b      	adds	r3, r7, r5
    2032:	881b      	ldrh	r3, [r3, #0]
    2034:	3301      	adds	r3, #1
    2036:	011b      	lsls	r3, r3, #4
    2038:	0019      	movs	r1, r3
    203a:	6878      	ldr	r0, [r7, #4]
    203c:	f002 f93c 	bl	42b8 <__aeabi_uidiv>
    2040:	0003      	movs	r3, r0
    2042:	1ae3      	subs	r3, r4, r3
    2044:	613b      	str	r3, [r7, #16]
    2046:	197b      	adds	r3, r7, r5
    2048:	881a      	ldrh	r2, [r3, #0]
    204a:	197b      	adds	r3, r7, r5
    204c:	3201      	adds	r2, #1
    204e:	801a      	strh	r2, [r3, #0]
    2050:	68bb      	ldr	r3, [r7, #8]
    2052:	681b      	ldr	r3, [r3, #0]
    2054:	2164      	movs	r1, #100	; 0x64
    2056:	0018      	movs	r0, r3
    2058:	f002 f92e 	bl	42b8 <__aeabi_uidiv>
    205c:	0003      	movs	r3, r0
    205e:	001a      	movs	r2, r3
    2060:	0013      	movs	r3, r2
    2062:	005b      	lsls	r3, r3, #1
    2064:	189b      	adds	r3, r3, r2
    2066:	693a      	ldr	r2, [r7, #16]
    2068:	429a      	cmp	r2, r3
    206a:	d901      	bls.n	2070 <_StackSize+0x70>
    206c:	4b3e      	ldr	r3, [pc, #248]	; (2168 <_StackSize+0x168>)
    206e:	e072      	b.n	2156 <_StackSize+0x156>
    2070:	68fb      	ldr	r3, [r7, #12]
    2072:	0018      	movs	r0, r3
    2074:	f7ff ff62 	bl	1f3c <UART_GetInstance>
    2078:	0002      	movs	r2, r0
    207a:	4b3c      	ldr	r3, [pc, #240]	; (216c <_StackSize+0x16c>)
    207c:	0092      	lsls	r2, r2, #2
    207e:	58d3      	ldr	r3, [r2, r3]
    2080:	0018      	movs	r0, r3
    2082:	f7ff ff41 	bl	1f08 <CLOCK_EnableClock>
    2086:	68fb      	ldr	r3, [r7, #12]
    2088:	78db      	ldrb	r3, [r3, #3]
    208a:	b2db      	uxtb	r3, r3
    208c:	220c      	movs	r2, #12
    208e:	4393      	bics	r3, r2
    2090:	b2da      	uxtb	r2, r3
    2092:	68fb      	ldr	r3, [r7, #12]
    2094:	70da      	strb	r2, [r3, #3]
    2096:	68fb      	ldr	r3, [r7, #12]
    2098:	781b      	ldrb	r3, [r3, #0]
    209a:	b2db      	uxtb	r3, r3
    209c:	221f      	movs	r2, #31
    209e:	4393      	bics	r3, r2
    20a0:	b2da      	uxtb	r2, r3
    20a2:	2116      	movs	r1, #22
    20a4:	187b      	adds	r3, r7, r1
    20a6:	881b      	ldrh	r3, [r3, #0]
    20a8:	0a1b      	lsrs	r3, r3, #8
    20aa:	b29b      	uxth	r3, r3
    20ac:	b2db      	uxtb	r3, r3
    20ae:	4313      	orrs	r3, r2
    20b0:	b2da      	uxtb	r2, r3
    20b2:	68fb      	ldr	r3, [r7, #12]
    20b4:	701a      	strb	r2, [r3, #0]
    20b6:	187b      	adds	r3, r7, r1
    20b8:	881b      	ldrh	r3, [r3, #0]
    20ba:	b2da      	uxtb	r2, r3
    20bc:	68fb      	ldr	r3, [r7, #12]
    20be:	705a      	strb	r2, [r3, #1]
    20c0:	68fb      	ldr	r3, [r7, #12]
    20c2:	789b      	ldrb	r3, [r3, #2]
    20c4:	b2da      	uxtb	r2, r3
    20c6:	2015      	movs	r0, #21
    20c8:	183b      	adds	r3, r7, r0
    20ca:	2113      	movs	r1, #19
    20cc:	438a      	bics	r2, r1
    20ce:	701a      	strb	r2, [r3, #0]
    20d0:	68bb      	ldr	r3, [r7, #8]
    20d2:	791b      	ldrb	r3, [r3, #4]
    20d4:	2b00      	cmp	r3, #0
    20d6:	d009      	beq.n	20ec <_StackSize+0xec>
    20d8:	68bb      	ldr	r3, [r7, #8]
    20da:	791a      	ldrb	r2, [r3, #4]
    20dc:	183b      	adds	r3, r7, r0
    20de:	781b      	ldrb	r3, [r3, #0]
    20e0:	4313      	orrs	r3, r2
    20e2:	b2da      	uxtb	r2, r3
    20e4:	183b      	adds	r3, r7, r0
    20e6:	2110      	movs	r1, #16
    20e8:	430a      	orrs	r2, r1
    20ea:	701a      	strb	r2, [r3, #0]
    20ec:	68fb      	ldr	r3, [r7, #12]
    20ee:	2015      	movs	r0, #21
    20f0:	183a      	adds	r2, r7, r0
    20f2:	7812      	ldrb	r2, [r2, #0]
    20f4:	709a      	strb	r2, [r3, #2]
    20f6:	68fb      	ldr	r3, [r7, #12]
    20f8:	781b      	ldrb	r3, [r3, #0]
    20fa:	b2db      	uxtb	r3, r3
    20fc:	2220      	movs	r2, #32
    20fe:	4393      	bics	r3, r2
    2100:	b2da      	uxtb	r2, r3
    2102:	68bb      	ldr	r3, [r7, #8]
    2104:	795b      	ldrb	r3, [r3, #5]
    2106:	015b      	lsls	r3, r3, #5
    2108:	b2db      	uxtb	r3, r3
    210a:	2120      	movs	r1, #32
    210c:	400b      	ands	r3, r1
    210e:	b2db      	uxtb	r3, r3
    2110:	4313      	orrs	r3, r2
    2112:	b2da      	uxtb	r2, r3
    2114:	68fb      	ldr	r3, [r7, #12]
    2116:	701a      	strb	r2, [r3, #0]
    2118:	183b      	adds	r3, r7, r0
    211a:	68fa      	ldr	r2, [r7, #12]
    211c:	78d2      	ldrb	r2, [r2, #3]
    211e:	701a      	strb	r2, [r3, #0]
    2120:	68bb      	ldr	r3, [r7, #8]
    2122:	799b      	ldrb	r3, [r3, #6]
    2124:	2b00      	cmp	r3, #0
    2126:	d005      	beq.n	2134 <_StackSize+0x134>
    2128:	183b      	adds	r3, r7, r0
    212a:	183a      	adds	r2, r7, r0
    212c:	7812      	ldrb	r2, [r2, #0]
    212e:	2108      	movs	r1, #8
    2130:	430a      	orrs	r2, r1
    2132:	701a      	strb	r2, [r3, #0]
    2134:	68bb      	ldr	r3, [r7, #8]
    2136:	79db      	ldrb	r3, [r3, #7]
    2138:	2b00      	cmp	r3, #0
    213a:	d006      	beq.n	214a <_StackSize+0x14a>
    213c:	2215      	movs	r2, #21
    213e:	18bb      	adds	r3, r7, r2
    2140:	18ba      	adds	r2, r7, r2
    2142:	7812      	ldrb	r2, [r2, #0]
    2144:	2104      	movs	r1, #4
    2146:	430a      	orrs	r2, r1
    2148:	701a      	strb	r2, [r3, #0]
    214a:	68fb      	ldr	r3, [r7, #12]
    214c:	2215      	movs	r2, #21
    214e:	18ba      	adds	r2, r7, r2
    2150:	7812      	ldrb	r2, [r2, #0]
    2152:	70da      	strb	r2, [r3, #3]
    2154:	2300      	movs	r3, #0
    2156:	0018      	movs	r0, r3
    2158:	46bd      	mov	sp, r7
    215a:	b006      	add	sp, #24
    215c:	bdb0      	pop	{r4, r5, r7, pc}
    215e:	46c0      	nop			; (mov r8, r8)
    2160:	00005118 	.word	0x00005118
    2164:	00005130 	.word	0x00005130
    2168:	000003f5 	.word	0x000003f5
    216c:	000050e0 	.word	0x000050e0

00002170 <UART_GetDefaultConfig>:
    2170:	b580      	push	{r7, lr}
    2172:	b082      	sub	sp, #8
    2174:	af00      	add	r7, sp, #0
    2176:	6078      	str	r0, [r7, #4]
    2178:	687b      	ldr	r3, [r7, #4]
    217a:	2b00      	cmp	r3, #0
    217c:	d103      	bne.n	2186 <UART_GetDefaultConfig+0x16>
    217e:	4b0c      	ldr	r3, [pc, #48]	; (21b0 <UART_GetDefaultConfig+0x40>)
    2180:	0018      	movs	r0, r3
    2182:	f000 f995 	bl	24b0 <__assertion_failed>
    2186:	687b      	ldr	r3, [r7, #4]
    2188:	22e1      	movs	r2, #225	; 0xe1
    218a:	0252      	lsls	r2, r2, #9
    218c:	601a      	str	r2, [r3, #0]
    218e:	687b      	ldr	r3, [r7, #4]
    2190:	2200      	movs	r2, #0
    2192:	711a      	strb	r2, [r3, #4]
    2194:	687b      	ldr	r3, [r7, #4]
    2196:	2200      	movs	r2, #0
    2198:	715a      	strb	r2, [r3, #5]
    219a:	687b      	ldr	r3, [r7, #4]
    219c:	2200      	movs	r2, #0
    219e:	719a      	strb	r2, [r3, #6]
    21a0:	687b      	ldr	r3, [r7, #4]
    21a2:	2200      	movs	r2, #0
    21a4:	71da      	strb	r2, [r3, #7]
    21a6:	46c0      	nop			; (mov r8, r8)
    21a8:	46bd      	mov	sp, r7
    21aa:	b002      	add	sp, #8
    21ac:	bd80      	pop	{r7, pc}
    21ae:	46c0      	nop			; (mov r8, r8)
    21b0:	00005158 	.word	0x00005158

000021b4 <UART_ReadBlocking>:
    21b4:	b580      	push	{r7, lr}
    21b6:	b086      	sub	sp, #24
    21b8:	af00      	add	r7, sp, #0
    21ba:	60f8      	str	r0, [r7, #12]
    21bc:	60b9      	str	r1, [r7, #8]
    21be:	607a      	str	r2, [r7, #4]
    21c0:	68bb      	ldr	r3, [r7, #8]
    21c2:	2b00      	cmp	r3, #0
    21c4:	d130      	bne.n	2228 <UART_ReadBlocking+0x74>
    21c6:	4b1d      	ldr	r3, [pc, #116]	; (223c <UART_ReadBlocking+0x88>)
    21c8:	0018      	movs	r0, r3
    21ca:	f000 f971 	bl	24b0 <__assertion_failed>
    21ce:	68fb      	ldr	r3, [r7, #12]
    21d0:	0018      	movs	r0, r3
    21d2:	f001 ffe4 	bl	419e <UART_GetStatusFlags>
    21d6:	0003      	movs	r3, r0
    21d8:	617b      	str	r3, [r7, #20]
    21da:	697b      	ldr	r3, [r7, #20]
    21dc:	2208      	movs	r2, #8
    21de:	4013      	ands	r3, r2
    21e0:	d001      	beq.n	21e6 <UART_ReadBlocking+0x32>
    21e2:	4b17      	ldr	r3, [pc, #92]	; (2240 <UART_ReadBlocking+0x8c>)
    21e4:	e026      	b.n	2234 <UART_ReadBlocking+0x80>
    21e6:	697b      	ldr	r3, [r7, #20]
    21e8:	2204      	movs	r2, #4
    21ea:	4013      	ands	r3, r2
    21ec:	d001      	beq.n	21f2 <UART_ReadBlocking+0x3e>
    21ee:	4b15      	ldr	r3, [pc, #84]	; (2244 <UART_ReadBlocking+0x90>)
    21f0:	e020      	b.n	2234 <UART_ReadBlocking+0x80>
    21f2:	697b      	ldr	r3, [r7, #20]
    21f4:	2202      	movs	r2, #2
    21f6:	4013      	ands	r3, r2
    21f8:	d001      	beq.n	21fe <UART_ReadBlocking+0x4a>
    21fa:	4b13      	ldr	r3, [pc, #76]	; (2248 <UART_ReadBlocking+0x94>)
    21fc:	e01a      	b.n	2234 <UART_ReadBlocking+0x80>
    21fe:	697b      	ldr	r3, [r7, #20]
    2200:	2201      	movs	r2, #1
    2202:	4013      	ands	r3, r2
    2204:	d002      	beq.n	220c <UART_ReadBlocking+0x58>
    2206:	23fd      	movs	r3, #253	; 0xfd
    2208:	009b      	lsls	r3, r3, #2
    220a:	e013      	b.n	2234 <UART_ReadBlocking+0x80>
    220c:	68fb      	ldr	r3, [r7, #12]
    220e:	791b      	ldrb	r3, [r3, #4]
    2210:	b2db      	uxtb	r3, r3
    2212:	001a      	movs	r2, r3
    2214:	2320      	movs	r3, #32
    2216:	4013      	ands	r3, r2
    2218:	d0d9      	beq.n	21ce <UART_ReadBlocking+0x1a>
    221a:	68bb      	ldr	r3, [r7, #8]
    221c:	1c5a      	adds	r2, r3, #1
    221e:	60ba      	str	r2, [r7, #8]
    2220:	68fa      	ldr	r2, [r7, #12]
    2222:	79d2      	ldrb	r2, [r2, #7]
    2224:	b2d2      	uxtb	r2, r2
    2226:	701a      	strb	r2, [r3, #0]
    2228:	687b      	ldr	r3, [r7, #4]
    222a:	1e5a      	subs	r2, r3, #1
    222c:	607a      	str	r2, [r7, #4]
    222e:	2b00      	cmp	r3, #0
    2230:	d1ec      	bne.n	220c <UART_ReadBlocking+0x58>
    2232:	2300      	movs	r3, #0
    2234:	0018      	movs	r0, r3
    2236:	46bd      	mov	sp, r7
    2238:	b006      	add	sp, #24
    223a:	bd80      	pop	{r7, pc}
    223c:	00005170 	.word	0x00005170
    2240:	000003f1 	.word	0x000003f1
    2244:	000003f2 	.word	0x000003f2
    2248:	000003f3 	.word	0x000003f3

0000224c <UART1_DriverIRQHandler>:
    224c:	b580      	push	{r7, lr}
    224e:	af00      	add	r7, sp, #0
    2250:	4b04      	ldr	r3, [pc, #16]	; (2264 <UART1_DriverIRQHandler+0x18>)
    2252:	681a      	ldr	r2, [r3, #0]
    2254:	4b04      	ldr	r3, [pc, #16]	; (2268 <UART1_DriverIRQHandler+0x1c>)
    2256:	685b      	ldr	r3, [r3, #4]
    2258:	4804      	ldr	r0, [pc, #16]	; (226c <UART1_DriverIRQHandler+0x20>)
    225a:	0019      	movs	r1, r3
    225c:	4790      	blx	r2
    225e:	46c0      	nop			; (mov r8, r8)
    2260:	46bd      	mov	sp, r7
    2262:	bd80      	pop	{r7, pc}
    2264:	200002b8 	.word	0x200002b8
    2268:	200002ac 	.word	0x200002ac
    226c:	4006b000 	.word	0x4006b000

00002270 <UART2_DriverIRQHandler>:
    2270:	b580      	push	{r7, lr}
    2272:	af00      	add	r7, sp, #0
    2274:	4b04      	ldr	r3, [pc, #16]	; (2288 <UART2_DriverIRQHandler+0x18>)
    2276:	681a      	ldr	r2, [r3, #0]
    2278:	4b04      	ldr	r3, [pc, #16]	; (228c <UART2_DriverIRQHandler+0x1c>)
    227a:	689b      	ldr	r3, [r3, #8]
    227c:	4804      	ldr	r0, [pc, #16]	; (2290 <UART2_DriverIRQHandler+0x20>)
    227e:	0019      	movs	r1, r3
    2280:	4790      	blx	r2
    2282:	46c0      	nop			; (mov r8, r8)
    2284:	46bd      	mov	sp, r7
    2286:	bd80      	pop	{r7, pc}
    2288:	200002b8 	.word	0x200002b8
    228c:	200002ac 	.word	0x200002ac
    2290:	4006c000 	.word	0x4006c000

00002294 <CLOCK_SetLpsci0Clock>:
    2294:	b580      	push	{r7, lr}
    2296:	b082      	sub	sp, #8
    2298:	af00      	add	r7, sp, #0
    229a:	6078      	str	r0, [r7, #4]
    229c:	4a08      	ldr	r2, [pc, #32]	; (22c0 <CLOCK_SetLpsci0Clock+0x2c>)
    229e:	4b09      	ldr	r3, [pc, #36]	; (22c4 <CLOCK_SetLpsci0Clock+0x30>)
    22a0:	58d3      	ldr	r3, [r2, r3]
    22a2:	4a09      	ldr	r2, [pc, #36]	; (22c8 <CLOCK_SetLpsci0Clock+0x34>)
    22a4:	401a      	ands	r2, r3
    22a6:	687b      	ldr	r3, [r7, #4]
    22a8:	0699      	lsls	r1, r3, #26
    22aa:	23c0      	movs	r3, #192	; 0xc0
    22ac:	051b      	lsls	r3, r3, #20
    22ae:	400b      	ands	r3, r1
    22b0:	4903      	ldr	r1, [pc, #12]	; (22c0 <CLOCK_SetLpsci0Clock+0x2c>)
    22b2:	4313      	orrs	r3, r2
    22b4:	4a03      	ldr	r2, [pc, #12]	; (22c4 <CLOCK_SetLpsci0Clock+0x30>)
    22b6:	508b      	str	r3, [r1, r2]
    22b8:	46c0      	nop			; (mov r8, r8)
    22ba:	46bd      	mov	sp, r7
    22bc:	b002      	add	sp, #8
    22be:	bd80      	pop	{r7, pc}
    22c0:	40047000 	.word	0x40047000
    22c4:	00001004 	.word	0x00001004
    22c8:	f3ffffff 	.word	0xf3ffffff

000022cc <BOARD_InitDebugConsole>:
    22cc:	b580      	push	{r7, lr}
    22ce:	b082      	sub	sp, #8
    22d0:	af00      	add	r7, sp, #0
    22d2:	2001      	movs	r0, #1
    22d4:	f7ff ffde 	bl	2294 <CLOCK_SetLpsci0Clock>
    22d8:	f7ff f936 	bl	1548 <CLOCK_GetPllFllSelClkFreq>
    22dc:	0003      	movs	r3, r0
    22de:	607b      	str	r3, [r7, #4]
    22e0:	687b      	ldr	r3, [r7, #4]
    22e2:	22e1      	movs	r2, #225	; 0xe1
    22e4:	0251      	lsls	r1, r2, #9
    22e6:	4804      	ldr	r0, [pc, #16]	; (22f8 <BOARD_InitDebugConsole+0x2c>)
    22e8:	2203      	movs	r2, #3
    22ea:	f7fe f891 	bl	410 <DbgConsole_Init>
    22ee:	46c0      	nop			; (mov r8, r8)
    22f0:	46bd      	mov	sp, r7
    22f2:	b002      	add	sp, #8
    22f4:	bd80      	pop	{r7, pc}
    22f6:	46c0      	nop			; (mov r8, r8)
    22f8:	4006a000 	.word	0x4006a000

000022fc <CLOCK_SetSimSafeDivs>:
    22fc:	b580      	push	{r7, lr}
    22fe:	af00      	add	r7, sp, #0
    2300:	4a03      	ldr	r2, [pc, #12]	; (2310 <CLOCK_SetSimSafeDivs+0x14>)
    2302:	4b04      	ldr	r3, [pc, #16]	; (2314 <CLOCK_SetSimSafeDivs+0x18>)
    2304:	4904      	ldr	r1, [pc, #16]	; (2318 <CLOCK_SetSimSafeDivs+0x1c>)
    2306:	50d1      	str	r1, [r2, r3]
    2308:	46c0      	nop			; (mov r8, r8)
    230a:	46bd      	mov	sp, r7
    230c:	bd80      	pop	{r7, pc}
    230e:	46c0      	nop			; (mov r8, r8)
    2310:	40047000 	.word	0x40047000
    2314:	00001044 	.word	0x00001044
    2318:	10030000 	.word	0x10030000

0000231c <CLOCK_SetXtal0Freq>:
    231c:	b580      	push	{r7, lr}
    231e:	b082      	sub	sp, #8
    2320:	af00      	add	r7, sp, #0
    2322:	6078      	str	r0, [r7, #4]
    2324:	4b03      	ldr	r3, [pc, #12]	; (2334 <CLOCK_SetXtal0Freq+0x18>)
    2326:	687a      	ldr	r2, [r7, #4]
    2328:	601a      	str	r2, [r3, #0]
    232a:	46c0      	nop			; (mov r8, r8)
    232c:	46bd      	mov	sp, r7
    232e:	b002      	add	sp, #8
    2330:	bd80      	pop	{r7, pc}
    2332:	46c0      	nop			; (mov r8, r8)
    2334:	200002a0 	.word	0x200002a0

00002338 <CLOCK_CONFIG_SetFllExtRefDiv>:
    2338:	b580      	push	{r7, lr}
    233a:	b082      	sub	sp, #8
    233c:	af00      	add	r7, sp, #0
    233e:	0002      	movs	r2, r0
    2340:	1dfb      	adds	r3, r7, #7
    2342:	701a      	strb	r2, [r3, #0]
    2344:	4b0a      	ldr	r3, [pc, #40]	; (2370 <CLOCK_CONFIG_SetFllExtRefDiv+0x38>)
    2346:	781b      	ldrb	r3, [r3, #0]
    2348:	b2db      	uxtb	r3, r3
    234a:	2238      	movs	r2, #56	; 0x38
    234c:	4393      	bics	r3, r2
    234e:	b2da      	uxtb	r2, r3
    2350:	1dfb      	adds	r3, r7, #7
    2352:	781b      	ldrb	r3, [r3, #0]
    2354:	00db      	lsls	r3, r3, #3
    2356:	b2db      	uxtb	r3, r3
    2358:	2138      	movs	r1, #56	; 0x38
    235a:	400b      	ands	r3, r1
    235c:	b2db      	uxtb	r3, r3
    235e:	4904      	ldr	r1, [pc, #16]	; (2370 <CLOCK_CONFIG_SetFllExtRefDiv+0x38>)
    2360:	4313      	orrs	r3, r2
    2362:	b2db      	uxtb	r3, r3
    2364:	700b      	strb	r3, [r1, #0]
    2366:	46c0      	nop			; (mov r8, r8)
    2368:	46bd      	mov	sp, r7
    236a:	b002      	add	sp, #8
    236c:	bd80      	pop	{r7, pc}
    236e:	46c0      	nop			; (mov r8, r8)
    2370:	40064000 	.word	0x40064000

00002374 <BOARD_BootClockRUN>:
    2374:	b580      	push	{r7, lr}
    2376:	af00      	add	r7, sp, #0
    2378:	f7ff ffc0 	bl	22fc <CLOCK_SetSimSafeDivs>
    237c:	4b10      	ldr	r3, [pc, #64]	; (23c0 <BOARD_BootClockRUN+0x4c>)
    237e:	0018      	movs	r0, r3
    2380:	f7ff fa7a 	bl	1878 <CLOCK_InitOsc0>
    2384:	4b0f      	ldr	r3, [pc, #60]	; (23c4 <BOARD_BootClockRUN+0x50>)
    2386:	0018      	movs	r0, r3
    2388:	f7ff ffc8 	bl	231c <CLOCK_SetXtal0Freq>
    238c:	2300      	movs	r3, #0
    238e:	0018      	movs	r0, r3
    2390:	f7ff ffd2 	bl	2338 <CLOCK_CONFIG_SetFllExtRefDiv>
    2394:	4b0c      	ldr	r3, [pc, #48]	; (23c8 <BOARD_BootClockRUN+0x54>)
    2396:	001a      	movs	r2, r3
    2398:	2100      	movs	r1, #0
    239a:	2000      	movs	r0, #0
    239c:	f7ff fb0e 	bl	19bc <CLOCK_BootToPeeMode>
    23a0:	2302      	movs	r3, #2
    23a2:	2100      	movs	r1, #0
    23a4:	2200      	movs	r2, #0
    23a6:	0018      	movs	r0, r3
    23a8:	f7ff f98a 	bl	16c0 <CLOCK_SetInternalRefClkConfig>
    23ac:	4b07      	ldr	r3, [pc, #28]	; (23cc <BOARD_BootClockRUN+0x58>)
    23ae:	0018      	movs	r0, r3
    23b0:	f7ff f8f0 	bl	1594 <CLOCK_SetSimConfig>
    23b4:	4b06      	ldr	r3, [pc, #24]	; (23d0 <BOARD_BootClockRUN+0x5c>)
    23b6:	4a07      	ldr	r2, [pc, #28]	; (23d4 <BOARD_BootClockRUN+0x60>)
    23b8:	601a      	str	r2, [r3, #0]
    23ba:	46c0      	nop			; (mov r8, r8)
    23bc:	46bd      	mov	sp, r7
    23be:	bd80      	pop	{r7, pc}
    23c0:	0000519c 	.word	0x0000519c
    23c4:	007a1200 	.word	0x007a1200
    23c8:	0000518f 	.word	0x0000518f
    23cc:	00005194 	.word	0x00005194
    23d0:	1ffff084 	.word	0x1ffff084
    23d4:	02dc6c00 	.word	0x02dc6c00

000023d8 <CLOCK_EnableClock>:
    23d8:	b580      	push	{r7, lr}
    23da:	b084      	sub	sp, #16
    23dc:	af00      	add	r7, sp, #0
    23de:	6078      	str	r0, [r7, #4]
    23e0:	687b      	ldr	r3, [r7, #4]
    23e2:	0c1b      	lsrs	r3, r3, #16
    23e4:	4a08      	ldr	r2, [pc, #32]	; (2408 <CLOCK_EnableClock+0x30>)
    23e6:	4694      	mov	ip, r2
    23e8:	4463      	add	r3, ip
    23ea:	60fb      	str	r3, [r7, #12]
    23ec:	68fb      	ldr	r3, [r7, #12]
    23ee:	6819      	ldr	r1, [r3, #0]
    23f0:	687b      	ldr	r3, [r7, #4]
    23f2:	041b      	lsls	r3, r3, #16
    23f4:	0c1b      	lsrs	r3, r3, #16
    23f6:	2201      	movs	r2, #1
    23f8:	409a      	lsls	r2, r3
    23fa:	68fb      	ldr	r3, [r7, #12]
    23fc:	430a      	orrs	r2, r1
    23fe:	601a      	str	r2, [r3, #0]
    2400:	46c0      	nop			; (mov r8, r8)
    2402:	46bd      	mov	sp, r7
    2404:	b004      	add	sp, #16
    2406:	bd80      	pop	{r7, pc}
    2408:	40047000 	.word	0x40047000

0000240c <PORT_SetPinMux>:
    240c:	b580      	push	{r7, lr}
    240e:	b084      	sub	sp, #16
    2410:	af00      	add	r7, sp, #0
    2412:	60f8      	str	r0, [r7, #12]
    2414:	60b9      	str	r1, [r7, #8]
    2416:	1dfb      	adds	r3, r7, #7
    2418:	701a      	strb	r2, [r3, #0]
    241a:	68fb      	ldr	r3, [r7, #12]
    241c:	68ba      	ldr	r2, [r7, #8]
    241e:	0092      	lsls	r2, r2, #2
    2420:	58d3      	ldr	r3, [r2, r3]
    2422:	4a09      	ldr	r2, [pc, #36]	; (2448 <PORT_SetPinMux+0x3c>)
    2424:	401a      	ands	r2, r3
    2426:	1dfb      	adds	r3, r7, #7
    2428:	781b      	ldrb	r3, [r3, #0]
    242a:	0219      	lsls	r1, r3, #8
    242c:	23e0      	movs	r3, #224	; 0xe0
    242e:	00db      	lsls	r3, r3, #3
    2430:	400b      	ands	r3, r1
    2432:	431a      	orrs	r2, r3
    2434:	0011      	movs	r1, r2
    2436:	68fb      	ldr	r3, [r7, #12]
    2438:	68ba      	ldr	r2, [r7, #8]
    243a:	0092      	lsls	r2, r2, #2
    243c:	50d1      	str	r1, [r2, r3]
    243e:	46c0      	nop			; (mov r8, r8)
    2440:	46bd      	mov	sp, r7
    2442:	b004      	add	sp, #16
    2444:	bd80      	pop	{r7, pc}
    2446:	46c0      	nop			; (mov r8, r8)
    2448:	fffff8ff 	.word	0xfffff8ff

0000244c <BOARD_InitPins>:
    244c:	b580      	push	{r7, lr}
    244e:	af00      	add	r7, sp, #0
    2450:	4b0d      	ldr	r3, [pc, #52]	; (2488 <BOARD_InitPins+0x3c>)
    2452:	0018      	movs	r0, r3
    2454:	f7ff ffc0 	bl	23d8 <CLOCK_EnableClock>
    2458:	4b0c      	ldr	r3, [pc, #48]	; (248c <BOARD_InitPins+0x40>)
    245a:	2202      	movs	r2, #2
    245c:	2101      	movs	r1, #1
    245e:	0018      	movs	r0, r3
    2460:	f7ff ffd4 	bl	240c <PORT_SetPinMux>
    2464:	4b09      	ldr	r3, [pc, #36]	; (248c <BOARD_InitPins+0x40>)
    2466:	2202      	movs	r2, #2
    2468:	2102      	movs	r1, #2
    246a:	0018      	movs	r0, r3
    246c:	f7ff ffce 	bl	240c <PORT_SetPinMux>
    2470:	4a07      	ldr	r2, [pc, #28]	; (2490 <BOARD_InitPins+0x44>)
    2472:	4b08      	ldr	r3, [pc, #32]	; (2494 <BOARD_InitPins+0x48>)
    2474:	58d3      	ldr	r3, [r2, r3]
    2476:	4906      	ldr	r1, [pc, #24]	; (2490 <BOARD_InitPins+0x44>)
    2478:	2207      	movs	r2, #7
    247a:	4393      	bics	r3, r2
    247c:	4a05      	ldr	r2, [pc, #20]	; (2494 <BOARD_InitPins+0x48>)
    247e:	508b      	str	r3, [r1, r2]
    2480:	46c0      	nop			; (mov r8, r8)
    2482:	46bd      	mov	sp, r7
    2484:	bd80      	pop	{r7, pc}
    2486:	46c0      	nop			; (mov r8, r8)
    2488:	10380009 	.word	0x10380009
    248c:	40049000 	.word	0x40049000
    2490:	40047000 	.word	0x40047000
    2494:	00001010 	.word	0x00001010

00002498 <SystemInit>:
    2498:	b580      	push	{r7, lr}
    249a:	af00      	add	r7, sp, #0
    249c:	4a03      	ldr	r2, [pc, #12]	; (24ac <SystemInit+0x14>)
    249e:	2388      	movs	r3, #136	; 0x88
    24a0:	015b      	lsls	r3, r3, #5
    24a2:	2100      	movs	r1, #0
    24a4:	50d1      	str	r1, [r2, r3]
    24a6:	46c0      	nop			; (mov r8, r8)
    24a8:	46bd      	mov	sp, r7
    24aa:	bd80      	pop	{r7, pc}
    24ac:	40047000 	.word	0x40047000

000024b0 <__assertion_failed>:
    24b0:	b570      	push	{r4, r5, r6, lr}
    24b2:	0005      	movs	r5, r0
    24b4:	4c0e      	ldr	r4, [pc, #56]	; (24f0 <__assertion_failed+0x40>)
    24b6:	480f      	ldr	r0, [pc, #60]	; (24f4 <__assertion_failed+0x44>)
    24b8:	0021      	movs	r1, r4
    24ba:	f001 fed8 	bl	426e <fputs>
    24be:	0021      	movs	r1, r4
    24c0:	0028      	movs	r0, r5
    24c2:	f001 fed4 	bl	426e <fputs>
    24c6:	4a0c      	ldr	r2, [pc, #48]	; (24f8 <__assertion_failed+0x48>)
    24c8:	1d11      	adds	r1, r2, #4
    24ca:	6fcb      	ldr	r3, [r1, #124]	; 0x7c
    24cc:	3b01      	subs	r3, #1
    24ce:	67cb      	str	r3, [r1, #124]	; 0x7c
    24d0:	2b00      	cmp	r3, #0
    24d2:	db07      	blt.n	24e4 <__assertion_failed+0x34>
    24d4:	6f93      	ldr	r3, [r2, #120]	; 0x78
    24d6:	1c59      	adds	r1, r3, #1
    24d8:	6791      	str	r1, [r2, #120]	; 0x78
    24da:	220a      	movs	r2, #10
    24dc:	701a      	strb	r2, [r3, #0]
    24de:	f000 f80d 	bl	24fc <__exit>
    24e2:	bd70      	pop	{r4, r5, r6, pc}
    24e4:	0021      	movs	r1, r4
    24e6:	200a      	movs	r0, #10
    24e8:	f000 f82e 	bl	2548 <__flsbuf>
    24ec:	e7f7      	b.n	24de <__assertion_failed+0x2e>
    24ee:	46c0      	nop			; (mov r8, r8)
    24f0:	20000334 	.word	0x20000334
    24f4:	000051a8 	.word	0x000051a8
    24f8:	200002bc 	.word	0x200002bc

000024fc <__exit>:
    24fc:	2018      	movs	r0, #24
    24fe:	4901      	ldr	r1, [pc, #4]	; (2504 <__exit+0x8>)
    2500:	beab      	bkpt	0x00ab
    2502:	4770      	bx	lr
    2504:	00020026 	.word	0x00020026

00002508 <_deferredlazyseek>:
    2508:	2320      	movs	r3, #32
    250a:	68c2      	ldr	r2, [r0, #12]
    250c:	b510      	push	{r4, lr}
    250e:	439a      	bics	r2, r3
    2510:	60c2      	str	r2, [r0, #12]
    2512:	6983      	ldr	r3, [r0, #24]
    2514:	6a82      	ldr	r2, [r0, #40]	; 0x28
    2516:	0004      	movs	r4, r0
    2518:	4293      	cmp	r3, r2
    251a:	d00c      	beq.n	2536 <_deferredlazyseek+0x2e>
    251c:	f000 f8bc 	bl	2698 <_fflush>
    2520:	68e3      	ldr	r3, [r4, #12]
    2522:	4a07      	ldr	r2, [pc, #28]	; (2540 <_deferredlazyseek+0x38>)
    2524:	401a      	ands	r2, r3
    2526:	2310      	movs	r3, #16
    2528:	4313      	orrs	r3, r2
    252a:	60e3      	str	r3, [r4, #12]
    252c:	6aa3      	ldr	r3, [r4, #40]	; 0x28
    252e:	61a3      	str	r3, [r4, #24]
    2530:	6923      	ldr	r3, [r4, #16]
    2532:	62e3      	str	r3, [r4, #44]	; 0x2c
    2534:	6023      	str	r3, [r4, #0]
    2536:	68e2      	ldr	r2, [r4, #12]
    2538:	4b02      	ldr	r3, [pc, #8]	; (2544 <_deferredlazyseek+0x3c>)
    253a:	4013      	ands	r3, r2
    253c:	60e3      	str	r3, [r4, #12]
    253e:	bd10      	pop	{r4, pc}
    2540:	ffffcfef 	.word	0xffffcfef
    2544:	ffffbfbf 	.word	0xffffbfbf

00002548 <__flsbuf>:
    2548:	b5f8      	push	{r3, r4, r5, r6, r7, lr}
    254a:	68ca      	ldr	r2, [r1, #12]
    254c:	4b4f      	ldr	r3, [pc, #316]	; (268c <__flsbuf+0x144>)
    254e:	0005      	movs	r5, r0
    2550:	4013      	ands	r3, r2
    2552:	000c      	movs	r4, r1
    2554:	60cb      	str	r3, [r1, #12]
    2556:	0693      	lsls	r3, r2, #26
    2558:	d502      	bpl.n	2560 <__flsbuf+0x18>
    255a:	0008      	movs	r0, r1
    255c:	f7ff ffd4 	bl	2508 <_deferredlazyseek>
    2560:	68a2      	ldr	r2, [r4, #8]
    2562:	68e6      	ldr	r6, [r4, #12]
    2564:	1c53      	adds	r3, r2, #1
    2566:	da0f      	bge.n	2588 <__flsbuf+0x40>
    2568:	05b3      	lsls	r3, r6, #22
    256a:	d40d      	bmi.n	2588 <__flsbuf+0x40>
    256c:	2302      	movs	r3, #2
    256e:	425b      	negs	r3, r3
    2570:	1a9b      	subs	r3, r3, r2
    2572:	60a3      	str	r3, [r4, #8]
    2574:	2390      	movs	r3, #144	; 0x90
    2576:	025b      	lsls	r3, r3, #9
    2578:	431e      	orrs	r6, r3
    257a:	6823      	ldr	r3, [r4, #0]
    257c:	60e6      	str	r6, [r4, #12]
    257e:	1c5a      	adds	r2, r3, #1
    2580:	6022      	str	r2, [r4, #0]
    2582:	701d      	strb	r5, [r3, #0]
    2584:	b2e8      	uxtb	r0, r5
    2586:	e00a      	b.n	259e <__flsbuf+0x56>
    2588:	4a41      	ldr	r2, [pc, #260]	; (2690 <__flsbuf+0x148>)
    258a:	4032      	ands	r2, r6
    258c:	2a02      	cmp	r2, #2
    258e:	d007      	beq.n	25a0 <__flsbuf+0x58>
    2590:	2300      	movs	r3, #0
    2592:	60a3      	str	r3, [r4, #8]
    2594:	3380      	adds	r3, #128	; 0x80
    2596:	431e      	orrs	r6, r3
    2598:	60e6      	str	r6, [r4, #12]
    259a:	2001      	movs	r0, #1
    259c:	4240      	negs	r0, r0
    259e:	bdf8      	pop	{r3, r4, r5, r6, r7, pc}
    25a0:	2180      	movs	r1, #128	; 0x80
    25a2:	4b3c      	ldr	r3, [pc, #240]	; (2694 <__flsbuf+0x14c>)
    25a4:	0209      	lsls	r1, r1, #8
    25a6:	4033      	ands	r3, r6
    25a8:	428b      	cmp	r3, r1
    25aa:	d10a      	bne.n	25c2 <__flsbuf+0x7a>
    25ac:	2100      	movs	r1, #0
    25ae:	0020      	movs	r0, r4
    25b0:	f000 f94c 	bl	284c <fseek>
    25b4:	68e3      	ldr	r3, [r4, #12]
    25b6:	069b      	lsls	r3, r3, #26
    25b8:	d502      	bpl.n	25c0 <__flsbuf+0x78>
    25ba:	0020      	movs	r0, r4
    25bc:	f7ff ffa4 	bl	2508 <_deferredlazyseek>
    25c0:	68e6      	ldr	r6, [r4, #12]
    25c2:	2390      	movs	r3, #144	; 0x90
    25c4:	22f0      	movs	r2, #240	; 0xf0
    25c6:	025b      	lsls	r3, r3, #9
    25c8:	4333      	orrs	r3, r6
    25ca:	0112      	lsls	r2, r2, #4
    25cc:	60e3      	str	r3, [r4, #12]
    25ce:	4216      	tst	r6, r2
    25d0:	d110      	bne.n	25f4 <__flsbuf+0xac>
    25d2:	6960      	ldr	r0, [r4, #20]
    25d4:	f001 ff00 	bl	43d8 <__sys_istty>
    25d8:	2800      	cmp	r0, #0
    25da:	d021      	beq.n	2620 <__flsbuf+0xd8>
    25dc:	0573      	lsls	r3, r6, #21
    25de:	d51f      	bpl.n	2620 <__flsbuf+0xd8>
    25e0:	0023      	movs	r3, r4
    25e2:	3324      	adds	r3, #36	; 0x24
    25e4:	6123      	str	r3, [r4, #16]
    25e6:	6023      	str	r3, [r4, #0]
    25e8:	2301      	movs	r3, #1
    25ea:	61e3      	str	r3, [r4, #28]
    25ec:	2392      	movs	r3, #146	; 0x92
    25ee:	025b      	lsls	r3, r3, #9
    25f0:	4333      	orrs	r3, r6
    25f2:	60e3      	str	r3, [r4, #12]
    25f4:	2190      	movs	r1, #144	; 0x90
    25f6:	0109      	lsls	r1, r1, #4
    25f8:	6822      	ldr	r2, [r4, #0]
    25fa:	6926      	ldr	r6, [r4, #16]
    25fc:	420b      	tst	r3, r1
    25fe:	d025      	beq.n	264c <__flsbuf+0x104>
    2600:	6ae3      	ldr	r3, [r4, #44]	; 0x2c
    2602:	429a      	cmp	r2, r3
    2604:	d900      	bls.n	2608 <__flsbuf+0xc0>
    2606:	0013      	movs	r3, r2
    2608:	1b99      	subs	r1, r3, r6
    260a:	42b3      	cmp	r3, r6
    260c:	d117      	bne.n	263e <__flsbuf+0xf6>
    260e:	1c73      	adds	r3, r6, #1
    2610:	62e3      	str	r3, [r4, #44]	; 0x2c
    2612:	6023      	str	r3, [r4, #0]
    2614:	69e3      	ldr	r3, [r4, #28]
    2616:	1e5a      	subs	r2, r3, #1
    2618:	60a2      	str	r2, [r4, #8]
    261a:	6323      	str	r3, [r4, #48]	; 0x30
    261c:	7035      	strb	r5, [r6, #0]
    261e:	e7b1      	b.n	2584 <__flsbuf+0x3c>
    2620:	2780      	movs	r7, #128	; 0x80
    2622:	007f      	lsls	r7, r7, #1
    2624:	0038      	movs	r0, r7
    2626:	f000 f901 	bl	282c <_Csys_alloc>
    262a:	2394      	movs	r3, #148	; 0x94
    262c:	68e2      	ldr	r2, [r4, #12]
    262e:	025b      	lsls	r3, r3, #9
    2630:	4333      	orrs	r3, r6
    2632:	431a      	orrs	r2, r3
    2634:	6120      	str	r0, [r4, #16]
    2636:	6020      	str	r0, [r4, #0]
    2638:	61e7      	str	r7, [r4, #28]
    263a:	60e2      	str	r2, [r4, #12]
    263c:	e7da      	b.n	25f4 <__flsbuf+0xac>
    263e:	0022      	movs	r2, r4
    2640:	0030      	movs	r0, r6
    2642:	f000 f859 	bl	26f8 <_Cwritebuf>
    2646:	2800      	cmp	r0, #0
    2648:	d0e1      	beq.n	260e <__flsbuf+0xc6>
    264a:	e7a6      	b.n	259a <__flsbuf+0x52>
    264c:	1c51      	adds	r1, r2, #1
    264e:	b2e8      	uxtb	r0, r5
    2650:	6021      	str	r1, [r4, #0]
    2652:	7010      	strb	r0, [r2, #0]
    2654:	6ae2      	ldr	r2, [r4, #44]	; 0x2c
    2656:	6821      	ldr	r1, [r4, #0]
    2658:	428a      	cmp	r2, r1
    265a:	d900      	bls.n	265e <__flsbuf+0x116>
    265c:	0011      	movs	r1, r2
    265e:	69e2      	ldr	r2, [r4, #28]
    2660:	1b89      	subs	r1, r1, r6
    2662:	6322      	str	r2, [r4, #48]	; 0x30
    2664:	055b      	lsls	r3, r3, #21
    2666:	d404      	bmi.n	2672 <__flsbuf+0x12a>
    2668:	280a      	cmp	r0, #10
    266a:	d002      	beq.n	2672 <__flsbuf+0x12a>
    266c:	428a      	cmp	r2, r1
    266e:	dd00      	ble.n	2672 <__flsbuf+0x12a>
    2670:	e788      	b.n	2584 <__flsbuf+0x3c>
    2672:	2300      	movs	r3, #0
    2674:	0022      	movs	r2, r4
    2676:	0030      	movs	r0, r6
    2678:	62e6      	str	r6, [r4, #44]	; 0x2c
    267a:	6026      	str	r6, [r4, #0]
    267c:	60a3      	str	r3, [r4, #8]
    267e:	f000 f83b 	bl	26f8 <_Cwritebuf>
    2682:	2800      	cmp	r0, #0
    2684:	d000      	beq.n	2688 <__flsbuf+0x140>
    2686:	e788      	b.n	259a <__flsbuf+0x52>
    2688:	e77c      	b.n	2584 <__flsbuf+0x3c>
    268a:	46c0      	nop			; (mov r8, r8)
    268c:	fff7ffff 	.word	0xfff7ffff
    2690:	0000108a 	.word	0x0000108a
    2694:	0000a010 	.word	0x0000a010

00002698 <_fflush>:
    2698:	68c3      	ldr	r3, [r0, #12]
    269a:	4a15      	ldr	r2, [pc, #84]	; (26f0 <_fflush+0x58>)
    269c:	b570      	push	{r4, r5, r6, lr}
    269e:	401a      	ands	r2, r3
    26a0:	60c2      	str	r2, [r0, #12]
    26a2:	2282      	movs	r2, #130	; 0x82
    26a4:	0004      	movs	r4, r0
    26a6:	6905      	ldr	r5, [r0, #16]
    26a8:	6801      	ldr	r1, [r0, #0]
    26aa:	6ac6      	ldr	r6, [r0, #44]	; 0x2c
    26ac:	401a      	ands	r2, r3
    26ae:	2a02      	cmp	r2, #2
    26b0:	d002      	beq.n	26b8 <_fflush+0x20>
    26b2:	2001      	movs	r0, #1
    26b4:	4240      	negs	r0, r0
    26b6:	bd70      	pop	{r4, r5, r6, pc}
    26b8:	2280      	movs	r2, #128	; 0x80
    26ba:	0018      	movs	r0, r3
    26bc:	0252      	lsls	r2, r2, #9
    26be:	4010      	ands	r0, r2
    26c0:	4213      	tst	r3, r2
    26c2:	d0f8      	beq.n	26b6 <_fflush+0x1e>
    26c4:	42b1      	cmp	r1, r6
    26c6:	d200      	bcs.n	26ca <_fflush+0x32>
    26c8:	0031      	movs	r1, r6
    26ca:	428d      	cmp	r5, r1
    26cc:	d108      	bne.n	26e0 <_fflush+0x48>
    26ce:	2000      	movs	r0, #0
    26d0:	68e2      	ldr	r2, [r4, #12]
    26d2:	4b08      	ldr	r3, [pc, #32]	; (26f4 <_fflush+0x5c>)
    26d4:	62e5      	str	r5, [r4, #44]	; 0x2c
    26d6:	4013      	ands	r3, r2
    26d8:	6025      	str	r5, [r4, #0]
    26da:	60a0      	str	r0, [r4, #8]
    26dc:	60e3      	str	r3, [r4, #12]
    26de:	e7ea      	b.n	26b6 <_fflush+0x1e>
    26e0:	0022      	movs	r2, r4
    26e2:	0028      	movs	r0, r5
    26e4:	1b49      	subs	r1, r1, r5
    26e6:	f000 f807 	bl	26f8 <_Cwritebuf>
    26ea:	2800      	cmp	r0, #0
    26ec:	d0ef      	beq.n	26ce <_fflush+0x36>
    26ee:	e7e0      	b.n	26b2 <_fflush+0x1a>
    26f0:	fff7ffff 	.word	0xfff7ffff
    26f4:	fffeffff 	.word	0xfffeffff

000026f8 <_Cwritebuf>:
    26f8:	b5f7      	push	{r0, r1, r2, r4, r5, r6, r7, lr}
    26fa:	68d5      	ldr	r5, [r2, #12]
    26fc:	000f      	movs	r7, r1
    26fe:	0014      	movs	r4, r2
    2700:	6956      	ldr	r6, [r2, #20]
    2702:	9001      	str	r0, [sp, #4]
    2704:	02eb      	lsls	r3, r5, #11
    2706:	d505      	bpl.n	2714 <_Cwritebuf+0x1c>
    2708:	2310      	movs	r3, #16
    270a:	0030      	movs	r0, r6
    270c:	431d      	orrs	r5, r3
    270e:	f001 fe5d 	bl	43cc <__sys_flen>
    2712:	61a0      	str	r0, [r4, #24]
    2714:	4b10      	ldr	r3, [pc, #64]	; (2758 <_Cwritebuf+0x60>)
    2716:	421d      	tst	r5, r3
    2718:	d00f      	beq.n	273a <_Cwritebuf+0x42>
    271a:	0030      	movs	r0, r6
    271c:	69a1      	ldr	r1, [r4, #24]
    271e:	f001 fe67 	bl	43f0 <__sys_seek>
    2722:	2800      	cmp	r0, #0
    2724:	da06      	bge.n	2734 <_Cwritebuf+0x3c>
    2726:	2380      	movs	r3, #128	; 0x80
    2728:	2001      	movs	r0, #1
    272a:	68e2      	ldr	r2, [r4, #12]
    272c:	4240      	negs	r0, r0
    272e:	4313      	orrs	r3, r2
    2730:	60e3      	str	r3, [r4, #12]
    2732:	e00f      	b.n	2754 <_Cwritebuf+0x5c>
    2734:	4b09      	ldr	r3, [pc, #36]	; (275c <_Cwritebuf+0x64>)
    2736:	401d      	ands	r5, r3
    2738:	60e5      	str	r5, [r4, #12]
    273a:	9901      	ldr	r1, [sp, #4]
    273c:	003a      	movs	r2, r7
    273e:	0030      	movs	r0, r6
    2740:	f7fd fee0 	bl	504 <__sys_write>
    2744:	0041      	lsls	r1, r0, #1
    2746:	69a3      	ldr	r3, [r4, #24]
    2748:	0849      	lsrs	r1, r1, #1
    274a:	1a79      	subs	r1, r7, r1
    274c:	1859      	adds	r1, r3, r1
    274e:	61a1      	str	r1, [r4, #24]
    2750:	2800      	cmp	r0, #0
    2752:	d1e8      	bne.n	2726 <_Cwritebuf+0x2e>
    2754:	bdfe      	pop	{r1, r2, r3, r4, r5, r6, r7, pc}
    2756:	46c0      	nop			; (mov r8, r8)
    2758:	00020010 	.word	0x00020010
    275c:	fffdffef 	.word	0xfffdffef

00002760 <malloc>:
    2760:	b5f7      	push	{r0, r1, r2, r4, r5, r6, r7, lr}
    2762:	2700      	movs	r7, #0
    2764:	4b30      	ldr	r3, [pc, #192]	; (2828 <malloc+0xc8>)
    2766:	1cc2      	adds	r2, r0, #3
    2768:	681c      	ldr	r4, [r3, #0]
    276a:	0895      	lsrs	r5, r2, #2
    276c:	42b8      	cmp	r0, r7
    276e:	d017      	beq.n	27a0 <malloc+0x40>
    2770:	002b      	movs	r3, r5
    2772:	330a      	adds	r3, #10
    2774:	2180      	movs	r1, #128	; 0x80
    2776:	9301      	str	r3, [sp, #4]
    2778:	1ceb      	adds	r3, r5, #3
    277a:	469c      	mov	ip, r3
    277c:	0549      	lsls	r1, r1, #21
    277e:	2c00      	cmp	r4, #0
    2780:	d110      	bne.n	27a4 <malloc+0x44>
    2782:	300c      	adds	r0, #12
    2784:	f001 f8cc 	bl	3920 <_sbrk>
    2788:	1c43      	adds	r3, r0, #1
    278a:	d009      	beq.n	27a0 <malloc+0x40>
    278c:	2380      	movs	r3, #128	; 0x80
    278e:	059b      	lsls	r3, r3, #22
    2790:	6003      	str	r3, [r0, #0]
    2792:	6045      	str	r5, [r0, #4]
    2794:	6084      	str	r4, [r0, #8]
    2796:	2f00      	cmp	r7, #0
    2798:	d144      	bne.n	2824 <malloc+0xc4>
    279a:	4b23      	ldr	r3, [pc, #140]	; (2828 <malloc+0xc8>)
    279c:	6018      	str	r0, [r3, #0]
    279e:	e01a      	b.n	27d6 <malloc+0x76>
    27a0:	2000      	movs	r0, #0
    27a2:	bdfe      	pop	{r1, r2, r3, r4, r5, r6, r7, pc}
    27a4:	6823      	ldr	r3, [r4, #0]
    27a6:	428b      	cmp	r3, r1
    27a8:	d139      	bne.n	281e <malloc+0xbe>
    27aa:	68a7      	ldr	r7, [r4, #8]
    27ac:	6863      	ldr	r3, [r4, #4]
    27ae:	2f00      	cmp	r7, #0
    27b0:	d009      	beq.n	27c6 <malloc+0x66>
    27b2:	683e      	ldr	r6, [r7, #0]
    27b4:	428e      	cmp	r6, r1
    27b6:	d106      	bne.n	27c6 <malloc+0x66>
    27b8:	687e      	ldr	r6, [r7, #4]
    27ba:	3303      	adds	r3, #3
    27bc:	18f3      	adds	r3, r6, r3
    27be:	6063      	str	r3, [r4, #4]
    27c0:	68bb      	ldr	r3, [r7, #8]
    27c2:	60a3      	str	r3, [r4, #8]
    27c4:	e7f1      	b.n	27aa <malloc+0x4a>
    27c6:	42ab      	cmp	r3, r5
    27c8:	db07      	blt.n	27da <malloc+0x7a>
    27ca:	4563      	cmp	r3, ip
    27cc:	dc05      	bgt.n	27da <malloc+0x7a>
    27ce:	2380      	movs	r3, #128	; 0x80
    27d0:	059b      	lsls	r3, r3, #22
    27d2:	6023      	str	r3, [r4, #0]
    27d4:	0020      	movs	r0, r4
    27d6:	300c      	adds	r0, #12
    27d8:	e7e3      	b.n	27a2 <malloc+0x42>
    27da:	9e01      	ldr	r6, [sp, #4]
    27dc:	42b3      	cmp	r3, r6
    27de:	d911      	bls.n	2804 <malloc+0xa4>
    27e0:	2180      	movs	r1, #128	; 0x80
    27e2:	0589      	lsls	r1, r1, #22
    27e4:	6021      	str	r1, [r4, #0]
    27e6:	2103      	movs	r1, #3
    27e8:	0020      	movs	r0, r4
    27ea:	438a      	bics	r2, r1
    27ec:	2180      	movs	r1, #128	; 0x80
    27ee:	300c      	adds	r0, #12
    27f0:	1b5b      	subs	r3, r3, r5
    27f2:	1882      	adds	r2, r0, r2
    27f4:	0549      	lsls	r1, r1, #21
    27f6:	3b03      	subs	r3, #3
    27f8:	6065      	str	r5, [r4, #4]
    27fa:	60a2      	str	r2, [r4, #8]
    27fc:	6011      	str	r1, [r2, #0]
    27fe:	6053      	str	r3, [r2, #4]
    2800:	6097      	str	r7, [r2, #8]
    2802:	e7ce      	b.n	27a2 <malloc+0x42>
    2804:	2f00      	cmp	r7, #0
    2806:	d10a      	bne.n	281e <malloc+0xbe>
    2808:	009b      	lsls	r3, r3, #2
    280a:	1ac0      	subs	r0, r0, r3
    280c:	f001 f888 	bl	3920 <_sbrk>
    2810:	1c43      	adds	r3, r0, #1
    2812:	d0c5      	beq.n	27a0 <malloc+0x40>
    2814:	2380      	movs	r3, #128	; 0x80
    2816:	059b      	lsls	r3, r3, #22
    2818:	6023      	str	r3, [r4, #0]
    281a:	6065      	str	r5, [r4, #4]
    281c:	e7da      	b.n	27d4 <malloc+0x74>
    281e:	0027      	movs	r7, r4
    2820:	68a4      	ldr	r4, [r4, #8]
    2822:	e7ac      	b.n	277e <malloc+0x1e>
    2824:	60b8      	str	r0, [r7, #8]
    2826:	e7d6      	b.n	27d6 <malloc+0x76>
    2828:	200003fc 	.word	0x200003fc

0000282c <_Csys_alloc>:
    282c:	b510      	push	{r4, lr}
    282e:	f7ff ff97 	bl	2760 <malloc>
    2832:	1e04      	subs	r4, r0, #0
    2834:	d105      	bne.n	2842 <_Csys_alloc+0x16>
    2836:	2217      	movs	r2, #23
    2838:	4903      	ldr	r1, [pc, #12]	; (2848 <_Csys_alloc+0x1c>)
    283a:	f7fd fe63 	bl	504 <__sys_write>
    283e:	f7ff fe5d 	bl	24fc <__exit>
    2842:	0020      	movs	r0, r4
    2844:	bd10      	pop	{r4, pc}
    2846:	46c0      	nop			; (mov r8, r8)
    2848:	000051bd 	.word	0x000051bd

0000284c <fseek>:
    284c:	b5f7      	push	{r0, r1, r2, r4, r5, r6, r7, lr}
    284e:	4b39      	ldr	r3, [pc, #228]	; (2934 <fseek+0xe8>)
    2850:	68c6      	ldr	r6, [r0, #12]
    2852:	0004      	movs	r4, r0
    2854:	000d      	movs	r5, r1
    2856:	9200      	str	r2, [sp, #0]
    2858:	421e      	tst	r6, r3
    285a:	d102      	bne.n	2862 <fseek+0x16>
    285c:	2702      	movs	r7, #2
    285e:	0038      	movs	r0, r7
    2860:	bdfe      	pop	{r1, r2, r3, r4, r5, r6, r7, pc}
    2862:	6943      	ldr	r3, [r0, #20]
    2864:	0018      	movs	r0, r3
    2866:	9301      	str	r3, [sp, #4]
    2868:	f001 fdb6 	bl	43d8 <__sys_istty>
    286c:	1e07      	subs	r7, r0, #0
    286e:	d1f5      	bne.n	285c <fseek+0x10>
    2870:	9b00      	ldr	r3, [sp, #0]
    2872:	2b01      	cmp	r3, #1
    2874:	d005      	beq.n	2882 <fseek+0x36>
    2876:	2b02      	cmp	r3, #2
    2878:	d02c      	beq.n	28d4 <fseek+0x88>
    287a:	2b00      	cmp	r3, #0
    287c:	d005      	beq.n	288a <fseek+0x3e>
    287e:	3702      	adds	r7, #2
    2880:	e7ed      	b.n	285e <fseek+0x12>
    2882:	0020      	movs	r0, r4
    2884:	f000 f85a 	bl	293c <ftell>
    2888:	182d      	adds	r5, r5, r0
    288a:	2d00      	cmp	r5, #0
    288c:	dbe6      	blt.n	285c <fseek+0x10>
    288e:	04b3      	lsls	r3, r6, #18
    2890:	d504      	bpl.n	289c <fseek+0x50>
    2892:	6823      	ldr	r3, [r4, #0]
    2894:	6ae2      	ldr	r2, [r4, #44]	; 0x2c
    2896:	429a      	cmp	r2, r3
    2898:	d200      	bcs.n	289c <fseek+0x50>
    289a:	62e3      	str	r3, [r4, #44]	; 0x2c
    289c:	69a1      	ldr	r1, [r4, #24]
    289e:	42a9      	cmp	r1, r5
    28a0:	dc0e      	bgt.n	28c0 <fseek+0x74>
    28a2:	6ae2      	ldr	r2, [r4, #44]	; 0x2c
    28a4:	6823      	ldr	r3, [r4, #0]
    28a6:	4293      	cmp	r3, r2
    28a8:	d200      	bcs.n	28ac <fseek+0x60>
    28aa:	0013      	movs	r3, r2
    28ac:	6922      	ldr	r2, [r4, #16]
    28ae:	1858      	adds	r0, r3, r1
    28b0:	9200      	str	r2, [sp, #0]
    28b2:	1a80      	subs	r0, r0, r2
    28b4:	42a8      	cmp	r0, r5
    28b6:	db03      	blt.n	28c0 <fseek+0x74>
    28b8:	6b20      	ldr	r0, [r4, #48]	; 0x30
    28ba:	180a      	adds	r2, r1, r0
    28bc:	42aa      	cmp	r2, r5
    28be:	dc28      	bgt.n	2912 <fseek+0xc6>
    28c0:	2320      	movs	r3, #32
    28c2:	431e      	orrs	r6, r3
    28c4:	2300      	movs	r3, #0
    28c6:	62a5      	str	r5, [r4, #40]	; 0x28
    28c8:	60a3      	str	r3, [r4, #8]
    28ca:	6063      	str	r3, [r4, #4]
    28cc:	4b1a      	ldr	r3, [pc, #104]	; (2938 <fseek+0xec>)
    28ce:	401e      	ands	r6, r3
    28d0:	60e6      	str	r6, [r4, #12]
    28d2:	e7c4      	b.n	285e <fseek+0x12>
    28d4:	9801      	ldr	r0, [sp, #4]
    28d6:	f001 fd79 	bl	43cc <__sys_flen>
    28da:	68e2      	ldr	r2, [r4, #12]
    28dc:	2800      	cmp	r0, #0
    28de:	da04      	bge.n	28ea <fseek+0x9e>
    28e0:	2380      	movs	r3, #128	; 0x80
    28e2:	4313      	orrs	r3, r2
    28e4:	2701      	movs	r7, #1
    28e6:	60e3      	str	r3, [r4, #12]
    28e8:	e7b9      	b.n	285e <fseek+0x12>
    28ea:	6ae1      	ldr	r1, [r4, #44]	; 0x2c
    28ec:	6823      	ldr	r3, [r4, #0]
    28ee:	4299      	cmp	r1, r3
    28f0:	d900      	bls.n	28f4 <fseek+0xa8>
    28f2:	000b      	movs	r3, r1
    28f4:	69a1      	ldr	r1, [r4, #24]
    28f6:	185b      	adds	r3, r3, r1
    28f8:	6921      	ldr	r1, [r4, #16]
    28fa:	1a5b      	subs	r3, r3, r1
    28fc:	0692      	lsls	r2, r2, #26
    28fe:	d503      	bpl.n	2908 <fseek+0xbc>
    2900:	6aa2      	ldr	r2, [r4, #40]	; 0x28
    2902:	4293      	cmp	r3, r2
    2904:	da00      	bge.n	2908 <fseek+0xbc>
    2906:	0013      	movs	r3, r2
    2908:	4283      	cmp	r3, r0
    290a:	da00      	bge.n	290e <fseek+0xc2>
    290c:	0003      	movs	r3, r0
    290e:	18ed      	adds	r5, r5, r3
    2910:	e7bb      	b.n	288a <fseek+0x3e>
    2912:	1a6d      	subs	r5, r5, r1
    2914:	07b2      	lsls	r2, r6, #30
    2916:	d501      	bpl.n	291c <fseek+0xd0>
    2918:	1a28      	subs	r0, r5, r0
    291a:	60a0      	str	r0, [r4, #8]
    291c:	07f2      	lsls	r2, r6, #31
    291e:	d503      	bpl.n	2928 <fseek+0xdc>
    2920:	9a00      	ldr	r2, [sp, #0]
    2922:	1a9b      	subs	r3, r3, r2
    2924:	1aeb      	subs	r3, r5, r3
    2926:	6063      	str	r3, [r4, #4]
    2928:	9b00      	ldr	r3, [sp, #0]
    292a:	195d      	adds	r5, r3, r5
    292c:	2320      	movs	r3, #32
    292e:	6025      	str	r5, [r4, #0]
    2930:	439e      	bics	r6, r3
    2932:	e7cb      	b.n	28cc <fseek+0x80>
    2934:	00100003 	.word	0x00100003
    2938:	fff7cfbf 	.word	0xfff7cfbf

0000293c <ftell>:
    293c:	68c2      	ldr	r2, [r0, #12]
    293e:	0793      	lsls	r3, r2, #30
    2940:	d105      	bne.n	294e <ftell+0x12>
    2942:	2221      	movs	r2, #33	; 0x21
    2944:	2001      	movs	r0, #1
    2946:	4b0e      	ldr	r3, [pc, #56]	; (2980 <ftell+0x44>)
    2948:	4240      	negs	r0, r0
    294a:	601a      	str	r2, [r3, #0]
    294c:	4770      	bx	lr
    294e:	2320      	movs	r3, #32
    2950:	4013      	ands	r3, r2
    2952:	0312      	lsls	r2, r2, #12
    2954:	d50a      	bpl.n	296c <ftell+0x30>
    2956:	2b00      	cmp	r3, #0
    2958:	d002      	beq.n	2960 <ftell+0x24>
    295a:	6a80      	ldr	r0, [r0, #40]	; 0x28
    295c:	3801      	subs	r0, #1
    295e:	e7f5      	b.n	294c <ftell+0x10>
    2960:	6803      	ldr	r3, [r0, #0]
    2962:	6982      	ldr	r2, [r0, #24]
    2964:	6900      	ldr	r0, [r0, #16]
    2966:	189b      	adds	r3, r3, r2
    2968:	1a18      	subs	r0, r3, r0
    296a:	e7f7      	b.n	295c <ftell+0x20>
    296c:	2b00      	cmp	r3, #0
    296e:	d001      	beq.n	2974 <ftell+0x38>
    2970:	6a80      	ldr	r0, [r0, #40]	; 0x28
    2972:	e7eb      	b.n	294c <ftell+0x10>
    2974:	6803      	ldr	r3, [r0, #0]
    2976:	6982      	ldr	r2, [r0, #24]
    2978:	6900      	ldr	r0, [r0, #16]
    297a:	189b      	adds	r3, r3, r2
    297c:	1a18      	subs	r0, r3, r0
    297e:	e7e5      	b.n	294c <ftell+0x10>
    2980:	20000400 	.word	0x20000400

00002984 <_initio>:
    2984:	b537      	push	{r0, r1, r2, r4, r5, lr}
    2986:	4c18      	ldr	r4, [pc, #96]	; (29e8 <_initio+0x64>)
    2988:	4918      	ldr	r1, [pc, #96]	; (29ec <_initio+0x68>)
    298a:	0022      	movs	r2, r4
    298c:	2000      	movs	r0, #0
    298e:	f000 ffe9 	bl	3964 <_fdopen>
    2992:	2380      	movs	r3, #128	; 0x80
    2994:	2280      	movs	r2, #128	; 0x80
    2996:	005b      	lsls	r3, r3, #1
    2998:	2100      	movs	r1, #0
    299a:	0020      	movs	r0, r4
    299c:	00d2      	lsls	r2, r2, #3
    299e:	f000 ff57 	bl	3850 <setvbuf>
    29a2:	4c13      	ldr	r4, [pc, #76]	; (29f0 <_initio+0x6c>)
    29a4:	4d13      	ldr	r5, [pc, #76]	; (29f4 <_initio+0x70>)
    29a6:	0022      	movs	r2, r4
    29a8:	0029      	movs	r1, r5
    29aa:	2001      	movs	r0, #1
    29ac:	f000 ffda 	bl	3964 <_fdopen>
    29b0:	2380      	movs	r3, #128	; 0x80
    29b2:	2280      	movs	r2, #128	; 0x80
    29b4:	005b      	lsls	r3, r3, #1
    29b6:	2100      	movs	r1, #0
    29b8:	0020      	movs	r0, r4
    29ba:	00d2      	lsls	r2, r2, #3
    29bc:	f000 ff48 	bl	3850 <setvbuf>
    29c0:	4b0d      	ldr	r3, [pc, #52]	; (29f8 <_initio+0x74>)
    29c2:	681b      	ldr	r3, [r3, #0]
    29c4:	9301      	str	r3, [sp, #4]
    29c6:	2b02      	cmp	r3, #2
    29c8:	dd0d      	ble.n	29e6 <_initio+0x62>
    29ca:	4c0c      	ldr	r4, [pc, #48]	; (29fc <_initio+0x78>)
    29cc:	0029      	movs	r1, r5
    29ce:	0022      	movs	r2, r4
    29d0:	2002      	movs	r0, #2
    29d2:	f000 ffc7 	bl	3964 <_fdopen>
    29d6:	2380      	movs	r3, #128	; 0x80
    29d8:	2280      	movs	r2, #128	; 0x80
    29da:	2100      	movs	r1, #0
    29dc:	0020      	movs	r0, r4
    29de:	005b      	lsls	r3, r3, #1
    29e0:	00d2      	lsls	r2, r2, #3
    29e2:	f000 ff35 	bl	3850 <setvbuf>
    29e6:	bd37      	pop	{r0, r1, r2, r4, r5, pc}
    29e8:	200002bc 	.word	0x200002bc
    29ec:	000051d5 	.word	0x000051d5
    29f0:	200002f8 	.word	0x200002f8
    29f4:	000051d7 	.word	0x000051d7
    29f8:	000051a4 	.word	0x000051a4
    29fc:	20000334 	.word	0x20000334

00002a00 <_terminateio>:
    2a00:	b5f8      	push	{r3, r4, r5, r6, r7, lr}
    2a02:	2780      	movs	r7, #128	; 0x80
    2a04:	2503      	movs	r5, #3
    2a06:	4b0d      	ldr	r3, [pc, #52]	; (2a3c <_terminateio+0x3c>)
    2a08:	4c0d      	ldr	r4, [pc, #52]	; (2a40 <_terminateio+0x40>)
    2a0a:	681e      	ldr	r6, [r3, #0]
    2a0c:	03bf      	lsls	r7, r7, #14
    2a0e:	42ae      	cmp	r6, r5
    2a10:	dc0b      	bgt.n	2a2a <_terminateio+0x2a>
    2a12:	480c      	ldr	r0, [pc, #48]	; (2a44 <_terminateio+0x44>)
    2a14:	f000 ffe0 	bl	39d8 <fclose>
    2a18:	480b      	ldr	r0, [pc, #44]	; (2a48 <_terminateio+0x48>)
    2a1a:	f000 ffdd 	bl	39d8 <fclose>
    2a1e:	2e02      	cmp	r6, #2
    2a20:	dd02      	ble.n	2a28 <_terminateio+0x28>
    2a22:	480a      	ldr	r0, [pc, #40]	; (2a4c <_terminateio+0x4c>)
    2a24:	f000 ffd8 	bl	39d8 <fclose>
    2a28:	bdf8      	pop	{r3, r4, r5, r6, r7, pc}
    2a2a:	68e3      	ldr	r3, [r4, #12]
    2a2c:	423b      	tst	r3, r7
    2a2e:	d002      	beq.n	2a36 <_terminateio+0x36>
    2a30:	0020      	movs	r0, r4
    2a32:	f000 ffd1 	bl	39d8 <fclose>
    2a36:	3501      	adds	r5, #1
    2a38:	343c      	adds	r4, #60	; 0x3c
    2a3a:	e7e8      	b.n	2a0e <_terminateio+0xe>
    2a3c:	000051a4 	.word	0x000051a4
    2a40:	20000370 	.word	0x20000370
    2a44:	200002bc 	.word	0x200002bc
    2a48:	200002f8 	.word	0x200002f8
    2a4c:	20000334 	.word	0x20000334

00002a50 <__vfprintf>:
    2a50:	b5f0      	push	{r4, r5, r6, r7, lr}
    2a52:	b0cf      	sub	sp, #316	; 0x13c
    2a54:	920a      	str	r2, [sp, #40]	; 0x28
    2a56:	9a55      	ldr	r2, [sp, #340]	; 0x154
    2a58:	0004      	movs	r4, r0
    2a5a:	9208      	str	r2, [sp, #32]
    2a5c:	2200      	movs	r2, #0
    2a5e:	930b      	str	r3, [sp, #44]	; 0x2c
    2a60:	9b54      	ldr	r3, [sp, #336]	; 0x150
    2a62:	9206      	str	r2, [sp, #24]
    2a64:	7818      	ldrb	r0, [r3, #0]
    2a66:	1c5a      	adds	r2, r3, #1
    2a68:	9207      	str	r2, [sp, #28]
    2a6a:	2800      	cmp	r0, #0
    2a6c:	d102      	bne.n	2a74 <__vfprintf+0x24>
    2a6e:	9806      	ldr	r0, [sp, #24]
    2a70:	b04f      	add	sp, #316	; 0x13c
    2a72:	bdf0      	pop	{r4, r5, r6, r7, pc}
    2a74:	2825      	cmp	r0, #37	; 0x25
    2a76:	d139      	bne.n	2aec <__vfprintf+0x9c>
    2a78:	2204      	movs	r2, #4
    2a7a:	2180      	movs	r1, #128	; 0x80
    2a7c:	2500      	movs	r5, #0
    2a7e:	2702      	movs	r7, #2
    2a80:	4694      	mov	ip, r2
    2a82:	9b07      	ldr	r3, [sp, #28]
    2a84:	3824      	subs	r0, #36	; 0x24
    2a86:	0089      	lsls	r1, r1, #2
    2a88:	001a      	movs	r2, r3
    2a8a:	7816      	ldrb	r6, [r2, #0]
    2a8c:	3301      	adds	r3, #1
    2a8e:	2e2b      	cmp	r6, #43	; 0x2b
    2a90:	d04f      	beq.n	2b32 <__vfprintf+0xe2>
    2a92:	d846      	bhi.n	2b22 <__vfprintf+0xd2>
    2a94:	2e20      	cmp	r6, #32
    2a96:	d04e      	beq.n	2b36 <__vfprintf+0xe6>
    2a98:	2e23      	cmp	r6, #35	; 0x23
    2a9a:	d04f      	beq.n	2b3c <__vfprintf+0xec>
    2a9c:	2e2a      	cmp	r6, #42	; 0x2a
    2a9e:	d14f      	bne.n	2b40 <__vfprintf+0xf0>
    2aa0:	9908      	ldr	r1, [sp, #32]
    2aa2:	c980      	ldmia	r1!, {r7}
    2aa4:	2f00      	cmp	r7, #0
    2aa6:	da02      	bge.n	2aae <__vfprintf+0x5e>
    2aa8:	2001      	movs	r0, #1
    2aaa:	427f      	negs	r7, r7
    2aac:	4045      	eors	r5, r0
    2aae:	3202      	adds	r2, #2
    2ab0:	781e      	ldrb	r6, [r3, #0]
    2ab2:	9207      	str	r2, [sp, #28]
    2ab4:	9108      	str	r1, [sp, #32]
    2ab6:	43fb      	mvns	r3, r7
    2ab8:	17db      	asrs	r3, r3, #31
    2aba:	403b      	ands	r3, r7
    2abc:	9314      	str	r3, [sp, #80]	; 0x50
    2abe:	2300      	movs	r3, #0
    2ac0:	930c      	str	r3, [sp, #48]	; 0x30
    2ac2:	2e2e      	cmp	r6, #46	; 0x2e
    2ac4:	d157      	bne.n	2b76 <__vfprintf+0x126>
    2ac6:	9b07      	ldr	r3, [sp, #28]
    2ac8:	781e      	ldrb	r6, [r3, #0]
    2aca:	2e2a      	cmp	r6, #42	; 0x2a
    2acc:	d045      	beq.n	2b5a <__vfprintf+0x10a>
    2ace:	210a      	movs	r1, #10
    2ad0:	3301      	adds	r3, #1
    2ad2:	0032      	movs	r2, r6
    2ad4:	3a30      	subs	r2, #48	; 0x30
    2ad6:	b2d0      	uxtb	r0, r2
    2ad8:	9307      	str	r3, [sp, #28]
    2ada:	2809      	cmp	r0, #9
    2adc:	d846      	bhi.n	2b6c <__vfprintf+0x11c>
    2ade:	980c      	ldr	r0, [sp, #48]	; 0x30
    2ae0:	781e      	ldrb	r6, [r3, #0]
    2ae2:	4348      	muls	r0, r1
    2ae4:	1812      	adds	r2, r2, r0
    2ae6:	920c      	str	r2, [sp, #48]	; 0x30
    2ae8:	3301      	adds	r3, #1
    2aea:	e7f2      	b.n	2ad2 <__vfprintf+0x82>
    2aec:	9b06      	ldr	r3, [sp, #24]
    2aee:	9a0b      	ldr	r2, [sp, #44]	; 0x2c
    2af0:	1c5d      	adds	r5, r3, #1
    2af2:	17db      	asrs	r3, r3, #31
    2af4:	429a      	cmp	r2, r3
    2af6:	dc04      	bgt.n	2b02 <__vfprintf+0xb2>
    2af8:	d10c      	bne.n	2b14 <__vfprintf+0xc4>
    2afa:	9b0a      	ldr	r3, [sp, #40]	; 0x28
    2afc:	9a06      	ldr	r2, [sp, #24]
    2afe:	4293      	cmp	r3, r2
    2b00:	d908      	bls.n	2b14 <__vfprintf+0xc4>
    2b02:	68a3      	ldr	r3, [r4, #8]
    2b04:	3b01      	subs	r3, #1
    2b06:	60a3      	str	r3, [r4, #8]
    2b08:	2b00      	cmp	r3, #0
    2b0a:	db06      	blt.n	2b1a <__vfprintf+0xca>
    2b0c:	6823      	ldr	r3, [r4, #0]
    2b0e:	1c5a      	adds	r2, r3, #1
    2b10:	6022      	str	r2, [r4, #0]
    2b12:	7018      	strb	r0, [r3, #0]
    2b14:	9b07      	ldr	r3, [sp, #28]
    2b16:	9506      	str	r5, [sp, #24]
    2b18:	e7a4      	b.n	2a64 <__vfprintf+0x14>
    2b1a:	0021      	movs	r1, r4
    2b1c:	f7ff fd14 	bl	2548 <__flsbuf>
    2b20:	e7f8      	b.n	2b14 <__vfprintf+0xc4>
    2b22:	2e2d      	cmp	r6, #45	; 0x2d
    2b24:	d003      	beq.n	2b2e <__vfprintf+0xde>
    2b26:	2e30      	cmp	r6, #48	; 0x30
    2b28:	d1b8      	bne.n	2a9c <__vfprintf+0x4c>
    2b2a:	430d      	orrs	r5, r1
    2b2c:	e7ac      	b.n	2a88 <__vfprintf+0x38>
    2b2e:	4305      	orrs	r5, r0
    2b30:	e7aa      	b.n	2a88 <__vfprintf+0x38>
    2b32:	433d      	orrs	r5, r7
    2b34:	e7a8      	b.n	2a88 <__vfprintf+0x38>
    2b36:	4662      	mov	r2, ip
    2b38:	4315      	orrs	r5, r2
    2b3a:	e7a5      	b.n	2a88 <__vfprintf+0x38>
    2b3c:	2208      	movs	r2, #8
    2b3e:	e7fb      	b.n	2b38 <__vfprintf+0xe8>
    2b40:	2700      	movs	r7, #0
    2b42:	200a      	movs	r0, #10
    2b44:	0032      	movs	r2, r6
    2b46:	3a30      	subs	r2, #48	; 0x30
    2b48:	b2d1      	uxtb	r1, r2
    2b4a:	9307      	str	r3, [sp, #28]
    2b4c:	2909      	cmp	r1, #9
    2b4e:	d8b2      	bhi.n	2ab6 <__vfprintf+0x66>
    2b50:	4347      	muls	r7, r0
    2b52:	781e      	ldrb	r6, [r3, #0]
    2b54:	19d7      	adds	r7, r2, r7
    2b56:	3301      	adds	r3, #1
    2b58:	e7f4      	b.n	2b44 <__vfprintf+0xf4>
    2b5a:	9b08      	ldr	r3, [sp, #32]
    2b5c:	cb04      	ldmia	r3!, {r2}
    2b5e:	920c      	str	r2, [sp, #48]	; 0x30
    2b60:	9a07      	ldr	r2, [sp, #28]
    2b62:	9308      	str	r3, [sp, #32]
    2b64:	0013      	movs	r3, r2
    2b66:	7856      	ldrb	r6, [r2, #1]
    2b68:	3302      	adds	r3, #2
    2b6a:	9307      	str	r3, [sp, #28]
    2b6c:	9b0c      	ldr	r3, [sp, #48]	; 0x30
    2b6e:	2b00      	cmp	r3, #0
    2b70:	db18      	blt.n	2ba4 <__vfprintf+0x154>
    2b72:	2310      	movs	r3, #16
    2b74:	431d      	orrs	r5, r3
    2b76:	2e6c      	cmp	r6, #108	; 0x6c
    2b78:	d109      	bne.n	2b8e <__vfprintf+0x13e>
    2b7a:	9b07      	ldr	r3, [sp, #28]
    2b7c:	781e      	ldrb	r6, [r3, #0]
    2b7e:	2e6c      	cmp	r6, #108	; 0x6c
    2b80:	d113      	bne.n	2baa <__vfprintf+0x15a>
    2b82:	785e      	ldrb	r6, [r3, #1]
    2b84:	2360      	movs	r3, #96	; 0x60
    2b86:	431d      	orrs	r5, r3
    2b88:	9b07      	ldr	r3, [sp, #28]
    2b8a:	3302      	adds	r3, #2
    2b8c:	9307      	str	r3, [sp, #28]
    2b8e:	2e4c      	cmp	r6, #76	; 0x4c
    2b90:	d001      	beq.n	2b96 <__vfprintf+0x146>
    2b92:	2e71      	cmp	r6, #113	; 0x71
    2b94:	d10f      	bne.n	2bb6 <__vfprintf+0x166>
    2b96:	9b07      	ldr	r3, [sp, #28]
    2b98:	781e      	ldrb	r6, [r3, #0]
    2b9a:	2360      	movs	r3, #96	; 0x60
    2b9c:	431d      	orrs	r5, r3
    2b9e:	9b07      	ldr	r3, [sp, #28]
    2ba0:	3301      	adds	r3, #1
    2ba2:	e014      	b.n	2bce <__vfprintf+0x17e>
    2ba4:	2300      	movs	r3, #0
    2ba6:	930c      	str	r3, [sp, #48]	; 0x30
    2ba8:	e7e5      	b.n	2b76 <__vfprintf+0x126>
    2baa:	9b07      	ldr	r3, [sp, #28]
    2bac:	3301      	adds	r3, #1
    2bae:	9307      	str	r3, [sp, #28]
    2bb0:	2320      	movs	r3, #32
    2bb2:	431d      	orrs	r5, r3
    2bb4:	e7eb      	b.n	2b8e <__vfprintf+0x13e>
    2bb6:	2e68      	cmp	r6, #104	; 0x68
    2bb8:	d170      	bne.n	2c9c <__vfprintf+0x24c>
    2bba:	9b07      	ldr	r3, [sp, #28]
    2bbc:	781e      	ldrb	r6, [r3, #0]
    2bbe:	2e68      	cmp	r6, #104	; 0x68
    2bc0:	d107      	bne.n	2bd2 <__vfprintf+0x182>
    2bc2:	2380      	movs	r3, #128	; 0x80
    2bc4:	005b      	lsls	r3, r3, #1
    2bc6:	431d      	orrs	r5, r3
    2bc8:	9b07      	ldr	r3, [sp, #28]
    2bca:	785e      	ldrb	r6, [r3, #1]
    2bcc:	3302      	adds	r3, #2
    2bce:	9307      	str	r3, [sp, #28]
    2bd0:	e004      	b.n	2bdc <__vfprintf+0x18c>
    2bd2:	9b07      	ldr	r3, [sp, #28]
    2bd4:	3301      	adds	r3, #1
    2bd6:	9307      	str	r3, [sp, #28]
    2bd8:	2380      	movs	r3, #128	; 0x80
    2bda:	431d      	orrs	r5, r3
    2bdc:	2e78      	cmp	r6, #120	; 0x78
    2bde:	dc09      	bgt.n	2bf4 <__vfprintf+0x1a4>
    2be0:	2e57      	cmp	r6, #87	; 0x57
    2be2:	dc67      	bgt.n	2cb4 <__vfprintf+0x264>
    2be4:	2e41      	cmp	r6, #65	; 0x41
    2be6:	d100      	bne.n	2bea <__vfprintf+0x19a>
    2be8:	e2fd      	b.n	31e6 <__vfprintf+0x796>
    2bea:	dd00      	ble.n	2bee <__vfprintf+0x19e>
    2bec:	e089      	b.n	2d02 <__vfprintf+0x2b2>
    2bee:	2e00      	cmp	r6, #0
    2bf0:	d100      	bne.n	2bf4 <__vfprintf+0x1a4>
    2bf2:	e0ed      	b.n	2dd0 <__vfprintf+0x380>
    2bf4:	9b14      	ldr	r3, [sp, #80]	; 0x50
    2bf6:	2201      	movs	r2, #1
    2bf8:	3b01      	subs	r3, #1
    2bfa:	930c      	str	r3, [sp, #48]	; 0x30
    2bfc:	002b      	movs	r3, r5
    2bfe:	4013      	ands	r3, r2
    2c00:	9339      	str	r3, [sp, #228]	; 0xe4
    2c02:	9b06      	ldr	r3, [sp, #24]
    2c04:	4215      	tst	r5, r2
    2c06:	d11d      	bne.n	2c44 <__vfprintf+0x1f4>
    2c08:	2330      	movs	r3, #48	; 0x30
    2c0a:	9338      	str	r3, [sp, #224]	; 0xe0
    2c0c:	05ab      	lsls	r3, r5, #22
    2c0e:	d401      	bmi.n	2c14 <__vfprintf+0x1c4>
    2c10:	2320      	movs	r3, #32
    2c12:	9338      	str	r3, [sp, #224]	; 0xe0
    2c14:	9b06      	ldr	r3, [sp, #24]
    2c16:	9d0c      	ldr	r5, [sp, #48]	; 0x30
    2c18:	9322      	str	r3, [sp, #136]	; 0x88
    2c1a:	17db      	asrs	r3, r3, #31
    2c1c:	9323      	str	r3, [sp, #140]	; 0x8c
    2c1e:	3d01      	subs	r5, #1
    2c20:	d400      	bmi.n	2c24 <__vfprintf+0x1d4>
    2c22:	e08e      	b.n	2d42 <__vfprintf+0x2f2>
    2c24:	2300      	movs	r3, #0
    2c26:	429f      	cmp	r7, r3
    2c28:	dd00      	ble.n	2c2c <__vfprintf+0x1dc>
    2c2a:	9b0c      	ldr	r3, [sp, #48]	; 0x30
    2c2c:	9a06      	ldr	r2, [sp, #24]
    2c2e:	189b      	adds	r3, r3, r2
    2c30:	9a14      	ldr	r2, [sp, #80]	; 0x50
    2c32:	1e91      	subs	r1, r2, #2
    2c34:	2200      	movs	r2, #0
    2c36:	4297      	cmp	r7, r2
    2c38:	dd02      	ble.n	2c40 <__vfprintf+0x1f0>
    2c3a:	9814      	ldr	r0, [sp, #80]	; 0x50
    2c3c:	3201      	adds	r2, #1
    2c3e:	1a12      	subs	r2, r2, r0
    2c40:	1852      	adds	r2, r2, r1
    2c42:	920c      	str	r2, [sp, #48]	; 0x30
    2c44:	990b      	ldr	r1, [sp, #44]	; 0x2c
    2c46:	1c5a      	adds	r2, r3, #1
    2c48:	9206      	str	r2, [sp, #24]
    2c4a:	17da      	asrs	r2, r3, #31
    2c4c:	4291      	cmp	r1, r2
    2c4e:	dc03      	bgt.n	2c58 <__vfprintf+0x208>
    2c50:	d10c      	bne.n	2c6c <__vfprintf+0x21c>
    2c52:	9a0a      	ldr	r2, [sp, #40]	; 0x28
    2c54:	429a      	cmp	r2, r3
    2c56:	d909      	bls.n	2c6c <__vfprintf+0x21c>
    2c58:	68a3      	ldr	r3, [r4, #8]
    2c5a:	3b01      	subs	r3, #1
    2c5c:	60a3      	str	r3, [r4, #8]
    2c5e:	2b00      	cmp	r3, #0
    2c60:	da00      	bge.n	2c64 <__vfprintf+0x214>
    2c62:	e08f      	b.n	2d84 <__vfprintf+0x334>
    2c64:	6823      	ldr	r3, [r4, #0]
    2c66:	1c5a      	adds	r2, r3, #1
    2c68:	6022      	str	r2, [r4, #0]
    2c6a:	701e      	strb	r6, [r3, #0]
    2c6c:	9b39      	ldr	r3, [sp, #228]	; 0xe4
    2c6e:	9f08      	ldr	r7, [sp, #32]
    2c70:	2b00      	cmp	r3, #0
    2c72:	d010      	beq.n	2c96 <__vfprintf+0x246>
    2c74:	9b06      	ldr	r3, [sp, #24]
    2c76:	9d0c      	ldr	r5, [sp, #48]	; 0x30
    2c78:	9320      	str	r3, [sp, #128]	; 0x80
    2c7a:	17db      	asrs	r3, r3, #31
    2c7c:	9321      	str	r3, [sp, #132]	; 0x84
    2c7e:	3d01      	subs	r5, #1
    2c80:	d400      	bmi.n	2c84 <__vfprintf+0x234>
    2c82:	e084      	b.n	2d8e <__vfprintf+0x33e>
    2c84:	9b0c      	ldr	r3, [sp, #48]	; 0x30
    2c86:	9a0c      	ldr	r2, [sp, #48]	; 0x30
    2c88:	43db      	mvns	r3, r3
    2c8a:	17db      	asrs	r3, r3, #31
    2c8c:	4013      	ands	r3, r2
    2c8e:	9a06      	ldr	r2, [sp, #24]
    2c90:	18d3      	adds	r3, r2, r3
    2c92:	9306      	str	r3, [sp, #24]
    2c94:	9f08      	ldr	r7, [sp, #32]
    2c96:	9d06      	ldr	r5, [sp, #24]
    2c98:	9708      	str	r7, [sp, #32]
    2c9a:	e73b      	b.n	2b14 <__vfprintf+0xc4>
    2c9c:	2e6a      	cmp	r6, #106	; 0x6a
    2c9e:	d104      	bne.n	2caa <__vfprintf+0x25a>
    2ca0:	2340      	movs	r3, #64	; 0x40
    2ca2:	431d      	orrs	r5, r3
    2ca4:	9b07      	ldr	r3, [sp, #28]
    2ca6:	781e      	ldrb	r6, [r3, #0]
    2ca8:	e77a      	b.n	2ba0 <__vfprintf+0x150>
    2caa:	2e7a      	cmp	r6, #122	; 0x7a
    2cac:	d0fa      	beq.n	2ca4 <__vfprintf+0x254>
    2cae:	2e74      	cmp	r6, #116	; 0x74
    2cb0:	d194      	bne.n	2bdc <__vfprintf+0x18c>
    2cb2:	e7f7      	b.n	2ca4 <__vfprintf+0x254>
    2cb4:	0030      	movs	r0, r6
    2cb6:	3858      	subs	r0, #88	; 0x58
    2cb8:	2820      	cmp	r0, #32
    2cba:	d89b      	bhi.n	2bf4 <__vfprintf+0x1a4>
    2cbc:	f001 fb78 	bl	43b0 <__gnu_thumb1_case_shi>
    2cc0:	ff9a0166 	.word	0xff9a0166
    2cc4:	ff9aff9a 	.word	0xff9aff9a
    2cc8:	ff9aff9a 	.word	0xff9aff9a
    2ccc:	ff9aff9a 	.word	0xff9aff9a
    2cd0:	0293ff9a 	.word	0x0293ff9a
    2cd4:	003dff9a 	.word	0x003dff9a
    2cd8:	00270259 	.word	0x00270259
    2cdc:	00270027 	.word	0x00270027
    2ce0:	0259ff9a 	.word	0x0259ff9a
    2ce4:	ff9aff9a 	.word	0xff9aff9a
    2ce8:	ff9aff9a 	.word	0xff9aff9a
    2cec:	01c8008c 	.word	0x01c8008c
    2cf0:	ff9a01be 	.word	0xff9a01be
    2cf4:	00acff9a 	.word	0x00acff9a
    2cf8:	01f0ff9a 	.word	0x01f0ff9a
    2cfc:	ff9aff9a 	.word	0xff9aff9a
    2d00:	0195      	.short	0x0195
    2d02:	2302      	movs	r3, #2
    2d04:	0032      	movs	r2, r6
    2d06:	439a      	bics	r2, r3
    2d08:	2a45      	cmp	r2, #69	; 0x45
    2d0a:	d000      	beq.n	2d0e <__vfprintf+0x2be>
    2d0c:	e772      	b.n	2bf4 <__vfprintf+0x1a4>
    2d0e:	2380      	movs	r3, #128	; 0x80
    2d10:	00db      	lsls	r3, r3, #3
    2d12:	432b      	orrs	r3, r5
    2d14:	06ea      	lsls	r2, r5, #27
    2d16:	d401      	bmi.n	2d1c <__vfprintf+0x2cc>
    2d18:	2206      	movs	r2, #6
    2d1a:	920c      	str	r2, [sp, #48]	; 0x30
    2d1c:	001d      	movs	r5, r3
    2d1e:	2200      	movs	r2, #0
    2d20:	2300      	movs	r3, #0
    2d22:	2107      	movs	r1, #7
    2d24:	9204      	str	r2, [sp, #16]
    2d26:	9305      	str	r3, [sp, #20]
    2d28:	2300      	movs	r3, #0
    2d2a:	9f08      	ldr	r7, [sp, #32]
    2d2c:	9338      	str	r3, [sp, #224]	; 0xe0
    2d2e:	3707      	adds	r7, #7
    2d30:	438f      	bics	r7, r1
    2d32:	cf03      	ldmia	r7!, {r0, r1}
    2d34:	9044      	str	r0, [sp, #272]	; 0x110
    2d36:	9145      	str	r1, [sp, #276]	; 0x114
    2d38:	e188      	b.n	304c <__vfprintf+0x5fc>
    2d3a:	9b08      	ldr	r3, [sp, #32]
    2d3c:	cb40      	ldmia	r3!, {r6}
    2d3e:	9308      	str	r3, [sp, #32]
    2d40:	e758      	b.n	2bf4 <__vfprintf+0x1a4>
    2d42:	9b0b      	ldr	r3, [sp, #44]	; 0x2c
    2d44:	9a23      	ldr	r2, [sp, #140]	; 0x8c
    2d46:	4293      	cmp	r3, r2
    2d48:	dc04      	bgt.n	2d54 <__vfprintf+0x304>
    2d4a:	d10d      	bne.n	2d68 <__vfprintf+0x318>
    2d4c:	9b0a      	ldr	r3, [sp, #40]	; 0x28
    2d4e:	9a22      	ldr	r2, [sp, #136]	; 0x88
    2d50:	4293      	cmp	r3, r2
    2d52:	d909      	bls.n	2d68 <__vfprintf+0x318>
    2d54:	68a3      	ldr	r3, [r4, #8]
    2d56:	3b01      	subs	r3, #1
    2d58:	60a3      	str	r3, [r4, #8]
    2d5a:	2b00      	cmp	r3, #0
    2d5c:	db0d      	blt.n	2d7a <__vfprintf+0x32a>
    2d5e:	6823      	ldr	r3, [r4, #0]
    2d60:	1c5a      	adds	r2, r3, #1
    2d62:	6022      	str	r2, [r4, #0]
    2d64:	9a38      	ldr	r2, [sp, #224]	; 0xe0
    2d66:	701a      	strb	r2, [r3, #0]
    2d68:	2001      	movs	r0, #1
    2d6a:	9a22      	ldr	r2, [sp, #136]	; 0x88
    2d6c:	9b23      	ldr	r3, [sp, #140]	; 0x8c
    2d6e:	2100      	movs	r1, #0
    2d70:	1812      	adds	r2, r2, r0
    2d72:	414b      	adcs	r3, r1
    2d74:	9222      	str	r2, [sp, #136]	; 0x88
    2d76:	9323      	str	r3, [sp, #140]	; 0x8c
    2d78:	e751      	b.n	2c1e <__vfprintf+0x1ce>
    2d7a:	0021      	movs	r1, r4
    2d7c:	9838      	ldr	r0, [sp, #224]	; 0xe0
    2d7e:	f7ff fbe3 	bl	2548 <__flsbuf>
    2d82:	e7f1      	b.n	2d68 <__vfprintf+0x318>
    2d84:	0021      	movs	r1, r4
    2d86:	0030      	movs	r0, r6
    2d88:	f7ff fbde 	bl	2548 <__flsbuf>
    2d8c:	e76e      	b.n	2c6c <__vfprintf+0x21c>
    2d8e:	9b0b      	ldr	r3, [sp, #44]	; 0x2c
    2d90:	9a21      	ldr	r2, [sp, #132]	; 0x84
    2d92:	4293      	cmp	r3, r2
    2d94:	dc04      	bgt.n	2da0 <__vfprintf+0x350>
    2d96:	d10d      	bne.n	2db4 <__vfprintf+0x364>
    2d98:	9b0a      	ldr	r3, [sp, #40]	; 0x28
    2d9a:	9a20      	ldr	r2, [sp, #128]	; 0x80
    2d9c:	4293      	cmp	r3, r2
    2d9e:	d909      	bls.n	2db4 <__vfprintf+0x364>
    2da0:	68a3      	ldr	r3, [r4, #8]
    2da2:	3b01      	subs	r3, #1
    2da4:	60a3      	str	r3, [r4, #8]
    2da6:	2b00      	cmp	r3, #0
    2da8:	db0d      	blt.n	2dc6 <__vfprintf+0x376>
    2daa:	6823      	ldr	r3, [r4, #0]
    2dac:	1c5a      	adds	r2, r3, #1
    2dae:	6022      	str	r2, [r4, #0]
    2db0:	2220      	movs	r2, #32
    2db2:	701a      	strb	r2, [r3, #0]
    2db4:	2001      	movs	r0, #1
    2db6:	9a20      	ldr	r2, [sp, #128]	; 0x80
    2db8:	9b21      	ldr	r3, [sp, #132]	; 0x84
    2dba:	2100      	movs	r1, #0
    2dbc:	1812      	adds	r2, r2, r0
    2dbe:	414b      	adcs	r3, r1
    2dc0:	9220      	str	r2, [sp, #128]	; 0x80
    2dc2:	9321      	str	r3, [sp, #132]	; 0x84
    2dc4:	e75b      	b.n	2c7e <__vfprintf+0x22e>
    2dc6:	0021      	movs	r1, r4
    2dc8:	2020      	movs	r0, #32
    2dca:	f7ff fbbd 	bl	2548 <__flsbuf>
    2dce:	e7f1      	b.n	2db4 <__vfprintf+0x364>
    2dd0:	9b07      	ldr	r3, [sp, #28]
    2dd2:	3b01      	subs	r3, #1
    2dd4:	9307      	str	r3, [sp, #28]
    2dd6:	e75d      	b.n	2c94 <__vfprintf+0x244>
    2dd8:	9b08      	ldr	r3, [sp, #32]
    2dda:	1d1f      	adds	r7, r3, #4
    2ddc:	066b      	lsls	r3, r5, #25
    2dde:	d506      	bpl.n	2dee <__vfprintf+0x39e>
    2de0:	9b08      	ldr	r3, [sp, #32]
    2de2:	9a06      	ldr	r2, [sp, #24]
    2de4:	681b      	ldr	r3, [r3, #0]
    2de6:	601a      	str	r2, [r3, #0]
    2de8:	17d2      	asrs	r2, r2, #31
    2dea:	605a      	str	r2, [r3, #4]
    2dec:	e753      	b.n	2c96 <__vfprintf+0x246>
    2dee:	06ab      	lsls	r3, r5, #26
    2df0:	d504      	bpl.n	2dfc <__vfprintf+0x3ac>
    2df2:	9b08      	ldr	r3, [sp, #32]
    2df4:	9a06      	ldr	r2, [sp, #24]
    2df6:	681b      	ldr	r3, [r3, #0]
    2df8:	601a      	str	r2, [r3, #0]
    2dfa:	e74c      	b.n	2c96 <__vfprintf+0x246>
    2dfc:	05eb      	lsls	r3, r5, #23
    2dfe:	d504      	bpl.n	2e0a <__vfprintf+0x3ba>
    2e00:	9b08      	ldr	r3, [sp, #32]
    2e02:	9a06      	ldr	r2, [sp, #24]
    2e04:	681b      	ldr	r3, [r3, #0]
    2e06:	701a      	strb	r2, [r3, #0]
    2e08:	e745      	b.n	2c96 <__vfprintf+0x246>
    2e0a:	062b      	lsls	r3, r5, #24
    2e0c:	d5f1      	bpl.n	2df2 <__vfprintf+0x3a2>
    2e0e:	9b08      	ldr	r3, [sp, #32]
    2e10:	9a06      	ldr	r2, [sp, #24]
    2e12:	681b      	ldr	r3, [r3, #0]
    2e14:	801a      	strh	r2, [r3, #0]
    2e16:	e73e      	b.n	2c96 <__vfprintf+0x246>
    2e18:	9f08      	ldr	r7, [sp, #32]
    2e1a:	cf08      	ldmia	r7!, {r3}
    2e1c:	9338      	str	r3, [sp, #224]	; 0xe0
    2e1e:	2b00      	cmp	r3, #0
    2e20:	d101      	bne.n	2e26 <__vfprintf+0x3d6>
    2e22:	4bc6      	ldr	r3, [pc, #792]	; (313c <__vfprintf+0x6ec>)
    2e24:	9338      	str	r3, [sp, #224]	; 0xe0
    2e26:	9838      	ldr	r0, [sp, #224]	; 0xe0
    2e28:	f000 fd4e 	bl	38c8 <strlen>
    2e2c:	0006      	movs	r6, r0
    2e2e:	06eb      	lsls	r3, r5, #27
    2e30:	d503      	bpl.n	2e3a <__vfprintf+0x3ea>
    2e32:	9b0c      	ldr	r3, [sp, #48]	; 0x30
    2e34:	4298      	cmp	r0, r3
    2e36:	dd00      	ble.n	2e3a <__vfprintf+0x3ea>
    2e38:	001e      	movs	r6, r3
    2e3a:	9b14      	ldr	r3, [sp, #80]	; 0x50
    2e3c:	002a      	movs	r2, r5
    2e3e:	1b9b      	subs	r3, r3, r6
    2e40:	9308      	str	r3, [sp, #32]
    2e42:	2301      	movs	r3, #1
    2e44:	401a      	ands	r2, r3
    2e46:	9214      	str	r2, [sp, #80]	; 0x50
    2e48:	421d      	tst	r5, r3
    2e4a:	d118      	bne.n	2e7e <__vfprintf+0x42e>
    2e4c:	332f      	adds	r3, #47	; 0x2f
    2e4e:	930c      	str	r3, [sp, #48]	; 0x30
    2e50:	05ab      	lsls	r3, r5, #22
    2e52:	d401      	bmi.n	2e58 <__vfprintf+0x408>
    2e54:	2320      	movs	r3, #32
    2e56:	930c      	str	r3, [sp, #48]	; 0x30
    2e58:	9b06      	ldr	r3, [sp, #24]
    2e5a:	9d08      	ldr	r5, [sp, #32]
    2e5c:	931e      	str	r3, [sp, #120]	; 0x78
    2e5e:	17db      	asrs	r3, r3, #31
    2e60:	931f      	str	r3, [sp, #124]	; 0x7c
    2e62:	3d01      	subs	r5, #1
    2e64:	d52c      	bpl.n	2ec0 <__vfprintf+0x470>
    2e66:	9b08      	ldr	r3, [sp, #32]
    2e68:	9a08      	ldr	r2, [sp, #32]
    2e6a:	43db      	mvns	r3, r3
    2e6c:	17db      	asrs	r3, r3, #31
    2e6e:	4013      	ands	r3, r2
    2e70:	9a06      	ldr	r2, [sp, #24]
    2e72:	18d2      	adds	r2, r2, r3
    2e74:	9206      	str	r2, [sp, #24]
    2e76:	9a08      	ldr	r2, [sp, #32]
    2e78:	3a01      	subs	r2, #1
    2e7a:	1ad3      	subs	r3, r2, r3
    2e7c:	9308      	str	r3, [sp, #32]
    2e7e:	2500      	movs	r5, #0
    2e80:	9b06      	ldr	r3, [sp, #24]
    2e82:	9324      	str	r3, [sp, #144]	; 0x90
    2e84:	17db      	asrs	r3, r3, #31
    2e86:	9325      	str	r3, [sp, #148]	; 0x94
    2e88:	42b5      	cmp	r5, r6
    2e8a:	db3a      	blt.n	2f02 <__vfprintf+0x4b2>
    2e8c:	43f0      	mvns	r0, r6
    2e8e:	9b06      	ldr	r3, [sp, #24]
    2e90:	17c0      	asrs	r0, r0, #31
    2e92:	4006      	ands	r6, r0
    2e94:	199b      	adds	r3, r3, r6
    2e96:	9306      	str	r3, [sp, #24]
    2e98:	9b14      	ldr	r3, [sp, #80]	; 0x50
    2e9a:	2b00      	cmp	r3, #0
    2e9c:	d100      	bne.n	2ea0 <__vfprintf+0x450>
    2e9e:	e6fa      	b.n	2c96 <__vfprintf+0x246>
    2ea0:	9b06      	ldr	r3, [sp, #24]
    2ea2:	9d08      	ldr	r5, [sp, #32]
    2ea4:	9328      	str	r3, [sp, #160]	; 0xa0
    2ea6:	17db      	asrs	r3, r3, #31
    2ea8:	9329      	str	r3, [sp, #164]	; 0xa4
    2eaa:	3d01      	subs	r5, #1
    2eac:	d54d      	bpl.n	2f4a <__vfprintf+0x4fa>
    2eae:	9b08      	ldr	r3, [sp, #32]
    2eb0:	9a08      	ldr	r2, [sp, #32]
    2eb2:	43db      	mvns	r3, r3
    2eb4:	17db      	asrs	r3, r3, #31
    2eb6:	4013      	ands	r3, r2
    2eb8:	9a06      	ldr	r2, [sp, #24]
    2eba:	18d3      	adds	r3, r2, r3
    2ebc:	9306      	str	r3, [sp, #24]
    2ebe:	e6ea      	b.n	2c96 <__vfprintf+0x246>
    2ec0:	9b0b      	ldr	r3, [sp, #44]	; 0x2c
    2ec2:	9a1f      	ldr	r2, [sp, #124]	; 0x7c
    2ec4:	4293      	cmp	r3, r2
    2ec6:	dc04      	bgt.n	2ed2 <__vfprintf+0x482>
    2ec8:	d10d      	bne.n	2ee6 <__vfprintf+0x496>
    2eca:	9b0a      	ldr	r3, [sp, #40]	; 0x28
    2ecc:	9a1e      	ldr	r2, [sp, #120]	; 0x78
    2ece:	4293      	cmp	r3, r2
    2ed0:	d909      	bls.n	2ee6 <__vfprintf+0x496>
    2ed2:	68a3      	ldr	r3, [r4, #8]
    2ed4:	3b01      	subs	r3, #1
    2ed6:	60a3      	str	r3, [r4, #8]
    2ed8:	2b00      	cmp	r3, #0
    2eda:	db0d      	blt.n	2ef8 <__vfprintf+0x4a8>
    2edc:	6823      	ldr	r3, [r4, #0]
    2ede:	1c5a      	adds	r2, r3, #1
    2ee0:	6022      	str	r2, [r4, #0]
    2ee2:	9a0c      	ldr	r2, [sp, #48]	; 0x30
    2ee4:	701a      	strb	r2, [r3, #0]
    2ee6:	2001      	movs	r0, #1
    2ee8:	9a1e      	ldr	r2, [sp, #120]	; 0x78
    2eea:	9b1f      	ldr	r3, [sp, #124]	; 0x7c
    2eec:	2100      	movs	r1, #0
    2eee:	1812      	adds	r2, r2, r0
    2ef0:	414b      	adcs	r3, r1
    2ef2:	921e      	str	r2, [sp, #120]	; 0x78
    2ef4:	931f      	str	r3, [sp, #124]	; 0x7c
    2ef6:	e7b4      	b.n	2e62 <__vfprintf+0x412>
    2ef8:	0021      	movs	r1, r4
    2efa:	980c      	ldr	r0, [sp, #48]	; 0x30
    2efc:	f7ff fb24 	bl	2548 <__flsbuf>
    2f00:	e7f1      	b.n	2ee6 <__vfprintf+0x496>
    2f02:	9b0b      	ldr	r3, [sp, #44]	; 0x2c
    2f04:	9a25      	ldr	r2, [sp, #148]	; 0x94
    2f06:	4293      	cmp	r3, r2
    2f08:	dc04      	bgt.n	2f14 <__vfprintf+0x4c4>
    2f0a:	d10e      	bne.n	2f2a <__vfprintf+0x4da>
    2f0c:	9b0a      	ldr	r3, [sp, #40]	; 0x28
    2f0e:	9a24      	ldr	r2, [sp, #144]	; 0x90
    2f10:	4293      	cmp	r3, r2
    2f12:	d90a      	bls.n	2f2a <__vfprintf+0x4da>
    2f14:	68a3      	ldr	r3, [r4, #8]
    2f16:	3b01      	subs	r3, #1
    2f18:	60a3      	str	r3, [r4, #8]
    2f1a:	2b00      	cmp	r3, #0
    2f1c:	db0f      	blt.n	2f3e <__vfprintf+0x4ee>
    2f1e:	6823      	ldr	r3, [r4, #0]
    2f20:	1c5a      	adds	r2, r3, #1
    2f22:	6022      	str	r2, [r4, #0]
    2f24:	9a38      	ldr	r2, [sp, #224]	; 0xe0
    2f26:	5d52      	ldrb	r2, [r2, r5]
    2f28:	701a      	strb	r2, [r3, #0]
    2f2a:	2001      	movs	r0, #1
    2f2c:	9a24      	ldr	r2, [sp, #144]	; 0x90
    2f2e:	9b25      	ldr	r3, [sp, #148]	; 0x94
    2f30:	2100      	movs	r1, #0
    2f32:	1812      	adds	r2, r2, r0
    2f34:	414b      	adcs	r3, r1
    2f36:	3501      	adds	r5, #1
    2f38:	9224      	str	r2, [sp, #144]	; 0x90
    2f3a:	9325      	str	r3, [sp, #148]	; 0x94
    2f3c:	e7a4      	b.n	2e88 <__vfprintf+0x438>
    2f3e:	9b38      	ldr	r3, [sp, #224]	; 0xe0
    2f40:	0021      	movs	r1, r4
    2f42:	5d58      	ldrb	r0, [r3, r5]
    2f44:	f7ff fb00 	bl	2548 <__flsbuf>
    2f48:	e7ef      	b.n	2f2a <__vfprintf+0x4da>
    2f4a:	9b0b      	ldr	r3, [sp, #44]	; 0x2c
    2f4c:	9a29      	ldr	r2, [sp, #164]	; 0xa4
    2f4e:	4293      	cmp	r3, r2
    2f50:	dc04      	bgt.n	2f5c <__vfprintf+0x50c>
    2f52:	d10d      	bne.n	2f70 <__vfprintf+0x520>
    2f54:	9b0a      	ldr	r3, [sp, #40]	; 0x28
    2f56:	9a28      	ldr	r2, [sp, #160]	; 0xa0
    2f58:	4293      	cmp	r3, r2
    2f5a:	d909      	bls.n	2f70 <__vfprintf+0x520>
    2f5c:	68a3      	ldr	r3, [r4, #8]
    2f5e:	3b01      	subs	r3, #1
    2f60:	60a3      	str	r3, [r4, #8]
    2f62:	2b00      	cmp	r3, #0
    2f64:	db0d      	blt.n	2f82 <__vfprintf+0x532>
    2f66:	6823      	ldr	r3, [r4, #0]
    2f68:	1c5a      	adds	r2, r3, #1
    2f6a:	6022      	str	r2, [r4, #0]
    2f6c:	2220      	movs	r2, #32
    2f6e:	701a      	strb	r2, [r3, #0]
    2f70:	2001      	movs	r0, #1
    2f72:	9a28      	ldr	r2, [sp, #160]	; 0xa0
    2f74:	9b29      	ldr	r3, [sp, #164]	; 0xa4
    2f76:	2100      	movs	r1, #0
    2f78:	1812      	adds	r2, r2, r0
    2f7a:	414b      	adcs	r3, r1
    2f7c:	9228      	str	r2, [sp, #160]	; 0xa0
    2f7e:	9329      	str	r3, [sp, #164]	; 0xa4
    2f80:	e793      	b.n	2eaa <__vfprintf+0x45a>
    2f82:	0021      	movs	r1, r4
    2f84:	2020      	movs	r0, #32
    2f86:	f7ff fadf 	bl	2548 <__flsbuf>
    2f8a:	e7f1      	b.n	2f70 <__vfprintf+0x520>
    2f8c:	2340      	movs	r3, #64	; 0x40
    2f8e:	002a      	movs	r2, r5
    2f90:	9f08      	ldr	r7, [sp, #32]
    2f92:	401a      	ands	r2, r3
    2f94:	421d      	tst	r5, r3
    2f96:	d01d      	beq.n	2fd4 <__vfprintf+0x584>
    2f98:	2207      	movs	r2, #7
    2f9a:	3707      	adds	r7, #7
    2f9c:	4397      	bics	r7, r2
    2f9e:	cf0c      	ldmia	r7!, {r2, r3}
    2fa0:	9204      	str	r2, [sp, #16]
    2fa2:	9305      	str	r3, [sp, #20]
    2fa4:	2380      	movs	r3, #128	; 0x80
    2fa6:	002a      	movs	r2, r5
    2fa8:	401a      	ands	r2, r3
    2faa:	421d      	tst	r5, r3
    2fac:	d016      	beq.n	2fdc <__vfprintf+0x58c>
    2fae:	466b      	mov	r3, sp
    2fb0:	8a1b      	ldrh	r3, [r3, #16]
    2fb2:	9304      	str	r3, [sp, #16]
    2fb4:	2300      	movs	r3, #0
    2fb6:	9305      	str	r3, [sp, #20]
    2fb8:	4b61      	ldr	r3, [pc, #388]	; (3140 <__vfprintf+0x6f0>)
    2fba:	469c      	mov	ip, r3
    2fbc:	072b      	lsls	r3, r5, #28
    2fbe:	d401      	bmi.n	2fc4 <__vfprintf+0x574>
    2fc0:	4b60      	ldr	r3, [pc, #384]	; (3144 <__vfprintf+0x6f4>)
    2fc2:	469c      	mov	ip, r3
    2fc4:	4b60      	ldr	r3, [pc, #384]	; (3148 <__vfprintf+0x6f8>)
    2fc6:	9338      	str	r3, [sp, #224]	; 0xe0
    2fc8:	06eb      	lsls	r3, r5, #27
    2fca:	d400      	bmi.n	2fce <__vfprintf+0x57e>
    2fcc:	e08a      	b.n	30e4 <__vfprintf+0x694>
    2fce:	495f      	ldr	r1, [pc, #380]	; (314c <__vfprintf+0x6fc>)
    2fd0:	400d      	ands	r5, r1
    2fd2:	e087      	b.n	30e4 <__vfprintf+0x694>
    2fd4:	cf08      	ldmia	r7!, {r3}
    2fd6:	9205      	str	r2, [sp, #20]
    2fd8:	9304      	str	r3, [sp, #16]
    2fda:	e7e3      	b.n	2fa4 <__vfprintf+0x554>
    2fdc:	05eb      	lsls	r3, r5, #23
    2fde:	d5eb      	bpl.n	2fb8 <__vfprintf+0x568>
    2fe0:	466b      	mov	r3, sp
    2fe2:	7c1b      	ldrb	r3, [r3, #16]
    2fe4:	9205      	str	r2, [sp, #20]
    2fe6:	9304      	str	r3, [sp, #16]
    2fe8:	e7e6      	b.n	2fb8 <__vfprintf+0x568>
    2fea:	2340      	movs	r3, #64	; 0x40
    2fec:	002a      	movs	r2, r5
    2fee:	9f08      	ldr	r7, [sp, #32]
    2ff0:	401a      	ands	r2, r3
    2ff2:	421d      	tst	r5, r3
    2ff4:	d017      	beq.n	3026 <__vfprintf+0x5d6>
    2ff6:	2207      	movs	r2, #7
    2ff8:	3707      	adds	r7, #7
    2ffa:	4397      	bics	r7, r2
    2ffc:	cf0c      	ldmia	r7!, {r2, r3}
    2ffe:	9204      	str	r2, [sp, #16]
    3000:	9305      	str	r3, [sp, #20]
    3002:	2380      	movs	r3, #128	; 0x80
    3004:	002a      	movs	r2, r5
    3006:	401a      	ands	r2, r3
    3008:	421d      	tst	r5, r3
    300a:	d010      	beq.n	302e <__vfprintf+0x5de>
    300c:	466b      	mov	r3, sp
    300e:	8a1b      	ldrh	r3, [r3, #16]
    3010:	9304      	str	r3, [sp, #16]
    3012:	2300      	movs	r3, #0
    3014:	9305      	str	r3, [sp, #20]
    3016:	4b4e      	ldr	r3, [pc, #312]	; (3150 <__vfprintf+0x700>)
    3018:	469c      	mov	ip, r3
    301a:	072b      	lsls	r3, r5, #28
    301c:	d401      	bmi.n	3022 <__vfprintf+0x5d2>
    301e:	4b49      	ldr	r3, [pc, #292]	; (3144 <__vfprintf+0x6f4>)
    3020:	469c      	mov	ip, r3
    3022:	4b4c      	ldr	r3, [pc, #304]	; (3154 <__vfprintf+0x704>)
    3024:	e7cf      	b.n	2fc6 <__vfprintf+0x576>
    3026:	cf08      	ldmia	r7!, {r3}
    3028:	9205      	str	r2, [sp, #20]
    302a:	9304      	str	r3, [sp, #16]
    302c:	e7e9      	b.n	3002 <__vfprintf+0x5b2>
    302e:	05eb      	lsls	r3, r5, #23
    3030:	d5f1      	bpl.n	3016 <__vfprintf+0x5c6>
    3032:	466b      	mov	r3, sp
    3034:	7c1b      	ldrb	r3, [r3, #16]
    3036:	9205      	str	r2, [sp, #20]
    3038:	9304      	str	r3, [sp, #16]
    303a:	e7ec      	b.n	3016 <__vfprintf+0x5c6>
    303c:	9f08      	ldr	r7, [sp, #32]
    303e:	cf08      	ldmia	r7!, {r3}
    3040:	9304      	str	r3, [sp, #16]
    3042:	2300      	movs	r3, #0
    3044:	9305      	str	r3, [sp, #20]
    3046:	4b43      	ldr	r3, [pc, #268]	; (3154 <__vfprintf+0x704>)
    3048:	9338      	str	r3, [sp, #224]	; 0xe0
    304a:	4b41      	ldr	r3, [pc, #260]	; (3150 <__vfprintf+0x700>)
    304c:	469c      	mov	ip, r3
    304e:	e049      	b.n	30e4 <__vfprintf+0x694>
    3050:	2340      	movs	r3, #64	; 0x40
    3052:	002a      	movs	r2, r5
    3054:	9f08      	ldr	r7, [sp, #32]
    3056:	401a      	ands	r2, r3
    3058:	421d      	tst	r5, r3
    305a:	d016      	beq.n	308a <__vfprintf+0x63a>
    305c:	2207      	movs	r2, #7
    305e:	3707      	adds	r7, #7
    3060:	4397      	bics	r7, r2
    3062:	cf0c      	ldmia	r7!, {r2, r3}
    3064:	9204      	str	r2, [sp, #16]
    3066:	9305      	str	r3, [sp, #20]
    3068:	2380      	movs	r3, #128	; 0x80
    306a:	002a      	movs	r2, r5
    306c:	401a      	ands	r2, r3
    306e:	421d      	tst	r5, r3
    3070:	d00f      	beq.n	3092 <__vfprintf+0x642>
    3072:	466b      	mov	r3, sp
    3074:	8a1b      	ldrh	r3, [r3, #16]
    3076:	9304      	str	r3, [sp, #16]
    3078:	2300      	movs	r3, #0
    307a:	9305      	str	r3, [sp, #20]
    307c:	4b36      	ldr	r3, [pc, #216]	; (3158 <__vfprintf+0x708>)
    307e:	469c      	mov	ip, r3
    3080:	072b      	lsls	r3, r5, #28
    3082:	d500      	bpl.n	3086 <__vfprintf+0x636>
    3084:	e0ad      	b.n	31e2 <__vfprintf+0x792>
    3086:	4b2f      	ldr	r3, [pc, #188]	; (3144 <__vfprintf+0x6f4>)
    3088:	e08f      	b.n	31aa <__vfprintf+0x75a>
    308a:	cf08      	ldmia	r7!, {r3}
    308c:	9205      	str	r2, [sp, #20]
    308e:	9304      	str	r3, [sp, #16]
    3090:	e7ea      	b.n	3068 <__vfprintf+0x618>
    3092:	05eb      	lsls	r3, r5, #23
    3094:	d5f2      	bpl.n	307c <__vfprintf+0x62c>
    3096:	466b      	mov	r3, sp
    3098:	7c1b      	ldrb	r3, [r3, #16]
    309a:	9205      	str	r2, [sp, #20]
    309c:	9304      	str	r3, [sp, #16]
    309e:	e7ed      	b.n	307c <__vfprintf+0x62c>
    30a0:	2340      	movs	r3, #64	; 0x40
    30a2:	002a      	movs	r2, r5
    30a4:	9f08      	ldr	r7, [sp, #32]
    30a6:	401a      	ands	r2, r3
    30a8:	421d      	tst	r5, r3
    30aa:	d057      	beq.n	315c <__vfprintf+0x70c>
    30ac:	2207      	movs	r2, #7
    30ae:	3707      	adds	r7, #7
    30b0:	4397      	bics	r7, r2
    30b2:	cf0c      	ldmia	r7!, {r2, r3}
    30b4:	9204      	str	r2, [sp, #16]
    30b6:	9305      	str	r3, [sp, #20]
    30b8:	2380      	movs	r3, #128	; 0x80
    30ba:	002a      	movs	r2, r5
    30bc:	401a      	ands	r2, r3
    30be:	421d      	tst	r5, r3
    30c0:	d050      	beq.n	3164 <__vfprintf+0x714>
    30c2:	466b      	mov	r3, sp
    30c4:	8a1b      	ldrh	r3, [r3, #16]
    30c6:	9304      	str	r3, [sp, #16]
    30c8:	2300      	movs	r3, #0
    30ca:	9305      	str	r3, [sp, #20]
    30cc:	2110      	movs	r1, #16
    30ce:	002b      	movs	r3, r5
    30d0:	481c      	ldr	r0, [pc, #112]	; (3144 <__vfprintf+0x6f4>)
    30d2:	400b      	ands	r3, r1
    30d4:	4684      	mov	ip, r0
    30d6:	9338      	str	r3, [sp, #224]	; 0xe0
    30d8:	420d      	tst	r5, r1
    30da:	d003      	beq.n	30e4 <__vfprintf+0x694>
    30dc:	4b1b      	ldr	r3, [pc, #108]	; (314c <__vfprintf+0x6fc>)
    30de:	401d      	ands	r5, r3
    30e0:	2300      	movs	r3, #0
    30e2:	9338      	str	r3, [sp, #224]	; 0xe0
    30e4:	9b06      	ldr	r3, [sp, #24]
    30e6:	980a      	ldr	r0, [sp, #40]	; 0x28
    30e8:	990b      	ldr	r1, [sp, #44]	; 0x2c
    30ea:	933e      	str	r3, [sp, #248]	; 0xf8
    30ec:	17db      	asrs	r3, r3, #31
    30ee:	933f      	str	r3, [sp, #252]	; 0xfc
    30f0:	9a3e      	ldr	r2, [sp, #248]	; 0xf8
    30f2:	9b3f      	ldr	r3, [sp, #252]	; 0xfc
    30f4:	1a80      	subs	r0, r0, r2
    30f6:	4199      	sbcs	r1, r3
    30f8:	2201      	movs	r2, #1
    30fa:	9b0c      	ldr	r3, [sp, #48]	; 0x30
    30fc:	4252      	negs	r2, r2
    30fe:	9340      	str	r3, [sp, #256]	; 0x100
    3100:	4663      	mov	r3, ip
    3102:	9008      	str	r0, [sp, #32]
    3104:	9109      	str	r1, [sp, #36]	; 0x24
    3106:	9242      	str	r2, [sp, #264]	; 0x108
    3108:	9243      	str	r2, [sp, #268]	; 0x10c
    310a:	2055      	movs	r0, #85	; 0x55
    310c:	2200      	movs	r2, #0
    310e:	9341      	str	r3, [sp, #260]	; 0x104
    3110:	a946      	add	r1, sp, #280	; 0x118
    3112:	5450      	strb	r0, [r2, r1]
    3114:	3201      	adds	r2, #1
    3116:	2a20      	cmp	r2, #32
    3118:	d1fb      	bne.n	3112 <__vfprintf+0x6c2>
    311a:	2282      	movs	r2, #130	; 0x82
    311c:	00d2      	lsls	r2, r2, #3
    311e:	4215      	tst	r5, r2
    3120:	d101      	bne.n	3126 <__vfprintf+0x6d6>
    3122:	2201      	movs	r2, #1
    3124:	9240      	str	r2, [sp, #256]	; 0x100
    3126:	2e6e      	cmp	r6, #110	; 0x6e
    3128:	dc65      	bgt.n	31f6 <__vfprintf+0x7a6>
    312a:	2e47      	cmp	r6, #71	; 0x47
    312c:	dd00      	ble.n	3130 <__vfprintf+0x6e0>
    312e:	e092      	b.n	3256 <__vfprintf+0x806>
    3130:	2e40      	cmp	r6, #64	; 0x40
    3132:	dd00      	ble.n	3136 <__vfprintf+0x6e6>
    3134:	e083      	b.n	323e <__vfprintf+0x7ee>
    3136:	2300      	movs	r3, #0
    3138:	930c      	str	r3, [sp, #48]	; 0x30
    313a:	e092      	b.n	3262 <__vfprintf+0x812>
    313c:	000051d9 	.word	0x000051d9
    3140:	000051e0 	.word	0x000051e0
    3144:	000051d4 	.word	0x000051d4
    3148:	000051ec 	.word	0x000051ec
    314c:	fffffdff 	.word	0xfffffdff
    3150:	000051e3 	.word	0x000051e3
    3154:	000051fd 	.word	0x000051fd
    3158:	000051e6 	.word	0x000051e6
    315c:	cf08      	ldmia	r7!, {r3}
    315e:	9205      	str	r2, [sp, #20]
    3160:	9304      	str	r3, [sp, #16]
    3162:	e7a9      	b.n	30b8 <__vfprintf+0x668>
    3164:	05eb      	lsls	r3, r5, #23
    3166:	d5b1      	bpl.n	30cc <__vfprintf+0x67c>
    3168:	466b      	mov	r3, sp
    316a:	7c1b      	ldrb	r3, [r3, #16]
    316c:	9205      	str	r2, [sp, #20]
    316e:	9304      	str	r3, [sp, #16]
    3170:	e7ac      	b.n	30cc <__vfprintf+0x67c>
    3172:	9f08      	ldr	r7, [sp, #32]
    3174:	066b      	lsls	r3, r5, #25
    3176:	d51a      	bpl.n	31ae <__vfprintf+0x75e>
    3178:	2207      	movs	r2, #7
    317a:	3707      	adds	r7, #7
    317c:	4397      	bics	r7, r2
    317e:	cf0c      	ldmia	r7!, {r2, r3}
    3180:	920e      	str	r2, [sp, #56]	; 0x38
    3182:	930f      	str	r3, [sp, #60]	; 0x3c
    3184:	062b      	lsls	r3, r5, #24
    3186:	d517      	bpl.n	31b8 <__vfprintf+0x768>
    3188:	466b      	mov	r3, sp
    318a:	2238      	movs	r2, #56	; 0x38
    318c:	5e9b      	ldrsh	r3, [r3, r2]
    318e:	930e      	str	r3, [sp, #56]	; 0x38
    3190:	17db      	asrs	r3, r3, #31
    3192:	930f      	str	r3, [sp, #60]	; 0x3c
    3194:	9b0f      	ldr	r3, [sp, #60]	; 0x3c
    3196:	2b00      	cmp	r3, #0
    3198:	da16      	bge.n	31c8 <__vfprintf+0x778>
    319a:	980e      	ldr	r0, [sp, #56]	; 0x38
    319c:	990f      	ldr	r1, [sp, #60]	; 0x3c
    319e:	2300      	movs	r3, #0
    31a0:	4242      	negs	r2, r0
    31a2:	418b      	sbcs	r3, r1
    31a4:	9204      	str	r2, [sp, #16]
    31a6:	9305      	str	r3, [sp, #20]
    31a8:	4bc5      	ldr	r3, [pc, #788]	; (34c0 <__vfprintf+0xa70>)
    31aa:	469c      	mov	ip, r3
    31ac:	e019      	b.n	31e2 <__vfprintf+0x792>
    31ae:	cf08      	ldmia	r7!, {r3}
    31b0:	930e      	str	r3, [sp, #56]	; 0x38
    31b2:	17db      	asrs	r3, r3, #31
    31b4:	930f      	str	r3, [sp, #60]	; 0x3c
    31b6:	e7e5      	b.n	3184 <__vfprintf+0x734>
    31b8:	05eb      	lsls	r3, r5, #23
    31ba:	d5eb      	bpl.n	3194 <__vfprintf+0x744>
    31bc:	466b      	mov	r3, sp
    31be:	2238      	movs	r2, #56	; 0x38
    31c0:	189b      	adds	r3, r3, r2
    31c2:	781b      	ldrb	r3, [r3, #0]
    31c4:	b25b      	sxtb	r3, r3
    31c6:	e7e2      	b.n	318e <__vfprintf+0x73e>
    31c8:	9a0e      	ldr	r2, [sp, #56]	; 0x38
    31ca:	9b0f      	ldr	r3, [sp, #60]	; 0x3c
    31cc:	9204      	str	r2, [sp, #16]
    31ce:	9305      	str	r3, [sp, #20]
    31d0:	4bbc      	ldr	r3, [pc, #752]	; (34c4 <__vfprintf+0xa74>)
    31d2:	469c      	mov	ip, r3
    31d4:	07ab      	lsls	r3, r5, #30
    31d6:	d404      	bmi.n	31e2 <__vfprintf+0x792>
    31d8:	4bbb      	ldr	r3, [pc, #748]	; (34c8 <__vfprintf+0xa78>)
    31da:	469c      	mov	ip, r3
    31dc:	076b      	lsls	r3, r5, #29
    31de:	d400      	bmi.n	31e2 <__vfprintf+0x792>
    31e0:	e751      	b.n	3086 <__vfprintf+0x636>
    31e2:	2300      	movs	r3, #0
    31e4:	e6ef      	b.n	2fc6 <__vfprintf+0x576>
    31e6:	2310      	movs	r3, #16
    31e8:	421d      	tst	r5, r3
    31ea:	d000      	beq.n	31ee <__vfprintf+0x79e>
    31ec:	e58f      	b.n	2d0e <__vfprintf+0x2be>
    31ee:	431d      	orrs	r5, r3
    31f0:	3b03      	subs	r3, #3
    31f2:	930c      	str	r3, [sp, #48]	; 0x30
    31f4:	e58b      	b.n	2d0e <__vfprintf+0x2be>
    31f6:	0030      	movs	r0, r6
    31f8:	386f      	subs	r0, #111	; 0x6f
    31fa:	2809      	cmp	r0, #9
    31fc:	d89b      	bhi.n	3136 <__vfprintf+0x6e6>
    31fe:	f001 f8d7 	bl	43b0 <__gnu_thumb1_case_shi>
    3202:	00cc      	.short	0x00cc
    3204:	ff9a00b2 	.word	0xff9a00b2
    3208:	ff9aff9a 	.word	0xff9aff9a
    320c:	0147ff9a 	.word	0x0147ff9a
    3210:	ff9aff9a 	.word	0xff9aff9a
    3214:	00b2      	.short	0x00b2
    3216:	f001 f8cb 	bl	43b0 <__gnu_thumb1_case_shi>
    321a:	00a6      	.short	0x00a6
    321c:	ff8eff8e 	.word	0xff8eff8e
    3220:	ff8eff8e 	.word	0xff8eff8e
    3224:	ff8eff8e 	.word	0xff8eff8e
    3228:	ff8eff8e 	.word	0xff8eff8e
    322c:	ff8e013d 	.word	0xff8e013d
    3230:	013bff8e 	.word	0x013bff8e
    3234:	013d013d 	.word	0x013d013d
    3238:	ff8e013d 	.word	0xff8e013d
    323c:	013b      	.short	0x013b
    323e:	0032      	movs	r2, r6
    3240:	2301      	movs	r3, #1
    3242:	3a41      	subs	r2, #65	; 0x41
    3244:	4093      	lsls	r3, r2
    3246:	2251      	movs	r2, #81	; 0x51
    3248:	0018      	movs	r0, r3
    324a:	4010      	ands	r0, r2
    324c:	4213      	tst	r3, r2
    324e:	d000      	beq.n	3252 <__vfprintf+0x802>
    3250:	e120      	b.n	3494 <__vfprintf+0xa44>
    3252:	900c      	str	r0, [sp, #48]	; 0x30
    3254:	e005      	b.n	3262 <__vfprintf+0x812>
    3256:	0030      	movs	r0, r6
    3258:	2300      	movs	r3, #0
    325a:	3858      	subs	r0, #88	; 0x58
    325c:	930c      	str	r3, [sp, #48]	; 0x30
    325e:	2811      	cmp	r0, #17
    3260:	d9d9      	bls.n	3216 <__vfprintf+0x7c6>
    3262:	2380      	movs	r3, #128	; 0x80
    3264:	002a      	movs	r2, r5
    3266:	00db      	lsls	r3, r3, #3
    3268:	401a      	ands	r2, r3
    326a:	923a      	str	r2, [sp, #232]	; 0xe8
    326c:	421d      	tst	r5, r3
    326e:	d100      	bne.n	3272 <__vfprintf+0x822>
    3270:	e11f      	b.n	34b2 <__vfprintf+0xa62>
    3272:	2300      	movs	r3, #0
    3274:	9340      	str	r3, [sp, #256]	; 0x100
    3276:	9b42      	ldr	r3, [sp, #264]	; 0x108
    3278:	2b00      	cmp	r3, #0
    327a:	dd01      	ble.n	3280 <__vfprintf+0x830>
    327c:	3b01      	subs	r3, #1
    327e:	9340      	str	r3, [sp, #256]	; 0x100
    3280:	9b43      	ldr	r3, [sp, #268]	; 0x10c
    3282:	2b00      	cmp	r3, #0
    3284:	dd03      	ble.n	328e <__vfprintf+0x83e>
    3286:	9a40      	ldr	r2, [sp, #256]	; 0x100
    3288:	3b01      	subs	r3, #1
    328a:	18d3      	adds	r3, r2, r3
    328c:	9340      	str	r3, [sp, #256]	; 0x100
    328e:	9b0c      	ldr	r3, [sp, #48]	; 0x30
    3290:	9a40      	ldr	r2, [sp, #256]	; 0x100
    3292:	9841      	ldr	r0, [sp, #260]	; 0x104
    3294:	189e      	adds	r6, r3, r2
    3296:	f000 fb17 	bl	38c8 <strlen>
    329a:	9b14      	ldr	r3, [sp, #80]	; 0x50
    329c:	1b9e      	subs	r6, r3, r6
    329e:	1a33      	subs	r3, r6, r0
    32a0:	9338      	str	r3, [sp, #224]	; 0xe0
    32a2:	2301      	movs	r3, #1
    32a4:	402b      	ands	r3, r5
    32a6:	933b      	str	r3, [sp, #236]	; 0xec
    32a8:	4b88      	ldr	r3, [pc, #544]	; (34cc <__vfprintf+0xa7c>)
    32aa:	421d      	tst	r5, r3
    32ac:	d100      	bne.n	32b0 <__vfprintf+0x860>
    32ae:	e13c      	b.n	352a <__vfprintf+0xada>
    32b0:	2300      	movs	r3, #0
    32b2:	9312      	str	r3, [sp, #72]	; 0x48
    32b4:	17db      	asrs	r3, r3, #31
    32b6:	9313      	str	r3, [sp, #76]	; 0x4c
    32b8:	9b41      	ldr	r3, [sp, #260]	; 0x104
    32ba:	9e12      	ldr	r6, [sp, #72]	; 0x48
    32bc:	1c5a      	adds	r2, r3, #1
    32be:	9241      	str	r2, [sp, #260]	; 0x104
    32c0:	781b      	ldrb	r3, [r3, #0]
    32c2:	9314      	str	r3, [sp, #80]	; 0x50
    32c4:	2b00      	cmp	r3, #0
    32c6:	d000      	beq.n	32ca <__vfprintf+0x87a>
    32c8:	e132      	b.n	3530 <__vfprintf+0xae0>
    32ca:	9b3b      	ldr	r3, [sp, #236]	; 0xec
    32cc:	2b00      	cmp	r3, #0
    32ce:	d115      	bne.n	32fc <__vfprintf+0x8ac>
    32d0:	3330      	adds	r3, #48	; 0x30
    32d2:	9339      	str	r3, [sp, #228]	; 0xe4
    32d4:	05ab      	lsls	r3, r5, #22
    32d6:	d401      	bmi.n	32dc <__vfprintf+0x88c>
    32d8:	2320      	movs	r3, #32
    32da:	9339      	str	r3, [sp, #228]	; 0xe4
    32dc:	17f3      	asrs	r3, r6, #31
    32de:	9d38      	ldr	r5, [sp, #224]	; 0xe0
    32e0:	961a      	str	r6, [sp, #104]	; 0x68
    32e2:	931b      	str	r3, [sp, #108]	; 0x6c
    32e4:	3d01      	subs	r5, #1
    32e6:	d400      	bmi.n	32ea <__vfprintf+0x89a>
    32e8:	e143      	b.n	3572 <__vfprintf+0xb22>
    32ea:	9b38      	ldr	r3, [sp, #224]	; 0xe0
    32ec:	9938      	ldr	r1, [sp, #224]	; 0xe0
    32ee:	1e5a      	subs	r2, r3, #1
    32f0:	43db      	mvns	r3, r3
    32f2:	17db      	asrs	r3, r3, #31
    32f4:	400b      	ands	r3, r1
    32f6:	1ad2      	subs	r2, r2, r3
    32f8:	9238      	str	r2, [sp, #224]	; 0xe0
    32fa:	18f6      	adds	r6, r6, r3
    32fc:	9b3a      	ldr	r3, [sp, #232]	; 0xe8
    32fe:	2b00      	cmp	r3, #0
    3300:	d000      	beq.n	3304 <__vfprintf+0x8b4>
    3302:	e18f      	b.n	3624 <__vfprintf+0xbd4>
    3304:	17f3      	asrs	r3, r6, #31
    3306:	9610      	str	r6, [sp, #64]	; 0x40
    3308:	9311      	str	r3, [sp, #68]	; 0x44
    330a:	9b40      	ldr	r3, [sp, #256]	; 0x100
    330c:	9e10      	ldr	r6, [sp, #64]	; 0x40
    330e:	3b01      	subs	r3, #1
    3310:	9340      	str	r3, [sp, #256]	; 0x100
    3312:	2b00      	cmp	r3, #0
    3314:	db00      	blt.n	3318 <__vfprintf+0x8c8>
    3316:	e1d7      	b.n	36c8 <__vfprintf+0xc78>
    3318:	17f3      	asrs	r3, r6, #31
    331a:	931d      	str	r3, [sp, #116]	; 0x74
    331c:	9b0c      	ldr	r3, [sp, #48]	; 0x30
    331e:	961c      	str	r6, [sp, #112]	; 0x70
    3320:	1e5d      	subs	r5, r3, #1
    3322:	2b00      	cmp	r3, #0
    3324:	dd00      	ble.n	3328 <__vfprintf+0x8d8>
    3326:	e1f0      	b.n	370a <__vfprintf+0xcba>
    3328:	9b0c      	ldr	r3, [sp, #48]	; 0x30
    332a:	43d8      	mvns	r0, r3
    332c:	17c0      	asrs	r0, r0, #31
    332e:	4018      	ands	r0, r3
    3330:	1986      	adds	r6, r0, r6
    3332:	e17b      	b.n	362c <__vfprintf+0xbdc>
    3334:	230f      	movs	r3, #15
    3336:	9e04      	ldr	r6, [sp, #16]
    3338:	401e      	ands	r6, r3
    333a:	9b38      	ldr	r3, [sp, #224]	; 0xe0
    333c:	5d9e      	ldrb	r6, [r3, r6]
    333e:	9b05      	ldr	r3, [sp, #20]
    3340:	5456      	strb	r6, [r2, r1]
    3342:	071b      	lsls	r3, r3, #28
    3344:	469c      	mov	ip, r3
    3346:	9b04      	ldr	r3, [sp, #16]
    3348:	3201      	adds	r2, #1
    334a:	091b      	lsrs	r3, r3, #4
    334c:	0018      	movs	r0, r3
    334e:	9b05      	ldr	r3, [sp, #20]
    3350:	091e      	lsrs	r6, r3, #4
    3352:	4663      	mov	r3, ip
    3354:	4303      	orrs	r3, r0
    3356:	9304      	str	r3, [sp, #16]
    3358:	9605      	str	r6, [sp, #20]
    335a:	9e04      	ldr	r6, [sp, #16]
    335c:	9b05      	ldr	r3, [sp, #20]
    335e:	920c      	str	r2, [sp, #48]	; 0x30
    3360:	431e      	orrs	r6, r3
    3362:	d1e7      	bne.n	3334 <__vfprintf+0x8e4>
    3364:	e77d      	b.n	3262 <__vfprintf+0x812>
    3366:	2200      	movs	r2, #0
    3368:	a946      	add	r1, sp, #280	; 0x118
    336a:	e7f6      	b.n	335a <__vfprintf+0x90a>
    336c:	2107      	movs	r1, #7
    336e:	9804      	ldr	r0, [sp, #16]
    3370:	4008      	ands	r0, r1
    3372:	9905      	ldr	r1, [sp, #20]
    3374:	3030      	adds	r0, #48	; 0x30
    3376:	0749      	lsls	r1, r1, #29
    3378:	468c      	mov	ip, r1
    337a:	9904      	ldr	r1, [sp, #16]
    337c:	5498      	strb	r0, [r3, r2]
    337e:	08ce      	lsrs	r6, r1, #3
    3380:	9905      	ldr	r1, [sp, #20]
    3382:	3301      	adds	r3, #1
    3384:	08c8      	lsrs	r0, r1, #3
    3386:	4661      	mov	r1, ip
    3388:	4331      	orrs	r1, r6
    338a:	9104      	str	r1, [sp, #16]
    338c:	9005      	str	r0, [sp, #20]
    338e:	9804      	ldr	r0, [sp, #16]
    3390:	9905      	ldr	r1, [sp, #20]
    3392:	930c      	str	r3, [sp, #48]	; 0x30
    3394:	4308      	orrs	r0, r1
    3396:	d1e9      	bne.n	336c <__vfprintf+0x91c>
    3398:	e763      	b.n	3262 <__vfprintf+0x812>
    339a:	2300      	movs	r3, #0
    339c:	aa46      	add	r2, sp, #280	; 0x118
    339e:	e7f6      	b.n	338e <__vfprintf+0x93e>
    33a0:	9b05      	ldr	r3, [sp, #20]
    33a2:	9a04      	ldr	r2, [sp, #16]
    33a4:	07db      	lsls	r3, r3, #31
    33a6:	0852      	lsrs	r2, r2, #1
    33a8:	431a      	orrs	r2, r3
    33aa:	9b05      	ldr	r3, [sp, #20]
    33ac:	9232      	str	r2, [sp, #200]	; 0xc8
    33ae:	085b      	lsrs	r3, r3, #1
    33b0:	9333      	str	r3, [sp, #204]	; 0xcc
    33b2:	9a04      	ldr	r2, [sp, #16]
    33b4:	9b05      	ldr	r3, [sp, #20]
    33b6:	0892      	lsrs	r2, r2, #2
    33b8:	079b      	lsls	r3, r3, #30
    33ba:	431a      	orrs	r2, r3
    33bc:	9b05      	ldr	r3, [sp, #20]
    33be:	9234      	str	r2, [sp, #208]	; 0xd0
    33c0:	089b      	lsrs	r3, r3, #2
    33c2:	9335      	str	r3, [sp, #212]	; 0xd4
    33c4:	9834      	ldr	r0, [sp, #208]	; 0xd0
    33c6:	9935      	ldr	r1, [sp, #212]	; 0xd4
    33c8:	9a32      	ldr	r2, [sp, #200]	; 0xc8
    33ca:	9b33      	ldr	r3, [sp, #204]	; 0xcc
    33cc:	1812      	adds	r2, r2, r0
    33ce:	414b      	adcs	r3, r1
    33d0:	0719      	lsls	r1, r3, #28
    33d2:	0910      	lsrs	r0, r2, #4
    33d4:	4308      	orrs	r0, r1
    33d6:	0919      	lsrs	r1, r3, #4
    33d8:	902c      	str	r0, [sp, #176]	; 0xb0
    33da:	912d      	str	r1, [sp, #180]	; 0xb4
    33dc:	982c      	ldr	r0, [sp, #176]	; 0xb0
    33de:	992d      	ldr	r1, [sp, #180]	; 0xb4
    33e0:	1812      	adds	r2, r2, r0
    33e2:	414b      	adcs	r3, r1
    33e4:	0619      	lsls	r1, r3, #24
    33e6:	0a10      	lsrs	r0, r2, #8
    33e8:	4308      	orrs	r0, r1
    33ea:	0a19      	lsrs	r1, r3, #8
    33ec:	902e      	str	r0, [sp, #184]	; 0xb8
    33ee:	912f      	str	r1, [sp, #188]	; 0xbc
    33f0:	982e      	ldr	r0, [sp, #184]	; 0xb8
    33f2:	992f      	ldr	r1, [sp, #188]	; 0xbc
    33f4:	1812      	adds	r2, r2, r0
    33f6:	414b      	adcs	r3, r1
    33f8:	0419      	lsls	r1, r3, #16
    33fa:	0c10      	lsrs	r0, r2, #16
    33fc:	4308      	orrs	r0, r1
    33fe:	0c19      	lsrs	r1, r3, #16
    3400:	9030      	str	r0, [sp, #192]	; 0xc0
    3402:	9131      	str	r1, [sp, #196]	; 0xc4
    3404:	9830      	ldr	r0, [sp, #192]	; 0xc0
    3406:	9931      	ldr	r1, [sp, #196]	; 0xc4
    3408:	1812      	adds	r2, r2, r0
    340a:	414b      	adcs	r3, r1
    340c:	2100      	movs	r1, #0
    340e:	933c      	str	r3, [sp, #240]	; 0xf0
    3410:	913d      	str	r1, [sp, #244]	; 0xf4
    3412:	983c      	ldr	r0, [sp, #240]	; 0xf0
    3414:	993d      	ldr	r1, [sp, #244]	; 0xf4
    3416:	1812      	adds	r2, r2, r0
    3418:	414b      	adcs	r3, r1
    341a:	0759      	lsls	r1, r3, #29
    341c:	08d0      	lsrs	r0, r2, #3
    341e:	4308      	orrs	r0, r1
    3420:	902a      	str	r0, [sp, #168]	; 0xa8
    3422:	2100      	movs	r1, #0
    3424:	2006      	movs	r0, #6
    3426:	08db      	lsrs	r3, r3, #3
    3428:	932b      	str	r3, [sp, #172]	; 0xac
    342a:	9a04      	ldr	r2, [sp, #16]
    342c:	9b05      	ldr	r3, [sp, #20]
    342e:	1812      	adds	r2, r2, r0
    3430:	414b      	adcs	r3, r1
    3432:	982a      	ldr	r0, [sp, #168]	; 0xa8
    3434:	992b      	ldr	r1, [sp, #172]	; 0xac
    3436:	920c      	str	r2, [sp, #48]	; 0x30
    3438:	930d      	str	r3, [sp, #52]	; 0x34
    343a:	220a      	movs	r2, #10
    343c:	2300      	movs	r3, #0
    343e:	f000 ff75 	bl	432c <__aeabi_lmul>
    3442:	9a0c      	ldr	r2, [sp, #48]	; 0x30
    3444:	9b0d      	ldr	r3, [sp, #52]	; 0x34
    3446:	1a12      	subs	r2, r2, r0
    3448:	418b      	sbcs	r3, r1
    344a:	0010      	movs	r0, r2
    344c:	0019      	movs	r1, r3
    344e:	0902      	lsrs	r2, r0, #4
    3450:	071b      	lsls	r3, r3, #28
    3452:	431a      	orrs	r2, r3
    3454:	090b      	lsrs	r3, r1, #4
    3456:	9236      	str	r2, [sp, #216]	; 0xd8
    3458:	9337      	str	r3, [sp, #220]	; 0xdc
    345a:	9836      	ldr	r0, [sp, #216]	; 0xd8
    345c:	9937      	ldr	r1, [sp, #220]	; 0xdc
    345e:	9a2a      	ldr	r2, [sp, #168]	; 0xa8
    3460:	9b2b      	ldr	r3, [sp, #172]	; 0xac
    3462:	1880      	adds	r0, r0, r2
    3464:	4159      	adcs	r1, r3
    3466:	220a      	movs	r2, #10
    3468:	4342      	muls	r2, r0
    346a:	9b04      	ldr	r3, [sp, #16]
    346c:	9004      	str	r0, [sp, #16]
    346e:	9105      	str	r1, [sp, #20]
    3470:	3330      	adds	r3, #48	; 0x30
    3472:	1a9b      	subs	r3, r3, r2
    3474:	469c      	mov	ip, r3
    3476:	2328      	movs	r3, #40	; 0x28
    3478:	aa3c      	add	r2, sp, #240	; 0xf0
    347a:	18d2      	adds	r2, r2, r3
    347c:	4663      	mov	r3, ip
    347e:	5593      	strb	r3, [r2, r6]
    3480:	3601      	adds	r6, #1
    3482:	9b04      	ldr	r3, [sp, #16]
    3484:	9a05      	ldr	r2, [sp, #20]
    3486:	960c      	str	r6, [sp, #48]	; 0x30
    3488:	4313      	orrs	r3, r2
    348a:	d000      	beq.n	348e <__vfprintf+0xa3e>
    348c:	e788      	b.n	33a0 <__vfprintf+0x950>
    348e:	e6e8      	b.n	3262 <__vfprintf+0x812>
    3490:	2600      	movs	r6, #0
    3492:	e7f6      	b.n	3482 <__vfprintf+0xa32>
    3494:	ab43      	add	r3, sp, #268	; 0x10c
    3496:	9303      	str	r3, [sp, #12]
    3498:	ab42      	add	r3, sp, #264	; 0x108
    349a:	9302      	str	r3, [sp, #8]
    349c:	ab40      	add	r3, sp, #256	; 0x100
    349e:	9301      	str	r3, [sp, #4]
    34a0:	ab41      	add	r3, sp, #260	; 0x104
    34a2:	9300      	str	r3, [sp, #0]
    34a4:	0030      	movs	r0, r6
    34a6:	002b      	movs	r3, r5
    34a8:	9e56      	ldr	r6, [sp, #344]	; 0x158
    34aa:	aa46      	add	r2, sp, #280	; 0x118
    34ac:	a944      	add	r1, sp, #272	; 0x110
    34ae:	47b0      	blx	r6
    34b0:	e6cf      	b.n	3252 <__vfprintf+0x802>
    34b2:	9b40      	ldr	r3, [sp, #256]	; 0x100
    34b4:	9a0c      	ldr	r2, [sp, #48]	; 0x30
    34b6:	1a9b      	subs	r3, r3, r2
    34b8:	d400      	bmi.n	34bc <__vfprintf+0xa6c>
    34ba:	e6e7      	b.n	328c <__vfprintf+0x83c>
    34bc:	9b3a      	ldr	r3, [sp, #232]	; 0xe8
    34be:	e6e5      	b.n	328c <__vfprintf+0x83c>
    34c0:	000051e8 	.word	0x000051e8
    34c4:	000051ea 	.word	0x000051ea
    34c8:	000051bb 	.word	0x000051bb
    34cc:	00000201 	.word	0x00000201
    34d0:	9b09      	ldr	r3, [sp, #36]	; 0x24
    34d2:	9a15      	ldr	r2, [sp, #84]	; 0x54
    34d4:	4293      	cmp	r3, r2
    34d6:	dc04      	bgt.n	34e2 <__vfprintf+0xa92>
    34d8:	d10d      	bne.n	34f6 <__vfprintf+0xaa6>
    34da:	9b08      	ldr	r3, [sp, #32]
    34dc:	9a14      	ldr	r2, [sp, #80]	; 0x50
    34de:	4293      	cmp	r3, r2
    34e0:	d909      	bls.n	34f6 <__vfprintf+0xaa6>
    34e2:	68a3      	ldr	r3, [r4, #8]
    34e4:	3b01      	subs	r3, #1
    34e6:	60a3      	str	r3, [r4, #8]
    34e8:	2b00      	cmp	r3, #0
    34ea:	db19      	blt.n	3520 <__vfprintf+0xad0>
    34ec:	6823      	ldr	r3, [r4, #0]
    34ee:	1c5a      	adds	r2, r3, #1
    34f0:	6022      	str	r2, [r4, #0]
    34f2:	2220      	movs	r2, #32
    34f4:	701a      	strb	r2, [r3, #0]
    34f6:	2001      	movs	r0, #1
    34f8:	9a14      	ldr	r2, [sp, #80]	; 0x50
    34fa:	9b15      	ldr	r3, [sp, #84]	; 0x54
    34fc:	2100      	movs	r1, #0
    34fe:	1812      	adds	r2, r2, r0
    3500:	414b      	adcs	r3, r1
    3502:	9214      	str	r2, [sp, #80]	; 0x50
    3504:	9315      	str	r3, [sp, #84]	; 0x54
    3506:	9b38      	ldr	r3, [sp, #224]	; 0xe0
    3508:	1e5a      	subs	r2, r3, #1
    350a:	9b14      	ldr	r3, [sp, #80]	; 0x50
    350c:	1ad3      	subs	r3, r2, r3
    350e:	d5df      	bpl.n	34d0 <__vfprintf+0xa80>
    3510:	9b38      	ldr	r3, [sp, #224]	; 0xe0
    3512:	9938      	ldr	r1, [sp, #224]	; 0xe0
    3514:	43db      	mvns	r3, r3
    3516:	17db      	asrs	r3, r3, #31
    3518:	400b      	ands	r3, r1
    351a:	1ad2      	subs	r2, r2, r3
    351c:	9238      	str	r2, [sp, #224]	; 0xe0
    351e:	e6c8      	b.n	32b2 <__vfprintf+0x862>
    3520:	0021      	movs	r1, r4
    3522:	2020      	movs	r0, #32
    3524:	f7ff f810 	bl	2548 <__flsbuf>
    3528:	e7e5      	b.n	34f6 <__vfprintf+0xaa6>
    352a:	2200      	movs	r2, #0
    352c:	2300      	movs	r3, #0
    352e:	e7e8      	b.n	3502 <__vfprintf+0xab2>
    3530:	9b09      	ldr	r3, [sp, #36]	; 0x24
    3532:	9a13      	ldr	r2, [sp, #76]	; 0x4c
    3534:	4293      	cmp	r3, r2
    3536:	dc04      	bgt.n	3542 <__vfprintf+0xaf2>
    3538:	d10d      	bne.n	3556 <__vfprintf+0xb06>
    353a:	9b08      	ldr	r3, [sp, #32]
    353c:	9a12      	ldr	r2, [sp, #72]	; 0x48
    353e:	4293      	cmp	r3, r2
    3540:	d909      	bls.n	3556 <__vfprintf+0xb06>
    3542:	68a3      	ldr	r3, [r4, #8]
    3544:	3b01      	subs	r3, #1
    3546:	60a3      	str	r3, [r4, #8]
    3548:	2b00      	cmp	r3, #0
    354a:	db0d      	blt.n	3568 <__vfprintf+0xb18>
    354c:	6823      	ldr	r3, [r4, #0]
    354e:	1c5a      	adds	r2, r3, #1
    3550:	6022      	str	r2, [r4, #0]
    3552:	9a14      	ldr	r2, [sp, #80]	; 0x50
    3554:	701a      	strb	r2, [r3, #0]
    3556:	2001      	movs	r0, #1
    3558:	9a12      	ldr	r2, [sp, #72]	; 0x48
    355a:	9b13      	ldr	r3, [sp, #76]	; 0x4c
    355c:	2100      	movs	r1, #0
    355e:	1812      	adds	r2, r2, r0
    3560:	414b      	adcs	r3, r1
    3562:	9212      	str	r2, [sp, #72]	; 0x48
    3564:	9313      	str	r3, [sp, #76]	; 0x4c
    3566:	e6a7      	b.n	32b8 <__vfprintf+0x868>
    3568:	0021      	movs	r1, r4
    356a:	9814      	ldr	r0, [sp, #80]	; 0x50
    356c:	f7fe ffec 	bl	2548 <__flsbuf>
    3570:	e7f1      	b.n	3556 <__vfprintf+0xb06>
    3572:	9b09      	ldr	r3, [sp, #36]	; 0x24
    3574:	9a1b      	ldr	r2, [sp, #108]	; 0x6c
    3576:	4293      	cmp	r3, r2
    3578:	dc04      	bgt.n	3584 <__vfprintf+0xb34>
    357a:	d10d      	bne.n	3598 <__vfprintf+0xb48>
    357c:	9b08      	ldr	r3, [sp, #32]
    357e:	9a1a      	ldr	r2, [sp, #104]	; 0x68
    3580:	4293      	cmp	r3, r2
    3582:	d909      	bls.n	3598 <__vfprintf+0xb48>
    3584:	68a3      	ldr	r3, [r4, #8]
    3586:	3b01      	subs	r3, #1
    3588:	60a3      	str	r3, [r4, #8]
    358a:	2b00      	cmp	r3, #0
    358c:	db0d      	blt.n	35aa <__vfprintf+0xb5a>
    358e:	6823      	ldr	r3, [r4, #0]
    3590:	1c5a      	adds	r2, r3, #1
    3592:	6022      	str	r2, [r4, #0]
    3594:	9a39      	ldr	r2, [sp, #228]	; 0xe4
    3596:	701a      	strb	r2, [r3, #0]
    3598:	2001      	movs	r0, #1
    359a:	9a1a      	ldr	r2, [sp, #104]	; 0x68
    359c:	9b1b      	ldr	r3, [sp, #108]	; 0x6c
    359e:	2100      	movs	r1, #0
    35a0:	1812      	adds	r2, r2, r0
    35a2:	414b      	adcs	r3, r1
    35a4:	921a      	str	r2, [sp, #104]	; 0x68
    35a6:	931b      	str	r3, [sp, #108]	; 0x6c
    35a8:	e69c      	b.n	32e4 <__vfprintf+0x894>
    35aa:	0021      	movs	r1, r4
    35ac:	9839      	ldr	r0, [sp, #228]	; 0xe4
    35ae:	f7fe ffcb 	bl	2548 <__flsbuf>
    35b2:	e7f1      	b.n	3598 <__vfprintf+0xb48>
    35b4:	9a14      	ldr	r2, [sp, #80]	; 0x50
    35b6:	ab46      	add	r3, sp, #280	; 0x118
    35b8:	5cd0      	ldrb	r0, [r2, r3]
    35ba:	17f3      	asrs	r3, r6, #31
    35bc:	283c      	cmp	r0, #60	; 0x3c
    35be:	d025      	beq.n	360c <__vfprintf+0xbbc>
    35c0:	283e      	cmp	r0, #62	; 0x3e
    35c2:	d16b      	bne.n	369c <__vfprintf+0xc4c>
    35c4:	9616      	str	r6, [sp, #88]	; 0x58
    35c6:	9317      	str	r3, [sp, #92]	; 0x5c
    35c8:	9b43      	ldr	r3, [sp, #268]	; 0x10c
    35ca:	9d16      	ldr	r5, [sp, #88]	; 0x58
    35cc:	3b01      	subs	r3, #1
    35ce:	9343      	str	r3, [sp, #268]	; 0x10c
    35d0:	2b00      	cmp	r3, #0
    35d2:	db23      	blt.n	361c <__vfprintf+0xbcc>
    35d4:	9b09      	ldr	r3, [sp, #36]	; 0x24
    35d6:	9a17      	ldr	r2, [sp, #92]	; 0x5c
    35d8:	4293      	cmp	r3, r2
    35da:	dc04      	bgt.n	35e6 <__vfprintf+0xb96>
    35dc:	d10d      	bne.n	35fa <__vfprintf+0xbaa>
    35de:	9b08      	ldr	r3, [sp, #32]
    35e0:	9a16      	ldr	r2, [sp, #88]	; 0x58
    35e2:	4293      	cmp	r3, r2
    35e4:	d909      	bls.n	35fa <__vfprintf+0xbaa>
    35e6:	68a3      	ldr	r3, [r4, #8]
    35e8:	3b01      	subs	r3, #1
    35ea:	60a3      	str	r3, [r4, #8]
    35ec:	2b00      	cmp	r3, #0
    35ee:	db50      	blt.n	3692 <__vfprintf+0xc42>
    35f0:	6823      	ldr	r3, [r4, #0]
    35f2:	1c5a      	adds	r2, r3, #1
    35f4:	6022      	str	r2, [r4, #0]
    35f6:	2230      	movs	r2, #48	; 0x30
    35f8:	701a      	strb	r2, [r3, #0]
    35fa:	2001      	movs	r0, #1
    35fc:	9a16      	ldr	r2, [sp, #88]	; 0x58
    35fe:	9b17      	ldr	r3, [sp, #92]	; 0x5c
    3600:	2100      	movs	r1, #0
    3602:	1812      	adds	r2, r2, r0
    3604:	414b      	adcs	r3, r1
    3606:	9216      	str	r2, [sp, #88]	; 0x58
    3608:	9317      	str	r3, [sp, #92]	; 0x5c
    360a:	e7dd      	b.n	35c8 <__vfprintf+0xb78>
    360c:	9618      	str	r6, [sp, #96]	; 0x60
    360e:	9319      	str	r3, [sp, #100]	; 0x64
    3610:	9b42      	ldr	r3, [sp, #264]	; 0x108
    3612:	9d18      	ldr	r5, [sp, #96]	; 0x60
    3614:	3b01      	subs	r3, #1
    3616:	9342      	str	r3, [sp, #264]	; 0x108
    3618:	2b00      	cmp	r3, #0
    361a:	da19      	bge.n	3650 <__vfprintf+0xc00>
    361c:	002e      	movs	r6, r5
    361e:	9b14      	ldr	r3, [sp, #80]	; 0x50
    3620:	3301      	adds	r3, #1
    3622:	9314      	str	r3, [sp, #80]	; 0x50
    3624:	9b0c      	ldr	r3, [sp, #48]	; 0x30
    3626:	9a14      	ldr	r2, [sp, #80]	; 0x50
    3628:	4293      	cmp	r3, r2
    362a:	dcc3      	bgt.n	35b4 <__vfprintf+0xb64>
    362c:	9b3b      	ldr	r3, [sp, #236]	; 0xec
    362e:	2b00      	cmp	r3, #0
    3630:	d00b      	beq.n	364a <__vfprintf+0xbfa>
    3632:	17f3      	asrs	r3, r6, #31
    3634:	9d38      	ldr	r5, [sp, #224]	; 0xe0
    3636:	9626      	str	r6, [sp, #152]	; 0x98
    3638:	9327      	str	r3, [sp, #156]	; 0x9c
    363a:	3d01      	subs	r5, #1
    363c:	d400      	bmi.n	3640 <__vfprintf+0xbf0>
    363e:	e086      	b.n	374e <__vfprintf+0xcfe>
    3640:	9b38      	ldr	r3, [sp, #224]	; 0xe0
    3642:	43d8      	mvns	r0, r3
    3644:	17c0      	asrs	r0, r0, #31
    3646:	4018      	ands	r0, r3
    3648:	1836      	adds	r6, r6, r0
    364a:	9b06      	ldr	r3, [sp, #24]
    364c:	199b      	adds	r3, r3, r6
    364e:	e435      	b.n	2ebc <__vfprintf+0x46c>
    3650:	9b09      	ldr	r3, [sp, #36]	; 0x24
    3652:	9a19      	ldr	r2, [sp, #100]	; 0x64
    3654:	4293      	cmp	r3, r2
    3656:	dc04      	bgt.n	3662 <__vfprintf+0xc12>
    3658:	d10d      	bne.n	3676 <__vfprintf+0xc26>
    365a:	9b08      	ldr	r3, [sp, #32]
    365c:	9a18      	ldr	r2, [sp, #96]	; 0x60
    365e:	4293      	cmp	r3, r2
    3660:	d909      	bls.n	3676 <__vfprintf+0xc26>
    3662:	68a3      	ldr	r3, [r4, #8]
    3664:	3b01      	subs	r3, #1
    3666:	60a3      	str	r3, [r4, #8]
    3668:	2b00      	cmp	r3, #0
    366a:	db0d      	blt.n	3688 <__vfprintf+0xc38>
    366c:	6823      	ldr	r3, [r4, #0]
    366e:	1c5a      	adds	r2, r3, #1
    3670:	6022      	str	r2, [r4, #0]
    3672:	2230      	movs	r2, #48	; 0x30
    3674:	701a      	strb	r2, [r3, #0]
    3676:	2001      	movs	r0, #1
    3678:	9a18      	ldr	r2, [sp, #96]	; 0x60
    367a:	9b19      	ldr	r3, [sp, #100]	; 0x64
    367c:	2100      	movs	r1, #0
    367e:	1812      	adds	r2, r2, r0
    3680:	414b      	adcs	r3, r1
    3682:	9218      	str	r2, [sp, #96]	; 0x60
    3684:	9319      	str	r3, [sp, #100]	; 0x64
    3686:	e7c3      	b.n	3610 <__vfprintf+0xbc0>
    3688:	0021      	movs	r1, r4
    368a:	2030      	movs	r0, #48	; 0x30
    368c:	f7fe ff5c 	bl	2548 <__flsbuf>
    3690:	e7f1      	b.n	3676 <__vfprintf+0xc26>
    3692:	0021      	movs	r1, r4
    3694:	2030      	movs	r0, #48	; 0x30
    3696:	f7fe ff57 	bl	2548 <__flsbuf>
    369a:	e7ae      	b.n	35fa <__vfprintf+0xbaa>
    369c:	9a09      	ldr	r2, [sp, #36]	; 0x24
    369e:	1c75      	adds	r5, r6, #1
    36a0:	4293      	cmp	r3, r2
    36a2:	db03      	blt.n	36ac <__vfprintf+0xc5c>
    36a4:	d1ba      	bne.n	361c <__vfprintf+0xbcc>
    36a6:	9b08      	ldr	r3, [sp, #32]
    36a8:	42b3      	cmp	r3, r6
    36aa:	d9b7      	bls.n	361c <__vfprintf+0xbcc>
    36ac:	68a3      	ldr	r3, [r4, #8]
    36ae:	3b01      	subs	r3, #1
    36b0:	60a3      	str	r3, [r4, #8]
    36b2:	2b00      	cmp	r3, #0
    36b4:	db04      	blt.n	36c0 <__vfprintf+0xc70>
    36b6:	6823      	ldr	r3, [r4, #0]
    36b8:	1c5a      	adds	r2, r3, #1
    36ba:	6022      	str	r2, [r4, #0]
    36bc:	7018      	strb	r0, [r3, #0]
    36be:	e7ad      	b.n	361c <__vfprintf+0xbcc>
    36c0:	0021      	movs	r1, r4
    36c2:	f7fe ff41 	bl	2548 <__flsbuf>
    36c6:	e7a9      	b.n	361c <__vfprintf+0xbcc>
    36c8:	9b09      	ldr	r3, [sp, #36]	; 0x24
    36ca:	9a11      	ldr	r2, [sp, #68]	; 0x44
    36cc:	4293      	cmp	r3, r2
    36ce:	dc04      	bgt.n	36da <__vfprintf+0xc8a>
    36d0:	d10d      	bne.n	36ee <__vfprintf+0xc9e>
    36d2:	9b08      	ldr	r3, [sp, #32]
    36d4:	9a10      	ldr	r2, [sp, #64]	; 0x40
    36d6:	4293      	cmp	r3, r2
    36d8:	d909      	bls.n	36ee <__vfprintf+0xc9e>
    36da:	68a3      	ldr	r3, [r4, #8]
    36dc:	3b01      	subs	r3, #1
    36de:	60a3      	str	r3, [r4, #8]
    36e0:	2b00      	cmp	r3, #0
    36e2:	db0d      	blt.n	3700 <__vfprintf+0xcb0>
    36e4:	6823      	ldr	r3, [r4, #0]
    36e6:	1c5a      	adds	r2, r3, #1
    36e8:	6022      	str	r2, [r4, #0]
    36ea:	2230      	movs	r2, #48	; 0x30
    36ec:	701a      	strb	r2, [r3, #0]
    36ee:	2001      	movs	r0, #1
    36f0:	9a10      	ldr	r2, [sp, #64]	; 0x40
    36f2:	9b11      	ldr	r3, [sp, #68]	; 0x44
    36f4:	2100      	movs	r1, #0
    36f6:	1812      	adds	r2, r2, r0
    36f8:	414b      	adcs	r3, r1
    36fa:	9210      	str	r2, [sp, #64]	; 0x40
    36fc:	9311      	str	r3, [sp, #68]	; 0x44
    36fe:	e604      	b.n	330a <__vfprintf+0x8ba>
    3700:	0021      	movs	r1, r4
    3702:	2030      	movs	r0, #48	; 0x30
    3704:	f7fe ff20 	bl	2548 <__flsbuf>
    3708:	e7f1      	b.n	36ee <__vfprintf+0xc9e>
    370a:	9b09      	ldr	r3, [sp, #36]	; 0x24
    370c:	9a1d      	ldr	r2, [sp, #116]	; 0x74
    370e:	4293      	cmp	r3, r2
    3710:	dc04      	bgt.n	371c <__vfprintf+0xccc>
    3712:	d10e      	bne.n	3732 <__vfprintf+0xce2>
    3714:	9b08      	ldr	r3, [sp, #32]
    3716:	9a1c      	ldr	r2, [sp, #112]	; 0x70
    3718:	4293      	cmp	r3, r2
    371a:	d90a      	bls.n	3732 <__vfprintf+0xce2>
    371c:	68a3      	ldr	r3, [r4, #8]
    371e:	aa46      	add	r2, sp, #280	; 0x118
    3720:	3b01      	subs	r3, #1
    3722:	5d50      	ldrb	r0, [r2, r5]
    3724:	60a3      	str	r3, [r4, #8]
    3726:	2b00      	cmp	r3, #0
    3728:	db0d      	blt.n	3746 <__vfprintf+0xcf6>
    372a:	6823      	ldr	r3, [r4, #0]
    372c:	1c5a      	adds	r2, r3, #1
    372e:	6022      	str	r2, [r4, #0]
    3730:	7018      	strb	r0, [r3, #0]
    3732:	2001      	movs	r0, #1
    3734:	9a1c      	ldr	r2, [sp, #112]	; 0x70
    3736:	9b1d      	ldr	r3, [sp, #116]	; 0x74
    3738:	2100      	movs	r1, #0
    373a:	1812      	adds	r2, r2, r0
    373c:	414b      	adcs	r3, r1
    373e:	921c      	str	r2, [sp, #112]	; 0x70
    3740:	931d      	str	r3, [sp, #116]	; 0x74
    3742:	002b      	movs	r3, r5
    3744:	e5ec      	b.n	3320 <__vfprintf+0x8d0>
    3746:	0021      	movs	r1, r4
    3748:	f7fe fefe 	bl	2548 <__flsbuf>
    374c:	e7f1      	b.n	3732 <__vfprintf+0xce2>
    374e:	9b09      	ldr	r3, [sp, #36]	; 0x24
    3750:	9a27      	ldr	r2, [sp, #156]	; 0x9c
    3752:	4293      	cmp	r3, r2
    3754:	dc04      	bgt.n	3760 <__vfprintf+0xd10>
    3756:	d10d      	bne.n	3774 <__vfprintf+0xd24>
    3758:	9b08      	ldr	r3, [sp, #32]
    375a:	9a26      	ldr	r2, [sp, #152]	; 0x98
    375c:	4293      	cmp	r3, r2
    375e:	d909      	bls.n	3774 <__vfprintf+0xd24>
    3760:	68a3      	ldr	r3, [r4, #8]
    3762:	3b01      	subs	r3, #1
    3764:	60a3      	str	r3, [r4, #8]
    3766:	2b00      	cmp	r3, #0
    3768:	db0d      	blt.n	3786 <__vfprintf+0xd36>
    376a:	6823      	ldr	r3, [r4, #0]
    376c:	1c5a      	adds	r2, r3, #1
    376e:	6022      	str	r2, [r4, #0]
    3770:	2220      	movs	r2, #32
    3772:	701a      	strb	r2, [r3, #0]
    3774:	2001      	movs	r0, #1
    3776:	9a26      	ldr	r2, [sp, #152]	; 0x98
    3778:	9b27      	ldr	r3, [sp, #156]	; 0x9c
    377a:	2100      	movs	r1, #0
    377c:	1812      	adds	r2, r2, r0
    377e:	414b      	adcs	r3, r1
    3780:	9226      	str	r2, [sp, #152]	; 0x98
    3782:	9327      	str	r3, [sp, #156]	; 0x9c
    3784:	e759      	b.n	363a <__vfprintf+0xbea>
    3786:	0021      	movs	r1, r4
    3788:	2020      	movs	r0, #32
    378a:	f7fe fedd 	bl	2548 <__flsbuf>
    378e:	e7f1      	b.n	3774 <__vfprintf+0xd24>

00003790 <_vsnprintf>:
    3790:	b5f0      	push	{r4, r5, r6, r7, lr}
    3792:	0007      	movs	r7, r0
    3794:	000c      	movs	r4, r1
    3796:	0015      	movs	r5, r2
    3798:	001e      	movs	r6, r3
    379a:	b097      	sub	sp, #92	; 0x5c
    379c:	2800      	cmp	r0, #0
    379e:	d103      	bne.n	37a8 <_vsnprintf+0x18>
    37a0:	2900      	cmp	r1, #0
    37a2:	d126      	bne.n	37f2 <_vsnprintf+0x62>
    37a4:	3401      	adds	r4, #1
    37a6:	af06      	add	r7, sp, #24
    37a8:	223c      	movs	r2, #60	; 0x3c
    37aa:	2100      	movs	r1, #0
    37ac:	a807      	add	r0, sp, #28
    37ae:	f000 fd44 	bl	423a <memset>
    37b2:	230a      	movs	r3, #10
    37b4:	1e62      	subs	r2, r4, #1
    37b6:	2400      	movs	r4, #0
    37b8:	930a      	str	r3, [sp, #40]	; 0x28
    37ba:	4b0f      	ldr	r3, [pc, #60]	; (37f8 <_vsnprintf+0x68>)
    37bc:	9500      	str	r5, [sp, #0]
    37be:	9309      	str	r3, [sp, #36]	; 0x24
    37c0:	4b0e      	ldr	r3, [pc, #56]	; (37fc <_vsnprintf+0x6c>)
    37c2:	9601      	str	r6, [sp, #4]
    37c4:	9302      	str	r3, [sp, #8]
    37c6:	a807      	add	r0, sp, #28
    37c8:	0023      	movs	r3, r4
    37ca:	9707      	str	r7, [sp, #28]
    37cc:	f7ff f940 	bl	2a50 <__vfprintf>
    37d0:	9b09      	ldr	r3, [sp, #36]	; 0x24
    37d2:	0005      	movs	r5, r0
    37d4:	9305      	str	r3, [sp, #20]
    37d6:	3b01      	subs	r3, #1
    37d8:	9309      	str	r3, [sp, #36]	; 0x24
    37da:	42a3      	cmp	r3, r4
    37dc:	db04      	blt.n	37e8 <_vsnprintf+0x58>
    37de:	9b07      	ldr	r3, [sp, #28]
    37e0:	701c      	strb	r4, [r3, #0]
    37e2:	0028      	movs	r0, r5
    37e4:	b017      	add	sp, #92	; 0x5c
    37e6:	bdf0      	pop	{r4, r5, r6, r7, pc}
    37e8:	0020      	movs	r0, r4
    37ea:	a907      	add	r1, sp, #28
    37ec:	f7fe feac 	bl	2548 <__flsbuf>
    37f0:	e7f7      	b.n	37e2 <_vsnprintf+0x52>
    37f2:	2501      	movs	r5, #1
    37f4:	426d      	negs	r5, r5
    37f6:	e7f4      	b.n	37e2 <_vsnprintf+0x52>
    37f8:	7fffffff 	.word	0x7fffffff
    37fc:	0000429d 	.word	0x0000429d

00003800 <_printf>:
    3800:	b40f      	push	{r0, r1, r2, r3}
    3802:	b573      	push	{r0, r1, r4, r5, r6, lr}
    3804:	ab06      	add	r3, sp, #24
    3806:	cb40      	ldmia	r3!, {r6}
    3808:	2101      	movs	r1, #1
    380a:	0032      	movs	r2, r6
    380c:	4668      	mov	r0, sp
    380e:	9301      	str	r3, [sp, #4]
    3810:	f7ff ffbe 	bl	3790 <_vsnprintf>
    3814:	1e04      	subs	r4, r0, #0
    3816:	dd14      	ble.n	3842 <_printf+0x42>
    3818:	1c45      	adds	r5, r0, #1
    381a:	0028      	movs	r0, r5
    381c:	f7fe ffa0 	bl	2760 <malloc>
    3820:	9000      	str	r0, [sp, #0]
    3822:	2800      	cmp	r0, #0
    3824:	d00d      	beq.n	3842 <_printf+0x42>
    3826:	0032      	movs	r2, r6
    3828:	0029      	movs	r1, r5
    382a:	9b01      	ldr	r3, [sp, #4]
    382c:	f7ff ffb0 	bl	3790 <_vsnprintf>
    3830:	4b06      	ldr	r3, [pc, #24]	; (384c <_printf+0x4c>)
    3832:	0022      	movs	r2, r4
    3834:	9900      	ldr	r1, [sp, #0]
    3836:	6d18      	ldr	r0, [r3, #80]	; 0x50
    3838:	f7fc fe64 	bl	504 <__sys_write>
    383c:	9800      	ldr	r0, [sp, #0]
    383e:	f000 fd00 	bl	4242 <free>
    3842:	0020      	movs	r0, r4
    3844:	bc76      	pop	{r1, r2, r4, r5, r6}
    3846:	bc08      	pop	{r3}
    3848:	b004      	add	sp, #16
    384a:	4718      	bx	r3
    384c:	200002bc 	.word	0x200002bc

00003850 <setvbuf>:
    3850:	b5f0      	push	{r4, r5, r6, r7, lr}
    3852:	68c5      	ldr	r5, [r0, #12]
    3854:	0004      	movs	r4, r0
    3856:	2001      	movs	r0, #1
    3858:	07ae      	lsls	r6, r5, #30
    385a:	d00c      	beq.n	3876 <setvbuf+0x26>
    385c:	2080      	movs	r0, #128	; 0x80
    385e:	0080      	lsls	r0, r0, #2
    3860:	4282      	cmp	r2, r0
    3862:	d013      	beq.n	388c <setvbuf+0x3c>
    3864:	2080      	movs	r0, #128	; 0x80
    3866:	00c0      	lsls	r0, r0, #3
    3868:	4282      	cmp	r2, r0
    386a:	d005      	beq.n	3878 <setvbuf+0x28>
    386c:	2080      	movs	r0, #128	; 0x80
    386e:	0040      	lsls	r0, r0, #1
    3870:	4282      	cmp	r2, r0
    3872:	d00b      	beq.n	388c <setvbuf+0x3c>
    3874:	38ff      	subs	r0, #255	; 0xff
    3876:	bdf0      	pop	{r4, r5, r6, r7, pc}
    3878:	0021      	movs	r1, r4
    387a:	2301      	movs	r3, #1
    387c:	3124      	adds	r1, #36	; 0x24
    387e:	432a      	orrs	r2, r5
    3880:	2000      	movs	r0, #0
    3882:	6121      	str	r1, [r4, #16]
    3884:	6021      	str	r1, [r4, #0]
    3886:	61e3      	str	r3, [r4, #28]
    3888:	60e2      	str	r2, [r4, #12]
    388a:	e7f4      	b.n	3876 <setvbuf+0x26>
    388c:	4f02      	ldr	r7, [pc, #8]	; (3898 <setvbuf+0x48>)
    388e:	1e5e      	subs	r6, r3, #1
    3890:	2001      	movs	r0, #1
    3892:	42be      	cmp	r6, r7
    3894:	d9f3      	bls.n	387e <setvbuf+0x2e>
    3896:	e7ee      	b.n	3876 <setvbuf+0x26>
    3898:	00fffffe 	.word	0x00fffffe

0000389c <exit>:
    389c:	b510      	push	{r4, lr}
    389e:	4a08      	ldr	r2, [pc, #32]	; (38c0 <exit+0x24>)
    38a0:	6813      	ldr	r3, [r2, #0]
    38a2:	2b00      	cmp	r3, #0
    38a4:	d104      	bne.n	38b0 <exit+0x14>
    38a6:	f7ff f8ab 	bl	2a00 <_terminateio>
    38aa:	f7fe fe27 	bl	24fc <__exit>
    38ae:	bd10      	pop	{r4, pc}
    38b0:	3b01      	subs	r3, #1
    38b2:	6013      	str	r3, [r2, #0]
    38b4:	4a03      	ldr	r2, [pc, #12]	; (38c4 <exit+0x28>)
    38b6:	009b      	lsls	r3, r3, #2
    38b8:	589b      	ldr	r3, [r3, r2]
    38ba:	4798      	blx	r3
    38bc:	e7ef      	b.n	389e <exit+0x2>
    38be:	46c0      	nop			; (mov r8, r8)
    38c0:	200003f4 	.word	0x200003f4
    38c4:	20000370 	.word	0x20000370

000038c8 <strlen>:
    38c8:	2303      	movs	r3, #3
    38ca:	b510      	push	{r4, lr}
    38cc:	1c41      	adds	r1, r0, #1
    38ce:	0002      	movs	r2, r0
    38d0:	4218      	tst	r0, r3
    38d2:	d117      	bne.n	3904 <strlen+0x3c>
    38d4:	4c10      	ldr	r4, [pc, #64]	; (3918 <strlen+0x50>)
    38d6:	6813      	ldr	r3, [r2, #0]
    38d8:	4810      	ldr	r0, [pc, #64]	; (391c <strlen+0x54>)
    38da:	1818      	adds	r0, r3, r0
    38dc:	4398      	bics	r0, r3
    38de:	4220      	tst	r0, r4
    38e0:	d017      	beq.n	3912 <strlen+0x4a>
    38e2:	b2dc      	uxtb	r4, r3
    38e4:	1c50      	adds	r0, r2, #1
    38e6:	2c00      	cmp	r4, #0
    38e8:	d011      	beq.n	390e <strlen+0x46>
    38ea:	24ff      	movs	r4, #255	; 0xff
    38ec:	0224      	lsls	r4, r4, #8
    38ee:	1c90      	adds	r0, r2, #2
    38f0:	4223      	tst	r3, r4
    38f2:	d00c      	beq.n	390e <strlen+0x46>
    38f4:	20ff      	movs	r0, #255	; 0xff
    38f6:	0400      	lsls	r0, r0, #16
    38f8:	4003      	ands	r3, r0
    38fa:	1e58      	subs	r0, r3, #1
    38fc:	4183      	sbcs	r3, r0
    38fe:	18d3      	adds	r3, r2, r3
    3900:	1cd8      	adds	r0, r3, #3
    3902:	e004      	b.n	390e <strlen+0x46>
    3904:	3001      	adds	r0, #1
    3906:	1e42      	subs	r2, r0, #1
    3908:	7812      	ldrb	r2, [r2, #0]
    390a:	2a00      	cmp	r2, #0
    390c:	d1df      	bne.n	38ce <strlen+0x6>
    390e:	1a40      	subs	r0, r0, r1
    3910:	bd10      	pop	{r4, pc}
    3912:	3204      	adds	r2, #4
    3914:	e7df      	b.n	38d6 <strlen+0xe>
    3916:	46c0      	nop			; (mov r8, r8)
    3918:	80808080 	.word	0x80808080
    391c:	fefefeff 	.word	0xfefefeff

00003920 <_sbrk>:
    3920:	b570      	push	{r4, r5, r6, lr}
    3922:	4d0d      	ldr	r5, [pc, #52]	; (3958 <_sbrk+0x38>)
    3924:	0004      	movs	r4, r0
    3926:	682b      	ldr	r3, [r5, #0]
    3928:	2b00      	cmp	r3, #0
    392a:	d101      	bne.n	3930 <_sbrk+0x10>
    392c:	4b0b      	ldr	r3, [pc, #44]	; (395c <_sbrk+0x3c>)
    392e:	602b      	str	r3, [r5, #0]
    3930:	2303      	movs	r3, #3
    3932:	682e      	ldr	r6, [r5, #0]
    3934:	3403      	adds	r4, #3
    3936:	439c      	bics	r4, r3
    3938:	1934      	adds	r4, r6, r4
    393a:	0020      	movs	r0, r4
    393c:	f000 f89c 	bl	3a78 <__check_heap_overflow>
    3940:	2800      	cmp	r0, #0
    3942:	d102      	bne.n	394a <_sbrk+0x2a>
    3944:	602c      	str	r4, [r5, #0]
    3946:	0030      	movs	r0, r6
    3948:	bd70      	pop	{r4, r5, r6, pc}
    394a:	220c      	movs	r2, #12
    394c:	2601      	movs	r6, #1
    394e:	4b04      	ldr	r3, [pc, #16]	; (3960 <_sbrk+0x40>)
    3950:	4276      	negs	r6, r6
    3952:	601a      	str	r2, [r3, #0]
    3954:	e7f7      	b.n	3946 <_sbrk+0x26>
    3956:	46c0      	nop			; (mov r8, r8)
    3958:	200003f8 	.word	0x200003f8
    395c:	20000404 	.word	0x20000404
    3960:	20000400 	.word	0x20000400

00003964 <_fdopen>:
    3964:	b5f7      	push	{r0, r1, r2, r4, r5, r6, r7, lr}
    3966:	000d      	movs	r5, r1
    3968:	9001      	str	r0, [sp, #4]
    396a:	0010      	movs	r0, r2
    396c:	0014      	movs	r4, r2
    396e:	f000 f833 	bl	39d8 <fclose>
    3972:	782b      	ldrb	r3, [r5, #0]
    3974:	2b72      	cmp	r3, #114	; 0x72
    3976:	d01c      	beq.n	39b2 <_fdopen+0x4e>
    3978:	2b77      	cmp	r3, #119	; 0x77
    397a:	d01d      	beq.n	39b8 <_fdopen+0x54>
    397c:	2b61      	cmp	r3, #97	; 0x61
    397e:	d126      	bne.n	39ce <_fdopen+0x6a>
    3980:	4a14      	ldr	r2, [pc, #80]	; (39d4 <_fdopen+0x70>)
    3982:	3b59      	subs	r3, #89	; 0x59
    3984:	2002      	movs	r0, #2
    3986:	1c69      	adds	r1, r5, #1
    3988:	2703      	movs	r7, #3
    398a:	4684      	mov	ip, r0
    398c:	2604      	movs	r6, #4
    398e:	2501      	movs	r5, #1
    3990:	7808      	ldrb	r0, [r1, #0]
    3992:	282b      	cmp	r0, #43	; 0x2b
    3994:	d013      	beq.n	39be <_fdopen+0x5a>
    3996:	2862      	cmp	r0, #98	; 0x62
    3998:	d016      	beq.n	39c8 <_fdopen+0x64>
    399a:	60e2      	str	r2, [r4, #12]
    399c:	9a01      	ldr	r2, [sp, #4]
    399e:	6162      	str	r2, [r4, #20]
    39a0:	071b      	lsls	r3, r3, #28
    39a2:	d504      	bpl.n	39ae <_fdopen+0x4a>
    39a4:	2202      	movs	r2, #2
    39a6:	2100      	movs	r1, #0
    39a8:	0020      	movs	r0, r4
    39aa:	f7fe ff4f 	bl	284c <fseek>
    39ae:	0020      	movs	r0, r4
    39b0:	bdfe      	pop	{r1, r2, r3, r4, r5, r6, r7, pc}
    39b2:	2300      	movs	r3, #0
    39b4:	2201      	movs	r2, #1
    39b6:	e7e5      	b.n	3984 <_fdopen+0x20>
    39b8:	2304      	movs	r3, #4
    39ba:	2202      	movs	r2, #2
    39bc:	e7e2      	b.n	3984 <_fdopen+0x20>
    39be:	4660      	mov	r0, ip
    39c0:	433a      	orrs	r2, r7
    39c2:	4303      	orrs	r3, r0
    39c4:	3101      	adds	r1, #1
    39c6:	e7e3      	b.n	3990 <_fdopen+0x2c>
    39c8:	4332      	orrs	r2, r6
    39ca:	432b      	orrs	r3, r5
    39cc:	e7fa      	b.n	39c4 <_fdopen+0x60>
    39ce:	2400      	movs	r4, #0
    39d0:	e7ed      	b.n	39ae <_fdopen+0x4a>
    39d2:	46c0      	nop			; (mov r8, r8)
    39d4:	00008002 	.word	0x00008002

000039d8 <fclose>:
    39d8:	b5f0      	push	{r4, r5, r6, r7, lr}
    39da:	68c5      	ldr	r5, [r0, #12]
    39dc:	0004      	movs	r4, r0
    39de:	b089      	sub	sp, #36	; 0x24
    39e0:	07ab      	lsls	r3, r5, #30
    39e2:	d022      	beq.n	3a2a <fclose+0x52>
    39e4:	072b      	lsls	r3, r5, #28
    39e6:	d418      	bmi.n	3a1a <fclose+0x42>
    39e8:	6947      	ldr	r7, [r0, #20]
    39ea:	6906      	ldr	r6, [r0, #16]
    39ec:	f000 f822 	bl	3a34 <fflush>
    39f0:	0038      	movs	r0, r7
    39f2:	f000 fce5 	bl	43c0 <__sys_close>
    39f6:	052b      	lsls	r3, r5, #20
    39f8:	d502      	bpl.n	3a00 <fclose+0x28>
    39fa:	0030      	movs	r0, r6
    39fc:	f000 fc21 	bl	4242 <free>
    3a00:	4b0b      	ldr	r3, [pc, #44]	; (3a30 <fclose+0x58>)
    3a02:	0dad      	lsrs	r5, r5, #22
    3a04:	05ad      	lsls	r5, r5, #22
    3a06:	429d      	cmp	r5, r3
    3a08:	d107      	bne.n	3a1a <fclose+0x42>
    3a0a:	2220      	movs	r2, #32
    3a0c:	4668      	mov	r0, sp
    3a0e:	6a21      	ldr	r1, [r4, #32]
    3a10:	f000 fcf4 	bl	43fc <__sys_tmpnam>
    3a14:	4668      	mov	r0, sp
    3a16:	f000 fc43 	bl	42a0 <remove>
    3a1a:	223c      	movs	r2, #60	; 0x3c
    3a1c:	2100      	movs	r1, #0
    3a1e:	0020      	movs	r0, r4
    3a20:	f000 fc0b 	bl	423a <memset>
    3a24:	2000      	movs	r0, #0
    3a26:	b009      	add	sp, #36	; 0x24
    3a28:	bdf0      	pop	{r4, r5, r6, r7, pc}
    3a2a:	2001      	movs	r0, #1
    3a2c:	4240      	negs	r0, r0
    3a2e:	e7fa      	b.n	3a26 <fclose+0x4e>
    3a30:	ad800000 	.word	0xad800000

00003a34 <fflush>:
    3a34:	b573      	push	{r0, r1, r4, r5, r6, lr}
    3a36:	2800      	cmp	r0, #0
    3a38:	d013      	beq.n	3a62 <fflush+0x2e>
    3a3a:	f000 f829 	bl	3a90 <_do_fflush>
    3a3e:	0005      	movs	r5, r0
    3a40:	0028      	movs	r0, r5
    3a42:	bd76      	pop	{r1, r2, r4, r5, r6, pc}
    3a44:	0030      	movs	r0, r6
    3a46:	4360      	muls	r0, r4
    3a48:	4b09      	ldr	r3, [pc, #36]	; (3a70 <fflush+0x3c>)
    3a4a:	18c0      	adds	r0, r0, r3
    3a4c:	f000 f820 	bl	3a90 <_do_fflush>
    3a50:	2800      	cmp	r0, #0
    3a52:	d001      	beq.n	3a58 <fflush+0x24>
    3a54:	2501      	movs	r5, #1
    3a56:	426d      	negs	r5, r5
    3a58:	3401      	adds	r4, #1
    3a5a:	9b01      	ldr	r3, [sp, #4]
    3a5c:	42a3      	cmp	r3, r4
    3a5e:	dcf1      	bgt.n	3a44 <fflush+0x10>
    3a60:	e7ee      	b.n	3a40 <fflush+0xc>
    3a62:	4b04      	ldr	r3, [pc, #16]	; (3a74 <fflush+0x40>)
    3a64:	0004      	movs	r4, r0
    3a66:	681b      	ldr	r3, [r3, #0]
    3a68:	0005      	movs	r5, r0
    3a6a:	263c      	movs	r6, #60	; 0x3c
    3a6c:	9301      	str	r3, [sp, #4]
    3a6e:	e7f4      	b.n	3a5a <fflush+0x26>
    3a70:	200002bc 	.word	0x200002bc
    3a74:	000051a4 	.word	0x000051a4

00003a78 <__check_heap_overflow>:
    3a78:	0003      	movs	r3, r0
    3a7a:	4804      	ldr	r0, [pc, #16]	; (3a8c <__check_heap_overflow+0x14>)
    3a7c:	2800      	cmp	r0, #0
    3a7e:	d003      	beq.n	3a88 <__check_heap_overflow+0x10>
    3a80:	2200      	movs	r2, #0
    3a82:	4283      	cmp	r3, r0
    3a84:	4152      	adcs	r2, r2
    3a86:	0010      	movs	r0, r2
    3a88:	4770      	bx	lr
    3a8a:	46c0      	nop			; (mov r8, r8)
    3a8c:	20000804 	.word	0x20000804

00003a90 <_do_fflush>:
    3a90:	68c3      	ldr	r3, [r0, #12]
    3a92:	b570      	push	{r4, r5, r6, lr}
    3a94:	2203      	movs	r2, #3
    3a96:	001e      	movs	r6, r3
    3a98:	0004      	movs	r4, r0
    3a9a:	4016      	ands	r6, r2
    3a9c:	4213      	tst	r3, r2
    3a9e:	d011      	beq.n	3ac4 <_do_fflush+0x34>
    3aa0:	069b      	lsls	r3, r3, #26
    3aa2:	d511      	bpl.n	3ac8 <_do_fflush+0x38>
    3aa4:	6a85      	ldr	r5, [r0, #40]	; 0x28
    3aa6:	f7fe fd2f 	bl	2508 <_deferredlazyseek>
    3aaa:	68e2      	ldr	r2, [r4, #12]
    3aac:	4b09      	ldr	r3, [pc, #36]	; (3ad4 <_do_fflush+0x44>)
    3aae:	0020      	movs	r0, r4
    3ab0:	4013      	ands	r3, r2
    3ab2:	60e3      	str	r3, [r4, #12]
    3ab4:	f7fe fdf0 	bl	2698 <_fflush>
    3ab8:	2200      	movs	r2, #0
    3aba:	0006      	movs	r6, r0
    3abc:	0029      	movs	r1, r5
    3abe:	0020      	movs	r0, r4
    3ac0:	f7fe fec4 	bl	284c <fseek>
    3ac4:	0030      	movs	r0, r6
    3ac6:	bd70      	pop	{r4, r5, r6, pc}
    3ac8:	6803      	ldr	r3, [r0, #0]
    3aca:	6982      	ldr	r2, [r0, #24]
    3acc:	189d      	adds	r5, r3, r2
    3ace:	6903      	ldr	r3, [r0, #16]
    3ad0:	1aed      	subs	r5, r5, r3
    3ad2:	e7ea      	b.n	3aaa <_do_fflush+0x1a>
    3ad4:	ffffcfff 	.word	0xffffcfff

00003ad8 <UART_EnableTx>:
    3ad8:	b580      	push	{r7, lr}
    3ada:	b082      	sub	sp, #8
    3adc:	af00      	add	r7, sp, #0
    3ade:	6078      	str	r0, [r7, #4]
    3ae0:	000a      	movs	r2, r1
    3ae2:	1cfb      	adds	r3, r7, #3
    3ae4:	701a      	strb	r2, [r3, #0]
    3ae6:	1cfb      	adds	r3, r7, #3
    3ae8:	781b      	ldrb	r3, [r3, #0]
    3aea:	2b00      	cmp	r3, #0
    3aec:	d008      	beq.n	3b00 <UART_EnableTx+0x28>
    3aee:	687b      	ldr	r3, [r7, #4]
    3af0:	78db      	ldrb	r3, [r3, #3]
    3af2:	b2db      	uxtb	r3, r3
    3af4:	2208      	movs	r2, #8
    3af6:	4313      	orrs	r3, r2
    3af8:	b2da      	uxtb	r2, r3
    3afa:	687b      	ldr	r3, [r7, #4]
    3afc:	70da      	strb	r2, [r3, #3]
    3afe:	e007      	b.n	3b10 <UART_EnableTx+0x38>
    3b00:	687b      	ldr	r3, [r7, #4]
    3b02:	78db      	ldrb	r3, [r3, #3]
    3b04:	b2db      	uxtb	r3, r3
    3b06:	2208      	movs	r2, #8
    3b08:	4393      	bics	r3, r2
    3b0a:	b2da      	uxtb	r2, r3
    3b0c:	687b      	ldr	r3, [r7, #4]
    3b0e:	70da      	strb	r2, [r3, #3]
    3b10:	46c0      	nop			; (mov r8, r8)
    3b12:	46bd      	mov	sp, r7
    3b14:	b002      	add	sp, #8
    3b16:	bd80      	pop	{r7, pc}

00003b18 <UART_EnableRx>:
    3b18:	b580      	push	{r7, lr}
    3b1a:	b082      	sub	sp, #8
    3b1c:	af00      	add	r7, sp, #0
    3b1e:	6078      	str	r0, [r7, #4]
    3b20:	000a      	movs	r2, r1
    3b22:	1cfb      	adds	r3, r7, #3
    3b24:	701a      	strb	r2, [r3, #0]
    3b26:	1cfb      	adds	r3, r7, #3
    3b28:	781b      	ldrb	r3, [r3, #0]
    3b2a:	2b00      	cmp	r3, #0
    3b2c:	d008      	beq.n	3b40 <UART_EnableRx+0x28>
    3b2e:	687b      	ldr	r3, [r7, #4]
    3b30:	78db      	ldrb	r3, [r3, #3]
    3b32:	b2db      	uxtb	r3, r3
    3b34:	2204      	movs	r2, #4
    3b36:	4313      	orrs	r3, r2
    3b38:	b2da      	uxtb	r2, r3
    3b3a:	687b      	ldr	r3, [r7, #4]
    3b3c:	70da      	strb	r2, [r3, #3]
    3b3e:	e007      	b.n	3b50 <UART_EnableRx+0x38>
    3b40:	687b      	ldr	r3, [r7, #4]
    3b42:	78db      	ldrb	r3, [r3, #3]
    3b44:	b2db      	uxtb	r3, r3
    3b46:	2204      	movs	r2, #4
    3b48:	4393      	bics	r3, r2
    3b4a:	b2da      	uxtb	r2, r3
    3b4c:	687b      	ldr	r3, [r7, #4]
    3b4e:	70da      	strb	r2, [r3, #3]
    3b50:	46c0      	nop			; (mov r8, r8)
    3b52:	46bd      	mov	sp, r7
    3b54:	b002      	add	sp, #8
    3b56:	bd80      	pop	{r7, pc}

00003b58 <LPSCI_EnableTx>:
    3b58:	b580      	push	{r7, lr}
    3b5a:	b082      	sub	sp, #8
    3b5c:	af00      	add	r7, sp, #0
    3b5e:	6078      	str	r0, [r7, #4]
    3b60:	000a      	movs	r2, r1
    3b62:	1cfb      	adds	r3, r7, #3
    3b64:	701a      	strb	r2, [r3, #0]
    3b66:	1cfb      	adds	r3, r7, #3
    3b68:	781b      	ldrb	r3, [r3, #0]
    3b6a:	2b00      	cmp	r3, #0
    3b6c:	d008      	beq.n	3b80 <LPSCI_EnableTx+0x28>
    3b6e:	687b      	ldr	r3, [r7, #4]
    3b70:	78db      	ldrb	r3, [r3, #3]
    3b72:	b2db      	uxtb	r3, r3
    3b74:	2208      	movs	r2, #8
    3b76:	4313      	orrs	r3, r2
    3b78:	b2da      	uxtb	r2, r3
    3b7a:	687b      	ldr	r3, [r7, #4]
    3b7c:	70da      	strb	r2, [r3, #3]
    3b7e:	e007      	b.n	3b90 <LPSCI_EnableTx+0x38>
    3b80:	687b      	ldr	r3, [r7, #4]
    3b82:	78db      	ldrb	r3, [r3, #3]
    3b84:	b2db      	uxtb	r3, r3
    3b86:	2208      	movs	r2, #8
    3b88:	4393      	bics	r3, r2
    3b8a:	b2da      	uxtb	r2, r3
    3b8c:	687b      	ldr	r3, [r7, #4]
    3b8e:	70da      	strb	r2, [r3, #3]
    3b90:	46c0      	nop			; (mov r8, r8)
    3b92:	46bd      	mov	sp, r7
    3b94:	b002      	add	sp, #8
    3b96:	bd80      	pop	{r7, pc}

00003b98 <LPSCI_EnableRx>:
    3b98:	b580      	push	{r7, lr}
    3b9a:	b082      	sub	sp, #8
    3b9c:	af00      	add	r7, sp, #0
    3b9e:	6078      	str	r0, [r7, #4]
    3ba0:	000a      	movs	r2, r1
    3ba2:	1cfb      	adds	r3, r7, #3
    3ba4:	701a      	strb	r2, [r3, #0]
    3ba6:	1cfb      	adds	r3, r7, #3
    3ba8:	781b      	ldrb	r3, [r3, #0]
    3baa:	2b00      	cmp	r3, #0
    3bac:	d008      	beq.n	3bc0 <LPSCI_EnableRx+0x28>
    3bae:	687b      	ldr	r3, [r7, #4]
    3bb0:	78db      	ldrb	r3, [r3, #3]
    3bb2:	b2db      	uxtb	r3, r3
    3bb4:	2204      	movs	r2, #4
    3bb6:	4313      	orrs	r3, r2
    3bb8:	b2da      	uxtb	r2, r3
    3bba:	687b      	ldr	r3, [r7, #4]
    3bbc:	70da      	strb	r2, [r3, #3]
    3bbe:	e007      	b.n	3bd0 <LPSCI_EnableRx+0x38>
    3bc0:	687b      	ldr	r3, [r7, #4]
    3bc2:	78db      	ldrb	r3, [r3, #3]
    3bc4:	b2db      	uxtb	r3, r3
    3bc6:	2204      	movs	r2, #4
    3bc8:	4393      	bics	r3, r2
    3bca:	b2da      	uxtb	r2, r3
    3bcc:	687b      	ldr	r3, [r7, #4]
    3bce:	70da      	strb	r2, [r3, #3]
    3bd0:	46c0      	nop			; (mov r8, r8)
    3bd2:	46bd      	mov	sp, r7
    3bd4:	b002      	add	sp, #8
    3bd6:	bd80      	pop	{r7, pc}

00003bd8 <ISHAProcessMessageBlock>:
    3bd8:	b5b0      	push	{r4, r5, r7, lr}
    3bda:	b088      	sub	sp, #32
    3bdc:	af00      	add	r7, sp, #0
    3bde:	6078      	str	r0, [r7, #4]
    3be0:	2400      	movs	r4, #0
    3be2:	687b      	ldr	r3, [r7, #4]
    3be4:	681b      	ldr	r3, [r3, #0]
    3be6:	61fb      	str	r3, [r7, #28]
    3be8:	687b      	ldr	r3, [r7, #4]
    3bea:	685d      	ldr	r5, [r3, #4]
    3bec:	687b      	ldr	r3, [r7, #4]
    3bee:	689b      	ldr	r3, [r3, #8]
    3bf0:	61bb      	str	r3, [r7, #24]
    3bf2:	687b      	ldr	r3, [r7, #4]
    3bf4:	68db      	ldr	r3, [r3, #12]
    3bf6:	617b      	str	r3, [r7, #20]
    3bf8:	687b      	ldr	r3, [r7, #4]
    3bfa:	691b      	ldr	r3, [r3, #16]
    3bfc:	613b      	str	r3, [r7, #16]
    3bfe:	e034      	b.n	3c6a <ISHAProcessMessageBlock+0x92>
    3c00:	69fb      	ldr	r3, [r7, #28]
    3c02:	221b      	movs	r2, #27
    3c04:	41d3      	rors	r3, r2
    3c06:	001a      	movs	r2, r3
    3c08:	69bb      	ldr	r3, [r7, #24]
    3c0a:	402b      	ands	r3, r5
    3c0c:	0019      	movs	r1, r3
    3c0e:	43eb      	mvns	r3, r5
    3c10:	6978      	ldr	r0, [r7, #20]
    3c12:	4003      	ands	r3, r0
    3c14:	430b      	orrs	r3, r1
    3c16:	18d2      	adds	r2, r2, r3
    3c18:	693b      	ldr	r3, [r7, #16]
    3c1a:	18d2      	adds	r2, r2, r3
    3c1c:	00a3      	lsls	r3, r4, #2
    3c1e:	6879      	ldr	r1, [r7, #4]
    3c20:	18cb      	adds	r3, r1, r3
    3c22:	7e1b      	ldrb	r3, [r3, #24]
    3c24:	0619      	lsls	r1, r3, #24
    3c26:	00a3      	lsls	r3, r4, #2
    3c28:	3301      	adds	r3, #1
    3c2a:	6878      	ldr	r0, [r7, #4]
    3c2c:	18c3      	adds	r3, r0, r3
    3c2e:	7e1b      	ldrb	r3, [r3, #24]
    3c30:	041b      	lsls	r3, r3, #16
    3c32:	4319      	orrs	r1, r3
    3c34:	00a3      	lsls	r3, r4, #2
    3c36:	3302      	adds	r3, #2
    3c38:	6878      	ldr	r0, [r7, #4]
    3c3a:	18c3      	adds	r3, r0, r3
    3c3c:	7e1b      	ldrb	r3, [r3, #24]
    3c3e:	021b      	lsls	r3, r3, #8
    3c40:	430b      	orrs	r3, r1
    3c42:	00a1      	lsls	r1, r4, #2
    3c44:	3103      	adds	r1, #3
    3c46:	6878      	ldr	r0, [r7, #4]
    3c48:	1841      	adds	r1, r0, r1
    3c4a:	7e09      	ldrb	r1, [r1, #24]
    3c4c:	430b      	orrs	r3, r1
    3c4e:	18d3      	adds	r3, r2, r3
    3c50:	60fb      	str	r3, [r7, #12]
    3c52:	697b      	ldr	r3, [r7, #20]
    3c54:	613b      	str	r3, [r7, #16]
    3c56:	69bb      	ldr	r3, [r7, #24]
    3c58:	617b      	str	r3, [r7, #20]
    3c5a:	2302      	movs	r3, #2
    3c5c:	41dd      	rors	r5, r3
    3c5e:	002b      	movs	r3, r5
    3c60:	61bb      	str	r3, [r7, #24]
    3c62:	69fd      	ldr	r5, [r7, #28]
    3c64:	68fb      	ldr	r3, [r7, #12]
    3c66:	61fb      	str	r3, [r7, #28]
    3c68:	3401      	adds	r4, #1
    3c6a:	2c0f      	cmp	r4, #15
    3c6c:	ddc8      	ble.n	3c00 <ISHAProcessMessageBlock+0x28>
    3c6e:	687b      	ldr	r3, [r7, #4]
    3c70:	681a      	ldr	r2, [r3, #0]
    3c72:	69fb      	ldr	r3, [r7, #28]
    3c74:	18d2      	adds	r2, r2, r3
    3c76:	687b      	ldr	r3, [r7, #4]
    3c78:	601a      	str	r2, [r3, #0]
    3c7a:	687b      	ldr	r3, [r7, #4]
    3c7c:	685b      	ldr	r3, [r3, #4]
    3c7e:	18ea      	adds	r2, r5, r3
    3c80:	687b      	ldr	r3, [r7, #4]
    3c82:	605a      	str	r2, [r3, #4]
    3c84:	687b      	ldr	r3, [r7, #4]
    3c86:	689a      	ldr	r2, [r3, #8]
    3c88:	69bb      	ldr	r3, [r7, #24]
    3c8a:	18d2      	adds	r2, r2, r3
    3c8c:	687b      	ldr	r3, [r7, #4]
    3c8e:	609a      	str	r2, [r3, #8]
    3c90:	687b      	ldr	r3, [r7, #4]
    3c92:	68da      	ldr	r2, [r3, #12]
    3c94:	697b      	ldr	r3, [r7, #20]
    3c96:	18d2      	adds	r2, r2, r3
    3c98:	687b      	ldr	r3, [r7, #4]
    3c9a:	60da      	str	r2, [r3, #12]
    3c9c:	687b      	ldr	r3, [r7, #4]
    3c9e:	691a      	ldr	r2, [r3, #16]
    3ca0:	693b      	ldr	r3, [r7, #16]
    3ca2:	18d2      	adds	r2, r2, r3
    3ca4:	687b      	ldr	r3, [r7, #4]
    3ca6:	611a      	str	r2, [r3, #16]
    3ca8:	687b      	ldr	r3, [r7, #4]
    3caa:	2200      	movs	r2, #0
    3cac:	659a      	str	r2, [r3, #88]	; 0x58
    3cae:	46c0      	nop			; (mov r8, r8)
    3cb0:	46bd      	mov	sp, r7
    3cb2:	b008      	add	sp, #32
    3cb4:	bdb0      	pop	{r4, r5, r7, pc}

00003cb6 <ISHAPadMessage>:
    3cb6:	b580      	push	{r7, lr}
    3cb8:	b082      	sub	sp, #8
    3cba:	af00      	add	r7, sp, #0
    3cbc:	6078      	str	r0, [r7, #4]
    3cbe:	687b      	ldr	r3, [r7, #4]
    3cc0:	6d9b      	ldr	r3, [r3, #88]	; 0x58
    3cc2:	2b37      	cmp	r3, #55	; 0x37
    3cc4:	dd22      	ble.n	3d0c <ISHAPadMessage+0x56>
    3cc6:	687b      	ldr	r3, [r7, #4]
    3cc8:	6d9b      	ldr	r3, [r3, #88]	; 0x58
    3cca:	1c59      	adds	r1, r3, #1
    3ccc:	687a      	ldr	r2, [r7, #4]
    3cce:	6591      	str	r1, [r2, #88]	; 0x58
    3cd0:	687a      	ldr	r2, [r7, #4]
    3cd2:	18d3      	adds	r3, r2, r3
    3cd4:	2280      	movs	r2, #128	; 0x80
    3cd6:	761a      	strb	r2, [r3, #24]
    3cd8:	687b      	ldr	r3, [r7, #4]
    3cda:	3318      	adds	r3, #24
    3cdc:	001a      	movs	r2, r3
    3cde:	687b      	ldr	r3, [r7, #4]
    3ce0:	6d9b      	ldr	r3, [r3, #88]	; 0x58
    3ce2:	18d0      	adds	r0, r2, r3
    3ce4:	687b      	ldr	r3, [r7, #4]
    3ce6:	6d9b      	ldr	r3, [r3, #88]	; 0x58
    3ce8:	2240      	movs	r2, #64	; 0x40
    3cea:	1ad3      	subs	r3, r2, r3
    3cec:	001a      	movs	r2, r3
    3cee:	2100      	movs	r1, #0
    3cf0:	f000 faa3 	bl	423a <memset>
    3cf4:	687b      	ldr	r3, [r7, #4]
    3cf6:	0018      	movs	r0, r3
    3cf8:	f7ff ff6e 	bl	3bd8 <ISHAProcessMessageBlock>
    3cfc:	687b      	ldr	r3, [r7, #4]
    3cfe:	3318      	adds	r3, #24
    3d00:	223a      	movs	r2, #58	; 0x3a
    3d02:	2100      	movs	r1, #0
    3d04:	0018      	movs	r0, r3
    3d06:	f000 fa98 	bl	423a <memset>
    3d0a:	e016      	b.n	3d3a <ISHAPadMessage+0x84>
    3d0c:	687b      	ldr	r3, [r7, #4]
    3d0e:	6d9b      	ldr	r3, [r3, #88]	; 0x58
    3d10:	1c59      	adds	r1, r3, #1
    3d12:	687a      	ldr	r2, [r7, #4]
    3d14:	6591      	str	r1, [r2, #88]	; 0x58
    3d16:	687a      	ldr	r2, [r7, #4]
    3d18:	18d3      	adds	r3, r2, r3
    3d1a:	2280      	movs	r2, #128	; 0x80
    3d1c:	761a      	strb	r2, [r3, #24]
    3d1e:	687b      	ldr	r3, [r7, #4]
    3d20:	3318      	adds	r3, #24
    3d22:	001a      	movs	r2, r3
    3d24:	687b      	ldr	r3, [r7, #4]
    3d26:	6d9b      	ldr	r3, [r3, #88]	; 0x58
    3d28:	18d0      	adds	r0, r2, r3
    3d2a:	687b      	ldr	r3, [r7, #4]
    3d2c:	6d9b      	ldr	r3, [r3, #88]	; 0x58
    3d2e:	223c      	movs	r2, #60	; 0x3c
    3d30:	1ad3      	subs	r3, r2, r3
    3d32:	001a      	movs	r2, r3
    3d34:	2100      	movs	r1, #0
    3d36:	f000 fa80 	bl	423a <memset>
    3d3a:	687b      	ldr	r3, [r7, #4]
    3d3c:	695b      	ldr	r3, [r3, #20]
    3d3e:	0e1b      	lsrs	r3, r3, #24
    3d40:	b2d9      	uxtb	r1, r3
    3d42:	687b      	ldr	r3, [r7, #4]
    3d44:	2254      	movs	r2, #84	; 0x54
    3d46:	5499      	strb	r1, [r3, r2]
    3d48:	687b      	ldr	r3, [r7, #4]
    3d4a:	695b      	ldr	r3, [r3, #20]
    3d4c:	0c1b      	lsrs	r3, r3, #16
    3d4e:	b2d9      	uxtb	r1, r3
    3d50:	687b      	ldr	r3, [r7, #4]
    3d52:	2255      	movs	r2, #85	; 0x55
    3d54:	5499      	strb	r1, [r3, r2]
    3d56:	687b      	ldr	r3, [r7, #4]
    3d58:	695b      	ldr	r3, [r3, #20]
    3d5a:	0a1b      	lsrs	r3, r3, #8
    3d5c:	b2d9      	uxtb	r1, r3
    3d5e:	687b      	ldr	r3, [r7, #4]
    3d60:	2256      	movs	r2, #86	; 0x56
    3d62:	5499      	strb	r1, [r3, r2]
    3d64:	687b      	ldr	r3, [r7, #4]
    3d66:	695b      	ldr	r3, [r3, #20]
    3d68:	b2d9      	uxtb	r1, r3
    3d6a:	687b      	ldr	r3, [r7, #4]
    3d6c:	2257      	movs	r2, #87	; 0x57
    3d6e:	5499      	strb	r1, [r3, r2]
    3d70:	687b      	ldr	r3, [r7, #4]
    3d72:	0018      	movs	r0, r3
    3d74:	f7ff ff30 	bl	3bd8 <ISHAProcessMessageBlock>
    3d78:	46c0      	nop			; (mov r8, r8)
    3d7a:	46bd      	mov	sp, r7
    3d7c:	b002      	add	sp, #8
    3d7e:	bd80      	pop	{r7, pc}

00003d80 <ISHAResult>:
    3d80:	b580      	push	{r7, lr}
    3d82:	b084      	sub	sp, #16
    3d84:	af00      	add	r7, sp, #0
    3d86:	6078      	str	r0, [r7, #4]
    3d88:	6039      	str	r1, [r7, #0]
    3d8a:	687b      	ldr	r3, [r7, #4]
    3d8c:	6e1b      	ldr	r3, [r3, #96]	; 0x60
    3d8e:	2b00      	cmp	r3, #0
    3d90:	d000      	beq.n	3d94 <ISHAResult+0x14>
    3d92:	e089      	b.n	3ea8 <ISHAResult+0x128>
    3d94:	687b      	ldr	r3, [r7, #4]
    3d96:	6ddb      	ldr	r3, [r3, #92]	; 0x5c
    3d98:	2b00      	cmp	r3, #0
    3d9a:	d106      	bne.n	3daa <ISHAResult+0x2a>
    3d9c:	687b      	ldr	r3, [r7, #4]
    3d9e:	0018      	movs	r0, r3
    3da0:	f7ff ff89 	bl	3cb6 <ISHAPadMessage>
    3da4:	687b      	ldr	r3, [r7, #4]
    3da6:	2201      	movs	r2, #1
    3da8:	65da      	str	r2, [r3, #92]	; 0x5c
    3daa:	687b      	ldr	r3, [r7, #4]
    3dac:	681b      	ldr	r3, [r3, #0]
    3dae:	ba1a      	rev	r2, r3
    3db0:	687b      	ldr	r3, [r7, #4]
    3db2:	601a      	str	r2, [r3, #0]
    3db4:	687b      	ldr	r3, [r7, #4]
    3db6:	685b      	ldr	r3, [r3, #4]
    3db8:	ba1a      	rev	r2, r3
    3dba:	687b      	ldr	r3, [r7, #4]
    3dbc:	605a      	str	r2, [r3, #4]
    3dbe:	687b      	ldr	r3, [r7, #4]
    3dc0:	689b      	ldr	r3, [r3, #8]
    3dc2:	ba1a      	rev	r2, r3
    3dc4:	687b      	ldr	r3, [r7, #4]
    3dc6:	609a      	str	r2, [r3, #8]
    3dc8:	687b      	ldr	r3, [r7, #4]
    3dca:	68db      	ldr	r3, [r3, #12]
    3dcc:	ba1a      	rev	r2, r3
    3dce:	687b      	ldr	r3, [r7, #4]
    3dd0:	60da      	str	r2, [r3, #12]
    3dd2:	687b      	ldr	r3, [r7, #4]
    3dd4:	691b      	ldr	r3, [r3, #16]
    3dd6:	ba1a      	rev	r2, r3
    3dd8:	687b      	ldr	r3, [r7, #4]
    3dda:	611a      	str	r2, [r3, #16]
    3ddc:	687b      	ldr	r3, [r7, #4]
    3dde:	60fb      	str	r3, [r7, #12]
    3de0:	68fb      	ldr	r3, [r7, #12]
    3de2:	781a      	ldrb	r2, [r3, #0]
    3de4:	683b      	ldr	r3, [r7, #0]
    3de6:	701a      	strb	r2, [r3, #0]
    3de8:	683b      	ldr	r3, [r7, #0]
    3dea:	3301      	adds	r3, #1
    3dec:	68fa      	ldr	r2, [r7, #12]
    3dee:	7852      	ldrb	r2, [r2, #1]
    3df0:	701a      	strb	r2, [r3, #0]
    3df2:	683b      	ldr	r3, [r7, #0]
    3df4:	3302      	adds	r3, #2
    3df6:	68fa      	ldr	r2, [r7, #12]
    3df8:	7892      	ldrb	r2, [r2, #2]
    3dfa:	701a      	strb	r2, [r3, #0]
    3dfc:	683b      	ldr	r3, [r7, #0]
    3dfe:	3303      	adds	r3, #3
    3e00:	68fa      	ldr	r2, [r7, #12]
    3e02:	78d2      	ldrb	r2, [r2, #3]
    3e04:	701a      	strb	r2, [r3, #0]
    3e06:	683b      	ldr	r3, [r7, #0]
    3e08:	3304      	adds	r3, #4
    3e0a:	68fa      	ldr	r2, [r7, #12]
    3e0c:	7912      	ldrb	r2, [r2, #4]
    3e0e:	701a      	strb	r2, [r3, #0]
    3e10:	683b      	ldr	r3, [r7, #0]
    3e12:	3305      	adds	r3, #5
    3e14:	68fa      	ldr	r2, [r7, #12]
    3e16:	7952      	ldrb	r2, [r2, #5]
    3e18:	701a      	strb	r2, [r3, #0]
    3e1a:	683b      	ldr	r3, [r7, #0]
    3e1c:	3306      	adds	r3, #6
    3e1e:	68fa      	ldr	r2, [r7, #12]
    3e20:	7992      	ldrb	r2, [r2, #6]
    3e22:	701a      	strb	r2, [r3, #0]
    3e24:	683b      	ldr	r3, [r7, #0]
    3e26:	3307      	adds	r3, #7
    3e28:	68fa      	ldr	r2, [r7, #12]
    3e2a:	79d2      	ldrb	r2, [r2, #7]
    3e2c:	701a      	strb	r2, [r3, #0]
    3e2e:	683b      	ldr	r3, [r7, #0]
    3e30:	3308      	adds	r3, #8
    3e32:	68fa      	ldr	r2, [r7, #12]
    3e34:	7a12      	ldrb	r2, [r2, #8]
    3e36:	701a      	strb	r2, [r3, #0]
    3e38:	683b      	ldr	r3, [r7, #0]
    3e3a:	3309      	adds	r3, #9
    3e3c:	68fa      	ldr	r2, [r7, #12]
    3e3e:	7a52      	ldrb	r2, [r2, #9]
    3e40:	701a      	strb	r2, [r3, #0]
    3e42:	683b      	ldr	r3, [r7, #0]
    3e44:	330a      	adds	r3, #10
    3e46:	68fa      	ldr	r2, [r7, #12]
    3e48:	7a92      	ldrb	r2, [r2, #10]
    3e4a:	701a      	strb	r2, [r3, #0]
    3e4c:	683b      	ldr	r3, [r7, #0]
    3e4e:	330b      	adds	r3, #11
    3e50:	68fa      	ldr	r2, [r7, #12]
    3e52:	7ad2      	ldrb	r2, [r2, #11]
    3e54:	701a      	strb	r2, [r3, #0]
    3e56:	683b      	ldr	r3, [r7, #0]
    3e58:	330c      	adds	r3, #12
    3e5a:	68fa      	ldr	r2, [r7, #12]
    3e5c:	7b12      	ldrb	r2, [r2, #12]
    3e5e:	701a      	strb	r2, [r3, #0]
    3e60:	683b      	ldr	r3, [r7, #0]
    3e62:	330d      	adds	r3, #13
    3e64:	68fa      	ldr	r2, [r7, #12]
    3e66:	7b52      	ldrb	r2, [r2, #13]
    3e68:	701a      	strb	r2, [r3, #0]
    3e6a:	683b      	ldr	r3, [r7, #0]
    3e6c:	330e      	adds	r3, #14
    3e6e:	68fa      	ldr	r2, [r7, #12]
    3e70:	7b92      	ldrb	r2, [r2, #14]
    3e72:	701a      	strb	r2, [r3, #0]
    3e74:	683b      	ldr	r3, [r7, #0]
    3e76:	330f      	adds	r3, #15
    3e78:	68fa      	ldr	r2, [r7, #12]
    3e7a:	7bd2      	ldrb	r2, [r2, #15]
    3e7c:	701a      	strb	r2, [r3, #0]
    3e7e:	683b      	ldr	r3, [r7, #0]
    3e80:	3310      	adds	r3, #16
    3e82:	68fa      	ldr	r2, [r7, #12]
    3e84:	7c12      	ldrb	r2, [r2, #16]
    3e86:	701a      	strb	r2, [r3, #0]
    3e88:	683b      	ldr	r3, [r7, #0]
    3e8a:	3311      	adds	r3, #17
    3e8c:	68fa      	ldr	r2, [r7, #12]
    3e8e:	7c52      	ldrb	r2, [r2, #17]
    3e90:	701a      	strb	r2, [r3, #0]
    3e92:	683b      	ldr	r3, [r7, #0]
    3e94:	3312      	adds	r3, #18
    3e96:	68fa      	ldr	r2, [r7, #12]
    3e98:	7c92      	ldrb	r2, [r2, #18]
    3e9a:	701a      	strb	r2, [r3, #0]
    3e9c:	683b      	ldr	r3, [r7, #0]
    3e9e:	3313      	adds	r3, #19
    3ea0:	68fa      	ldr	r2, [r7, #12]
    3ea2:	7cd2      	ldrb	r2, [r2, #19]
    3ea4:	701a      	strb	r2, [r3, #0]
    3ea6:	e000      	b.n	3eaa <ISHAResult+0x12a>
    3ea8:	46c0      	nop			; (mov r8, r8)
    3eaa:	46bd      	mov	sp, r7
    3eac:	b004      	add	sp, #16
    3eae:	bd80      	pop	{r7, pc}

00003eb0 <ISHAInput>:
    3eb0:	b580      	push	{r7, lr}
    3eb2:	b086      	sub	sp, #24
    3eb4:	af00      	add	r7, sp, #0
    3eb6:	60f8      	str	r0, [r7, #12]
    3eb8:	60b9      	str	r1, [r7, #8]
    3eba:	607a      	str	r2, [r7, #4]
    3ebc:	68fb      	ldr	r3, [r7, #12]
    3ebe:	695a      	ldr	r2, [r3, #20]
    3ec0:	687b      	ldr	r3, [r7, #4]
    3ec2:	00db      	lsls	r3, r3, #3
    3ec4:	18d2      	adds	r2, r2, r3
    3ec6:	68fb      	ldr	r3, [r7, #12]
    3ec8:	615a      	str	r2, [r3, #20]
    3eca:	2300      	movs	r3, #0
    3ecc:	617b      	str	r3, [r7, #20]
    3ece:	e02e      	b.n	3f2e <ISHAInput+0x7e>
    3ed0:	687b      	ldr	r3, [r7, #4]
    3ed2:	617b      	str	r3, [r7, #20]
    3ed4:	68fb      	ldr	r3, [r7, #12]
    3ed6:	6d9b      	ldr	r3, [r3, #88]	; 0x58
    3ed8:	001a      	movs	r2, r3
    3eda:	687b      	ldr	r3, [r7, #4]
    3edc:	18d3      	adds	r3, r2, r3
    3ede:	2b40      	cmp	r3, #64	; 0x40
    3ee0:	d904      	bls.n	3eec <ISHAInput+0x3c>
    3ee2:	68fb      	ldr	r3, [r7, #12]
    3ee4:	6d9b      	ldr	r3, [r3, #88]	; 0x58
    3ee6:	2240      	movs	r2, #64	; 0x40
    3ee8:	1ad3      	subs	r3, r2, r3
    3eea:	617b      	str	r3, [r7, #20]
    3eec:	68fb      	ldr	r3, [r7, #12]
    3eee:	3318      	adds	r3, #24
    3ef0:	001a      	movs	r2, r3
    3ef2:	68fb      	ldr	r3, [r7, #12]
    3ef4:	6d9b      	ldr	r3, [r3, #88]	; 0x58
    3ef6:	18d3      	adds	r3, r2, r3
    3ef8:	697a      	ldr	r2, [r7, #20]
    3efa:	68b9      	ldr	r1, [r7, #8]
    3efc:	0018      	movs	r0, r3
    3efe:	f000 f998 	bl	4232 <memcpy>
    3f02:	68fb      	ldr	r3, [r7, #12]
    3f04:	6d9a      	ldr	r2, [r3, #88]	; 0x58
    3f06:	697b      	ldr	r3, [r7, #20]
    3f08:	18d2      	adds	r2, r2, r3
    3f0a:	68fb      	ldr	r3, [r7, #12]
    3f0c:	659a      	str	r2, [r3, #88]	; 0x58
    3f0e:	697b      	ldr	r3, [r7, #20]
    3f10:	68ba      	ldr	r2, [r7, #8]
    3f12:	18d3      	adds	r3, r2, r3
    3f14:	60bb      	str	r3, [r7, #8]
    3f16:	697b      	ldr	r3, [r7, #20]
    3f18:	687a      	ldr	r2, [r7, #4]
    3f1a:	1ad3      	subs	r3, r2, r3
    3f1c:	607b      	str	r3, [r7, #4]
    3f1e:	68fb      	ldr	r3, [r7, #12]
    3f20:	6d9b      	ldr	r3, [r3, #88]	; 0x58
    3f22:	2b40      	cmp	r3, #64	; 0x40
    3f24:	d103      	bne.n	3f2e <ISHAInput+0x7e>
    3f26:	68fb      	ldr	r3, [r7, #12]
    3f28:	0018      	movs	r0, r3
    3f2a:	f7ff fe55 	bl	3bd8 <ISHAProcessMessageBlock>
    3f2e:	687b      	ldr	r3, [r7, #4]
    3f30:	2b00      	cmp	r3, #0
    3f32:	d1cd      	bne.n	3ed0 <ISHAInput+0x20>
    3f34:	46c0      	nop			; (mov r8, r8)
    3f36:	46c0      	nop			; (mov r8, r8)
    3f38:	46bd      	mov	sp, r7
    3f3a:	b006      	add	sp, #24
    3f3c:	bd80      	pop	{r7, pc}

00003f3e <hmac_isha>:
    3f3e:	b5b0      	push	{r4, r5, r7, lr}
    3f40:	b0d2      	sub	sp, #328	; 0x148
    3f42:	af00      	add	r7, sp, #0
    3f44:	60f8      	str	r0, [r7, #12]
    3f46:	60b9      	str	r1, [r7, #8]
    3f48:	607a      	str	r2, [r7, #4]
    3f4a:	603b      	str	r3, [r7, #0]
    3f4c:	68bb      	ldr	r3, [r7, #8]
    3f4e:	2b40      	cmp	r3, #64	; 0x40
    3f50:	d912      	bls.n	3f78 <hmac_isha+0x3a>
    3f52:	2410      	movs	r4, #16
    3f54:	193b      	adds	r3, r7, r4
    3f56:	0018      	movs	r0, r3
    3f58:	f7fc fb00 	bl	55c <ISHAReset>
    3f5c:	68ba      	ldr	r2, [r7, #8]
    3f5e:	68f9      	ldr	r1, [r7, #12]
    3f60:	193b      	adds	r3, r7, r4
    3f62:	0018      	movs	r0, r3
    3f64:	f7ff ffa4 	bl	3eb0 <ISHAInput>
    3f68:	2388      	movs	r3, #136	; 0x88
    3f6a:	18fa      	adds	r2, r7, r3
    3f6c:	193b      	adds	r3, r7, r4
    3f6e:	0011      	movs	r1, r2
    3f70:	0018      	movs	r0, r3
    3f72:	f7ff ff05 	bl	3d80 <ISHAResult>
    3f76:	e021      	b.n	3fbc <hmac_isha+0x7e>
    3f78:	2440      	movs	r4, #64	; 0x40
    3f7a:	e01b      	b.n	3fb4 <hmac_isha+0x76>
    3f7c:	68bb      	ldr	r3, [r7, #8]
    3f7e:	429c      	cmp	r4, r3
    3f80:	d203      	bcs.n	3f8a <hmac_isha+0x4c>
    3f82:	68fb      	ldr	r3, [r7, #12]
    3f84:	191b      	adds	r3, r3, r4
    3f86:	781a      	ldrb	r2, [r3, #0]
    3f88:	e000      	b.n	3f8c <hmac_isha+0x4e>
    3f8a:	2200      	movs	r2, #0
    3f8c:	2188      	movs	r1, #136	; 0x88
    3f8e:	187b      	adds	r3, r7, r1
    3f90:	551a      	strb	r2, [r3, r4]
    3f92:	187b      	adds	r3, r7, r1
    3f94:	5d1b      	ldrb	r3, [r3, r4]
    3f96:	2236      	movs	r2, #54	; 0x36
    3f98:	4053      	eors	r3, r2
    3f9a:	b2da      	uxtb	r2, r3
    3f9c:	2384      	movs	r3, #132	; 0x84
    3f9e:	005b      	lsls	r3, r3, #1
    3fa0:	18fb      	adds	r3, r7, r3
    3fa2:	551a      	strb	r2, [r3, r4]
    3fa4:	187b      	adds	r3, r7, r1
    3fa6:	5d1b      	ldrb	r3, [r3, r4]
    3fa8:	225c      	movs	r2, #92	; 0x5c
    3faa:	4053      	eors	r3, r2
    3fac:	b2da      	uxtb	r2, r3
    3fae:	23c8      	movs	r3, #200	; 0xc8
    3fb0:	18fb      	adds	r3, r7, r3
    3fb2:	551a      	strb	r2, [r3, r4]
    3fb4:	0023      	movs	r3, r4
    3fb6:	1e5c      	subs	r4, r3, #1
    3fb8:	2b00      	cmp	r3, #0
    3fba:	d1df      	bne.n	3f7c <hmac_isha+0x3e>
    3fbc:	2410      	movs	r4, #16
    3fbe:	193b      	adds	r3, r7, r4
    3fc0:	0018      	movs	r0, r3
    3fc2:	f7fc facb 	bl	55c <ISHAReset>
    3fc6:	2384      	movs	r3, #132	; 0x84
    3fc8:	005b      	lsls	r3, r3, #1
    3fca:	18f9      	adds	r1, r7, r3
    3fcc:	193b      	adds	r3, r7, r4
    3fce:	2240      	movs	r2, #64	; 0x40
    3fd0:	0018      	movs	r0, r3
    3fd2:	f7ff ff6d 	bl	3eb0 <ISHAInput>
    3fd6:	683a      	ldr	r2, [r7, #0]
    3fd8:	6879      	ldr	r1, [r7, #4]
    3fda:	193b      	adds	r3, r7, r4
    3fdc:	0018      	movs	r0, r3
    3fde:	f7ff ff67 	bl	3eb0 <ISHAInput>
    3fe2:	2574      	movs	r5, #116	; 0x74
    3fe4:	197a      	adds	r2, r7, r5
    3fe6:	193b      	adds	r3, r7, r4
    3fe8:	0011      	movs	r1, r2
    3fea:	0018      	movs	r0, r3
    3fec:	f7ff fec8 	bl	3d80 <ISHAResult>
    3ff0:	193b      	adds	r3, r7, r4
    3ff2:	0018      	movs	r0, r3
    3ff4:	f7fc fab2 	bl	55c <ISHAReset>
    3ff8:	23c8      	movs	r3, #200	; 0xc8
    3ffa:	18f9      	adds	r1, r7, r3
    3ffc:	193b      	adds	r3, r7, r4
    3ffe:	2240      	movs	r2, #64	; 0x40
    4000:	0018      	movs	r0, r3
    4002:	f7ff ff55 	bl	3eb0 <ISHAInput>
    4006:	1979      	adds	r1, r7, r5
    4008:	193b      	adds	r3, r7, r4
    400a:	2214      	movs	r2, #20
    400c:	0018      	movs	r0, r3
    400e:	f7ff ff4f 	bl	3eb0 <ISHAInput>
    4012:	23ac      	movs	r3, #172	; 0xac
    4014:	005b      	lsls	r3, r3, #1
    4016:	18fb      	adds	r3, r7, r3
    4018:	681a      	ldr	r2, [r3, #0]
    401a:	193b      	adds	r3, r7, r4
    401c:	0011      	movs	r1, r2
    401e:	0018      	movs	r0, r3
    4020:	f7ff feae 	bl	3d80 <ISHAResult>
    4024:	46c0      	nop			; (mov r8, r8)
    4026:	46bd      	mov	sp, r7
    4028:	b052      	add	sp, #328	; 0x148
    402a:	bdb0      	pop	{r4, r5, r7, pc}

0000402c <cmp_bin>:
    402c:	b580      	push	{r7, lr}
    402e:	b086      	sub	sp, #24
    4030:	af00      	add	r7, sp, #0
    4032:	60f8      	str	r0, [r7, #12]
    4034:	60b9      	str	r1, [r7, #8]
    4036:	607a      	str	r2, [r7, #4]
    4038:	2300      	movs	r3, #0
    403a:	617b      	str	r3, [r7, #20]
    403c:	e00e      	b.n	405c <cmp_bin+0x30>
    403e:	68fa      	ldr	r2, [r7, #12]
    4040:	697b      	ldr	r3, [r7, #20]
    4042:	18d3      	adds	r3, r2, r3
    4044:	781a      	ldrb	r2, [r3, #0]
    4046:	68b9      	ldr	r1, [r7, #8]
    4048:	697b      	ldr	r3, [r7, #20]
    404a:	18cb      	adds	r3, r1, r3
    404c:	781b      	ldrb	r3, [r3, #0]
    404e:	429a      	cmp	r2, r3
    4050:	d001      	beq.n	4056 <cmp_bin+0x2a>
    4052:	2300      	movs	r3, #0
    4054:	e007      	b.n	4066 <cmp_bin+0x3a>
    4056:	697b      	ldr	r3, [r7, #20]
    4058:	3301      	adds	r3, #1
    405a:	617b      	str	r3, [r7, #20]
    405c:	697a      	ldr	r2, [r7, #20]
    405e:	687b      	ldr	r3, [r7, #4]
    4060:	429a      	cmp	r2, r3
    4062:	d3ec      	bcc.n	403e <cmp_bin+0x12>
    4064:	2301      	movs	r3, #1
    4066:	0018      	movs	r0, r3
    4068:	46bd      	mov	sp, r7
    406a:	b006      	add	sp, #24
    406c:	bd80      	pop	{r7, pc}

0000406e <hexstr_to_bytes>:
    406e:	b590      	push	{r4, r7, lr}
    4070:	b087      	sub	sp, #28
    4072:	af00      	add	r7, sp, #0
    4074:	60f8      	str	r0, [r7, #12]
    4076:	60b9      	str	r1, [r7, #8]
    4078:	607a      	str	r2, [r7, #4]
    407a:	2300      	movs	r3, #0
    407c:	617b      	str	r3, [r7, #20]
    407e:	e01f      	b.n	40c0 <hexstr_to_bytes+0x52>
    4080:	697b      	ldr	r3, [r7, #20]
    4082:	005b      	lsls	r3, r3, #1
    4084:	68ba      	ldr	r2, [r7, #8]
    4086:	18d3      	adds	r3, r2, r3
    4088:	781b      	ldrb	r3, [r3, #0]
    408a:	0018      	movs	r0, r3
    408c:	f7fc fd80 	bl	b90 <hexdigit_to_int>
    4090:	0003      	movs	r3, r0
    4092:	011b      	lsls	r3, r3, #4
    4094:	b25c      	sxtb	r4, r3
    4096:	697b      	ldr	r3, [r7, #20]
    4098:	005b      	lsls	r3, r3, #1
    409a:	3301      	adds	r3, #1
    409c:	68ba      	ldr	r2, [r7, #8]
    409e:	18d3      	adds	r3, r2, r3
    40a0:	781b      	ldrb	r3, [r3, #0]
    40a2:	0018      	movs	r0, r3
    40a4:	f7fc fd74 	bl	b90 <hexdigit_to_int>
    40a8:	0003      	movs	r3, r0
    40aa:	b25b      	sxtb	r3, r3
    40ac:	4323      	orrs	r3, r4
    40ae:	b259      	sxtb	r1, r3
    40b0:	68fa      	ldr	r2, [r7, #12]
    40b2:	697b      	ldr	r3, [r7, #20]
    40b4:	18d3      	adds	r3, r2, r3
    40b6:	b2ca      	uxtb	r2, r1
    40b8:	701a      	strb	r2, [r3, #0]
    40ba:	697b      	ldr	r3, [r7, #20]
    40bc:	3301      	adds	r3, #1
    40be:	617b      	str	r3, [r7, #20]
    40c0:	697a      	ldr	r2, [r7, #20]
    40c2:	687b      	ldr	r3, [r7, #4]
    40c4:	429a      	cmp	r2, r3
    40c6:	d3db      	bcc.n	4080 <hexstr_to_bytes+0x12>
    40c8:	46c0      	nop			; (mov r8, r8)
    40ca:	46c0      	nop			; (mov r8, r8)
    40cc:	46bd      	mov	sp, r7
    40ce:	b007      	add	sp, #28
    40d0:	bd90      	pop	{r4, r7, pc}

000040d2 <OSC_SetExtRefClkConfig>:
    40d2:	b580      	push	{r7, lr}
    40d4:	b084      	sub	sp, #16
    40d6:	af00      	add	r7, sp, #0
    40d8:	6078      	str	r0, [r7, #4]
    40da:	6039      	str	r1, [r7, #0]
    40dc:	200f      	movs	r0, #15
    40de:	183b      	adds	r3, r7, r0
    40e0:	687a      	ldr	r2, [r7, #4]
    40e2:	7812      	ldrb	r2, [r2, #0]
    40e4:	701a      	strb	r2, [r3, #0]
    40e6:	183b      	adds	r3, r7, r0
    40e8:	183a      	adds	r2, r7, r0
    40ea:	7812      	ldrb	r2, [r2, #0]
    40ec:	215f      	movs	r1, #95	; 0x5f
    40ee:	400a      	ands	r2, r1
    40f0:	701a      	strb	r2, [r3, #0]
    40f2:	683b      	ldr	r3, [r7, #0]
    40f4:	7819      	ldrb	r1, [r3, #0]
    40f6:	183b      	adds	r3, r7, r0
    40f8:	183a      	adds	r2, r7, r0
    40fa:	7812      	ldrb	r2, [r2, #0]
    40fc:	430a      	orrs	r2, r1
    40fe:	701a      	strb	r2, [r3, #0]
    4100:	687b      	ldr	r3, [r7, #4]
    4102:	183a      	adds	r2, r7, r0
    4104:	7812      	ldrb	r2, [r2, #0]
    4106:	701a      	strb	r2, [r3, #0]
    4108:	46c0      	nop			; (mov r8, r8)
    410a:	46bd      	mov	sp, r7
    410c:	b004      	add	sp, #16
    410e:	bd80      	pop	{r7, pc}

00004110 <OSC_SetCapLoad>:
    4110:	b580      	push	{r7, lr}
    4112:	b084      	sub	sp, #16
    4114:	af00      	add	r7, sp, #0
    4116:	6078      	str	r0, [r7, #4]
    4118:	000a      	movs	r2, r1
    411a:	1cfb      	adds	r3, r7, #3
    411c:	701a      	strb	r2, [r3, #0]
    411e:	200f      	movs	r0, #15
    4120:	183b      	adds	r3, r7, r0
    4122:	687a      	ldr	r2, [r7, #4]
    4124:	7812      	ldrb	r2, [r2, #0]
    4126:	701a      	strb	r2, [r3, #0]
    4128:	183b      	adds	r3, r7, r0
    412a:	183a      	adds	r2, r7, r0
    412c:	7812      	ldrb	r2, [r2, #0]
    412e:	210f      	movs	r1, #15
    4130:	438a      	bics	r2, r1
    4132:	701a      	strb	r2, [r3, #0]
    4134:	183b      	adds	r3, r7, r0
    4136:	1839      	adds	r1, r7, r0
    4138:	1cfa      	adds	r2, r7, #3
    413a:	7809      	ldrb	r1, [r1, #0]
    413c:	7812      	ldrb	r2, [r2, #0]
    413e:	430a      	orrs	r2, r1
    4140:	701a      	strb	r2, [r3, #0]
    4142:	687b      	ldr	r3, [r7, #4]
    4144:	183a      	adds	r2, r7, r0
    4146:	7812      	ldrb	r2, [r2, #0]
    4148:	701a      	strb	r2, [r3, #0]
    414a:	46c0      	nop			; (mov r8, r8)
    414c:	46bd      	mov	sp, r7
    414e:	b004      	add	sp, #16
    4150:	bd80      	pop	{r7, pc}

00004152 <CLOCK_GetPll0RefFreq>:
    4152:	b580      	push	{r7, lr}
    4154:	af00      	add	r7, sp, #0
    4156:	f7fd f953 	bl	1400 <CLOCK_GetMcgExtClkFreq>
    415a:	0003      	movs	r3, r0
    415c:	0018      	movs	r0, r3
    415e:	46bd      	mov	sp, r7
    4160:	bd80      	pop	{r7, pc}

00004162 <CLOCK_SetExternalRefClkConfig>:
    4162:	b580      	push	{r7, lr}
    4164:	b082      	sub	sp, #8
    4166:	af00      	add	r7, sp, #0
    4168:	0002      	movs	r2, r0
    416a:	1dfb      	adds	r3, r7, #7
    416c:	701a      	strb	r2, [r3, #0]
    416e:	2300      	movs	r3, #0
    4170:	0018      	movs	r0, r3
    4172:	46bd      	mov	sp, r7
    4174:	b002      	add	sp, #8
    4176:	bd80      	pop	{r7, pc}

00004178 <LPSCI_GetStatusFlags>:
    4178:	b580      	push	{r7, lr}
    417a:	b084      	sub	sp, #16
    417c:	af00      	add	r7, sp, #0
    417e:	6078      	str	r0, [r7, #4]
    4180:	687b      	ldr	r3, [r7, #4]
    4182:	791b      	ldrb	r3, [r3, #4]
    4184:	b2db      	uxtb	r3, r3
    4186:	001a      	movs	r2, r3
    4188:	687b      	ldr	r3, [r7, #4]
    418a:	795b      	ldrb	r3, [r3, #5]
    418c:	b2db      	uxtb	r3, r3
    418e:	021b      	lsls	r3, r3, #8
    4190:	4313      	orrs	r3, r2
    4192:	60fb      	str	r3, [r7, #12]
    4194:	68fb      	ldr	r3, [r7, #12]
    4196:	0018      	movs	r0, r3
    4198:	46bd      	mov	sp, r7
    419a:	b004      	add	sp, #16
    419c:	bd80      	pop	{r7, pc}

0000419e <UART_GetStatusFlags>:
    419e:	b580      	push	{r7, lr}
    41a0:	b084      	sub	sp, #16
    41a2:	af00      	add	r7, sp, #0
    41a4:	6078      	str	r0, [r7, #4]
    41a6:	687b      	ldr	r3, [r7, #4]
    41a8:	791b      	ldrb	r3, [r3, #4]
    41aa:	b2db      	uxtb	r3, r3
    41ac:	001a      	movs	r2, r3
    41ae:	687b      	ldr	r3, [r7, #4]
    41b0:	795b      	ldrb	r3, [r3, #5]
    41b2:	b2db      	uxtb	r3, r3
    41b4:	021b      	lsls	r3, r3, #8
    41b6:	4313      	orrs	r3, r2
    41b8:	60fb      	str	r3, [r7, #12]
    41ba:	68fb      	ldr	r3, [r7, #12]
    41bc:	0018      	movs	r0, r3
    41be:	46bd      	mov	sp, r7
    41c0:	b004      	add	sp, #16
    41c2:	bd80      	pop	{r7, pc}

000041c4 <UART_WriteBlocking>:
    41c4:	b580      	push	{r7, lr}
    41c6:	b084      	sub	sp, #16
    41c8:	af00      	add	r7, sp, #0
    41ca:	60f8      	str	r0, [r7, #12]
    41cc:	60b9      	str	r1, [r7, #8]
    41ce:	607a      	str	r2, [r7, #4]
    41d0:	e00c      	b.n	41ec <UART_WriteBlocking+0x28>
    41d2:	46c0      	nop			; (mov r8, r8)
    41d4:	68fb      	ldr	r3, [r7, #12]
    41d6:	791b      	ldrb	r3, [r3, #4]
    41d8:	b2db      	uxtb	r3, r3
    41da:	b25b      	sxtb	r3, r3
    41dc:	2b00      	cmp	r3, #0
    41de:	daf9      	bge.n	41d4 <UART_WriteBlocking+0x10>
    41e0:	68bb      	ldr	r3, [r7, #8]
    41e2:	1c5a      	adds	r2, r3, #1
    41e4:	60ba      	str	r2, [r7, #8]
    41e6:	781a      	ldrb	r2, [r3, #0]
    41e8:	68fb      	ldr	r3, [r7, #12]
    41ea:	71da      	strb	r2, [r3, #7]
    41ec:	687b      	ldr	r3, [r7, #4]
    41ee:	1e5a      	subs	r2, r3, #1
    41f0:	607a      	str	r2, [r7, #4]
    41f2:	2b00      	cmp	r3, #0
    41f4:	d1ed      	bne.n	41d2 <UART_WriteBlocking+0xe>
    41f6:	46c0      	nop			; (mov r8, r8)
    41f8:	46c0      	nop			; (mov r8, r8)
    41fa:	46bd      	mov	sp, r7
    41fc:	b004      	add	sp, #16
    41fe:	bd80      	pop	{r7, pc}

00004200 <BOARD_InitBootClocks>:
    4200:	b580      	push	{r7, lr}
    4202:	af00      	add	r7, sp, #0
    4204:	f7fe f8b6 	bl	2374 <BOARD_BootClockRUN>
    4208:	46c0      	nop			; (mov r8, r8)
    420a:	46bd      	mov	sp, r7
    420c:	bd80      	pop	{r7, pc}

0000420e <BOARD_InitBootPeripherals>:
    420e:	b580      	push	{r7, lr}
    4210:	af00      	add	r7, sp, #0
    4212:	46c0      	nop			; (mov r8, r8)
    4214:	46bd      	mov	sp, r7
    4216:	bd80      	pop	{r7, pc}

00004218 <BOARD_InitBootPins>:
    4218:	b580      	push	{r7, lr}
    421a:	af00      	add	r7, sp, #0
    421c:	f7fe f916 	bl	244c <BOARD_InitPins>
    4220:	46c0      	nop			; (mov r8, r8)
    4222:	46bd      	mov	sp, r7
    4224:	bd80      	pop	{r7, pc}

00004226 <__main>:
    4226:	b510      	push	{r4, lr}
    4228:	f7fe fbac 	bl	2984 <_initio>
    422c:	f7fc faaa 	bl	784 <main>
    4230:	bd10      	pop	{r4, pc}

00004232 <memcpy>:
    4232:	b510      	push	{r4, lr}
    4234:	f000 f891 	bl	435a <__aeabi_memcpy>
    4238:	bd10      	pop	{r4, pc}

0000423a <memset>:
    423a:	b510      	push	{r4, lr}
    423c:	f000 f8a3 	bl	4386 <__aeabi_lowlevel_memset>
    4240:	bd10      	pop	{r4, pc}

00004242 <free>:
    4242:	b510      	push	{r4, lr}
    4244:	2800      	cmp	r0, #0
    4246:	d011      	beq.n	426c <free+0x2a>
    4248:	2180      	movs	r1, #128	; 0x80
    424a:	380c      	subs	r0, #12
    424c:	0549      	lsls	r1, r1, #21
    424e:	6001      	str	r1, [r0, #0]
    4250:	6882      	ldr	r2, [r0, #8]
    4252:	2a00      	cmp	r2, #0
    4254:	d00a      	beq.n	426c <free+0x2a>
    4256:	6813      	ldr	r3, [r2, #0]
    4258:	428b      	cmp	r3, r1
    425a:	d107      	bne.n	426c <free+0x2a>
    425c:	6843      	ldr	r3, [r0, #4]
    425e:	6854      	ldr	r4, [r2, #4]
    4260:	3303      	adds	r3, #3
    4262:	191b      	adds	r3, r3, r4
    4264:	6043      	str	r3, [r0, #4]
    4266:	6893      	ldr	r3, [r2, #8]
    4268:	6083      	str	r3, [r0, #8]
    426a:	e7f1      	b.n	4250 <free+0xe>
    426c:	bd10      	pop	{r4, pc}

0000426e <fputs>:
    426e:	b570      	push	{r4, r5, r6, lr}
    4270:	000c      	movs	r4, r1
    4272:	0005      	movs	r5, r0
    4274:	7828      	ldrb	r0, [r5, #0]
    4276:	2800      	cmp	r0, #0
    4278:	d00f      	beq.n	429a <fputs+0x2c>
    427a:	68a3      	ldr	r3, [r4, #8]
    427c:	3b01      	subs	r3, #1
    427e:	60a3      	str	r3, [r4, #8]
    4280:	2b00      	cmp	r3, #0
    4282:	db05      	blt.n	4290 <fputs+0x22>
    4284:	6823      	ldr	r3, [r4, #0]
    4286:	1c5a      	adds	r2, r3, #1
    4288:	6022      	str	r2, [r4, #0]
    428a:	7018      	strb	r0, [r3, #0]
    428c:	3501      	adds	r5, #1
    428e:	e7f1      	b.n	4274 <fputs+0x6>
    4290:	0021      	movs	r1, r4
    4292:	f7fe f959 	bl	2548 <__flsbuf>
    4296:	1c43      	adds	r3, r0, #1
    4298:	d1f8      	bne.n	428c <fputs+0x1e>
    429a:	bd70      	pop	{r4, r5, r6, pc}

0000429c <no_fp_display>:
    429c:	2000      	movs	r0, #0
    429e:	4770      	bx	lr

000042a0 <remove>:
    42a0:	b510      	push	{r4, lr}
    42a2:	0004      	movs	r4, r0
    42a4:	f7ff fb10 	bl	38c8 <strlen>
    42a8:	0001      	movs	r1, r0
    42aa:	0020      	movs	r0, r4
    42ac:	f000 f89a 	bl	43e4 <__sys_remove>
    42b0:	bd10      	pop	{r4, pc}

000042b2 <__aeabi_idiv>:
    42b2:	0003      	movs	r3, r0
    42b4:	430b      	orrs	r3, r1
    42b6:	d421      	bmi.n	42fc <idiv_negative>

000042b8 <__aeabi_uidiv>:
    42b8:	2900      	cmp	r1, #0
    42ba:	d031      	beq.n	4320 <idiv_divzero>
    42bc:	2201      	movs	r2, #1
    42be:	07d2      	lsls	r2, r2, #31
    42c0:	0903      	lsrs	r3, r0, #4
    42c2:	e001      	b.n	42c8 <div_search4a>

000042c4 <div_search4>:
    42c4:	0109      	lsls	r1, r1, #4
    42c6:	0912      	lsrs	r2, r2, #4

000042c8 <div_search4a>:
    42c8:	4299      	cmp	r1, r3
    42ca:	d9fb      	bls.n	42c4 <div_search4>
    42cc:	0843      	lsrs	r3, r0, #1
    42ce:	e001      	b.n	42d4 <div_search1a>

000042d0 <div_search1>:
    42d0:	0049      	lsls	r1, r1, #1
    42d2:	0852      	lsrs	r2, r2, #1

000042d4 <div_search1a>:
    42d4:	4299      	cmp	r1, r3
    42d6:	d9fb      	bls.n	42d0 <div_search1>
    42d8:	e000      	b.n	42dc <div_loop1a>

000042da <div_loop1>:
    42da:	0849      	lsrs	r1, r1, #1

000042dc <div_loop1a>:
    42dc:	1a40      	subs	r0, r0, r1
    42de:	d307      	bcc.n	42f0 <div1>

000042e0 <div2>:
    42e0:	4152      	adcs	r2, r2
    42e2:	d3fa      	bcc.n	42da <div_loop1>
    42e4:	4601      	mov	r1, r0
    42e6:	4610      	mov	r0, r2
    42e8:	4770      	bx	lr

000042ea <div_loop2>:
    42ea:	0849      	lsrs	r1, r1, #1
    42ec:	1840      	adds	r0, r0, r1
    42ee:	d2f7      	bcs.n	42e0 <div2>

000042f0 <div1>:
    42f0:	1892      	adds	r2, r2, r2
    42f2:	d3fa      	bcc.n	42ea <div_loop2>
    42f4:	1840      	adds	r0, r0, r1
    42f6:	4601      	mov	r1, r0
    42f8:	4610      	mov	r0, r2
    42fa:	4770      	bx	lr

000042fc <idiv_negative>:
    42fc:	0fcb      	lsrs	r3, r1, #31
    42fe:	d000      	beq.n	4302 <idiv_neg1>
    4300:	4249      	negs	r1, r1

00004302 <idiv_neg1>:
    4302:	1002      	asrs	r2, r0, #32
    4304:	d500      	bpl.n	4308 <idiv_neg2>
    4306:	4240      	negs	r0, r0

00004308 <idiv_neg2>:
    4308:	4053      	eors	r3, r2
    430a:	b508      	push	{r3, lr}
    430c:	f7ff ffd4 	bl	42b8 <__aeabi_uidiv>
    4310:	bc0c      	pop	{r2, r3}

00004312 <idiv_sign>:
    4312:	1052      	asrs	r2, r2, #1
    4314:	d300      	bcc.n	4318 <idiv_sign1>
    4316:	4240      	negs	r0, r0

00004318 <idiv_sign1>:
    4318:	2a00      	cmp	r2, #0
    431a:	d500      	bpl.n	431e <idiv_ret>
    431c:	4249      	negs	r1, r1

0000431e <idiv_ret>:
    431e:	4718      	bx	r3

00004320 <idiv_divzero>:
    4320:	46f4      	mov	ip, lr
    4322:	2000      	movs	r0, #0
    4324:	f000 f801 	bl	432a <__aeabi_idiv0>
    4328:	4760      	bx	ip

0000432a <__aeabi_idiv0>:
    432a:	4770      	bx	lr

0000432c <__aeabi_lmul>:
    432c:	b510      	push	{r4, lr}
    432e:	4343      	muls	r3, r0
    4330:	4351      	muls	r1, r2
    4332:	18c9      	adds	r1, r1, r3
    4334:	0c04      	lsrs	r4, r0, #16
    4336:	0c13      	lsrs	r3, r2, #16
    4338:	435c      	muls	r4, r3
    433a:	1909      	adds	r1, r1, r4
    433c:	b292      	uxth	r2, r2
    433e:	0c04      	lsrs	r4, r0, #16
    4340:	4354      	muls	r4, r2
    4342:	b280      	uxth	r0, r0
    4344:	4343      	muls	r3, r0
    4346:	4350      	muls	r0, r2
    4348:	0422      	lsls	r2, r4, #16
    434a:	0c24      	lsrs	r4, r4, #16
    434c:	1880      	adds	r0, r0, r2
    434e:	4161      	adcs	r1, r4
    4350:	041a      	lsls	r2, r3, #16
    4352:	0c1b      	lsrs	r3, r3, #16
    4354:	1880      	adds	r0, r0, r2
    4356:	4159      	adcs	r1, r3
    4358:	bd10      	pop	{r4, pc}

0000435a <__aeabi_memcpy>:
    435a:	4684      	mov	ip, r0
    435c:	0783      	lsls	r3, r0, #30
    435e:	d108      	bne.n	4372 <copy1_start>
    4360:	078b      	lsls	r3, r1, #30
    4362:	d106      	bne.n	4372 <copy1_start>
    4364:	1f13      	subs	r3, r2, #4
    4366:	d304      	bcc.n	4372 <copy1_start>

00004368 <copy4>:
    4368:	c904      	ldmia	r1!, {r2}
    436a:	c004      	stmia	r0!, {r2}
    436c:	3b04      	subs	r3, #4
    436e:	d2fb      	bcs.n	4368 <copy4>
    4370:	1d1a      	adds	r2, r3, #4

00004372 <copy1_start>:
    4372:	4252      	negs	r2, r2
    4374:	d005      	beq.n	4382 <copy1_ret>
    4376:	1a89      	subs	r1, r1, r2
    4378:	1a80      	subs	r0, r0, r2

0000437a <copy1>:
    437a:	5c8b      	ldrb	r3, [r1, r2]
    437c:	5483      	strb	r3, [r0, r2]
    437e:	3201      	adds	r2, #1
    4380:	d1fb      	bne.n	437a <copy1>

00004382 <copy1_ret>:
    4382:	4660      	mov	r0, ip
    4384:	4770      	bx	lr

00004386 <__aeabi_lowlevel_memset>:
    4386:	4684      	mov	ip, r0
    4388:	3a04      	subs	r2, #4
    438a:	d309      	bcc.n	43a0 <memset1>
    438c:	0783      	lsls	r3, r0, #30
    438e:	d107      	bne.n	43a0 <memset1>
    4390:	0609      	lsls	r1, r1, #24
    4392:	0a0b      	lsrs	r3, r1, #8
    4394:	4319      	orrs	r1, r3
    4396:	0c0b      	lsrs	r3, r1, #16
    4398:	4319      	orrs	r1, r3

0000439a <memset4>:
    439a:	3a04      	subs	r2, #4
    439c:	c002      	stmia	r0!, {r1}
    439e:	d2fc      	bcs.n	439a <memset4>

000043a0 <memset1>:
    43a0:	3204      	adds	r2, #4
    43a2:	d003      	beq.n	43ac <memset1_ret>

000043a4 <memset1a>:
    43a4:	7001      	strb	r1, [r0, #0]
    43a6:	3001      	adds	r0, #1
    43a8:	3a01      	subs	r2, #1
    43aa:	d1fb      	bne.n	43a4 <memset1a>

000043ac <memset1_ret>:
    43ac:	4660      	mov	r0, ip
    43ae:	4770      	bx	lr

000043b0 <__gnu_thumb1_case_shi>:
    43b0:	468c      	mov	ip, r1
    43b2:	1e41      	subs	r1, r0, #1
    43b4:	4471      	add	r1, lr
    43b6:	5e09      	ldrsh	r1, [r1, r0]
    43b8:	0049      	lsls	r1, r1, #1
    43ba:	448e      	add	lr, r1
    43bc:	4661      	mov	r1, ip
    43be:	4770      	bx	lr

000043c0 <__sys_close>:
    43c0:	b403      	push	{r0, r1}
    43c2:	4669      	mov	r1, sp
    43c4:	2002      	movs	r0, #2
    43c6:	beab      	bkpt	0x00ab
    43c8:	b002      	add	sp, #8
    43ca:	4770      	bx	lr

000043cc <__sys_flen>:
    43cc:	b403      	push	{r0, r1}
    43ce:	4669      	mov	r1, sp
    43d0:	200c      	movs	r0, #12
    43d2:	beab      	bkpt	0x00ab
    43d4:	b002      	add	sp, #8
    43d6:	4770      	bx	lr

000043d8 <__sys_istty>:
    43d8:	b403      	push	{r0, r1}
    43da:	4669      	mov	r1, sp
    43dc:	2009      	movs	r0, #9
    43de:	beab      	bkpt	0x00ab
    43e0:	b002      	add	sp, #8
    43e2:	4770      	bx	lr

000043e4 <__sys_remove>:
    43e4:	b403      	push	{r0, r1}
    43e6:	4669      	mov	r1, sp
    43e8:	200e      	movs	r0, #14
    43ea:	beab      	bkpt	0x00ab
    43ec:	b002      	add	sp, #8
    43ee:	4770      	bx	lr

000043f0 <__sys_seek>:
    43f0:	b403      	push	{r0, r1}
    43f2:	4669      	mov	r1, sp
    43f4:	200a      	movs	r0, #10
    43f6:	beab      	bkpt	0x00ab
    43f8:	b002      	add	sp, #8
    43fa:	4770      	bx	lr

000043fc <__sys_tmpnam>:
    43fc:	b40f      	push	{r0, r1, r2, r3}
    43fe:	4669      	mov	r1, sp
    4400:	200d      	movs	r0, #13
    4402:	beab      	bkpt	0x00ab
    4404:	b004      	add	sp, #16
    4406:	4770      	bx	lr
    4408:	6c756f42 	.word	0x6c756f42
    440c:	00726564 	.word	0x00726564
    4410:	66667542 	.word	0x66667542
    4414:	656f6c61 	.word	0x656f6c61
    4418:	00000073 	.word	0x00000073
    441c:	37373537 	.word	0x37373537
    4420:	46463542 	.word	0x46463542
    4424:	38353042 	.word	0x38353042
    4428:	44353931 	.word	0x44353931
    442c:	37393345 	.word	0x37393345
    4430:	33373738 	.word	0x33373738
    4434:	32373442 	.word	0x32373442
    4438:	44323945 	.word	0x44323945
    443c:	36313230 	.word	0x36313230
    4440:	45333738 	.word	0x45333738
    4444:	32413145 	.word	0x32413145
    4448:	31303731 	.word	0x31303731
    444c:	32433735 	.word	0x32433735
    4450:	45343530 	.word	0x45343530
    4454:	31344344 	.word	0x31344344
    4458:	44383545 	.word	0x44383545
    445c:	34394637 	.word	0x34394637
    4460:	30353039 	.word	0x30353039
    4464:	46333532 	.word	0x46333532
    4468:	31454338 	.word	0x31454338
    446c:	45353544 	.word	0x45353544
    4470:	36384236 	.word	0x36384236
    4474:	41323645 	.word	0x41323645
    4478:	46334445 	.word	0x46334445
    447c:	00000000 	.word	0x00000000
    4480:	6e69616d 	.word	0x6e69616d
    4484:	343a632e 	.word	0x343a632e
    4488:	203a2034 	.word	0x203a2034
    448c:	6c5f6b64 	.word	0x6c5f6b64
    4490:	3c206e65 	.word	0x3c206e65
    4494:	6973203d 	.word	0x6973203d
    4498:	666f657a 	.word	0x666f657a
    449c:	74636128 	.word	0x74636128
    44a0:	7365725f 	.word	0x7365725f
    44a4:	29746c75 	.word	0x29746c75
    44a8:	00000000 	.word	0x00000000
    44ac:	203a7325 	.word	0x203a7325
    44b0:	69207525 	.word	0x69207525
    44b4:	61726574 	.word	0x61726574
    44b8:	6e6f6974 	.word	0x6e6f6974
    44bc:	6f742073 	.word	0x6f742073
    44c0:	25206b6f 	.word	0x25206b6f
    44c4:	736d2075 	.word	0x736d2075
    44c8:	0a0d6365 	.word	0x0a0d6365
    44cc:	00000000 	.word	0x00000000
    44d0:	4c494146 	.word	0x4c494146
    44d4:	20455255 	.word	0x20455255
    44d8:	74206e6f 	.word	0x74206e6f
    44dc:	64656d69 	.word	0x64656d69
    44e0:	73657420 	.word	0x73657420
    44e4:	000a0d74 	.word	0x000a0d74
    44e8:	54534554 	.word	0x54534554
    44ec:	49414620 	.word	0x49414620
    44f0:	4552554c 	.word	0x4552554c
    44f4:	58452053 	.word	0x58452053
    44f8:	20545349 	.word	0x20545349
    44fc:	202e2e2e 	.word	0x202e2e2e
    4500:	74697865 	.word	0x74697865
    4504:	0d676e69 	.word	0x0d676e69
    4508:	ffff000a 	.word	0xffff000a
    450c:	6e6e7552 	.word	0x6e6e7552
    4510:	20676e69 	.word	0x20676e69
    4514:	696c6176 	.word	0x696c6176
    4518:	79746964 	.word	0x79746964
    451c:	73657420 	.word	0x73657420
    4520:	2e2e7374 	.word	0x2e2e7374
    4524:	000a0d2e 	.word	0x000a0d2e
    4528:	206c6c41 	.word	0x206c6c41
    452c:	74736574 	.word	0x74736574
    4530:	61702073 	.word	0x61702073
    4534:	64657373 	.word	0x64657373
    4538:	000a0d21 	.word	0x000a0d21
    453c:	6e6e7552 	.word	0x6e6e7552
    4540:	20676e69 	.word	0x20676e69
    4544:	696d6974 	.word	0x696d6974
    4548:	7420676e 	.word	0x7420676e
    454c:	2e747365 	.word	0x2e747365
    4550:	0a0d2e2e 	.word	0x0a0d2e2e
    4554:	ffffff00 	.word	0xffffff00

00004558 <__FUNCTION__.0>:
    4558:	656d6974 6b62705f 5f326664 63616d68     time_pbkdf2_hmac
    4568:	6873695f ffff0061 646b6270 632e3266     _isha...pbkdf2.c
    4578:	2032383a 6173203a 6c5f746c 2b206e65     :82 : salt_len +
    4588:	3c203420 6973203d 666f657a 6c617328      4 <= sizeof(sal
    4598:	756c7074 ff002973 646b6270 632e3266     tplus)..pbkdf2.c
    45a8:	3735313a 64203a20 6e654c6b 73203c20     :157 : dkLen < s
    45b8:	6f657a69 63612866 756d7563 6f74616c     izeof(accumulato
    45c8:	ff002972 00636261 38303343 43373530     r)..abc.C308057C
    45d8:	30383635 44463130 41394246 45323542     568001FDFB9AB52E
    45e8:	36324142 46453841 32383031 33304444     BA26A8EF1082DD03
    45f8:	00000000 64636261 65646362 66656463     ....abcdbcdecdef
    4608:	67666564 68676665 69686766 6a696867     defgefghfghighij
    4618:	6b6a6968 6c6b6a69 6d6c6b6a 6e6d6c6b     hijkijkljklmklmn
    4628:	6f6e6d6c 706f6e6d 71706f6e 00000000     lmnomnopnopq....
    4638:	32394531 31423637 39363336 36323238     1E9276B163698226
    4648:	32323836 34414436 38373037 45434532     68226DA470782ECE
    4658:	46353635 39373537 00000000 6f626f4e     565F7579....Nobo
    4668:	69207964 6570736e 20737463 20656874     dy inspects the 
    4678:	6d617073 6873696d 70657220 74697465     spammish repetit
    4688:	006e6f69 31444630 46303231 32453844     ion.0FD1120FD8E2
    4698:	30374535 30424245 36343830 36433039     5E70EBB0084690C6
    46a8:	37313834 46463942 45423144 00000000     4817B9FFD1BE....
    46b8:	20776f4e 20736968 6566696c 20736920     Now his life is 
    46c8:	6c6c7566 20666f20 646e6f77 422f7265     full of wonder/B
    46d8:	68207475 68207369 74726165 69747320     ut his heart sti
    46e8:	6b206c6c 73776f6e 6d6f7320 65662065     ll knows some fe
    46f8:	4f2f7261 20612066 706d6973 7420656c     ar/Of a simple t
    4708:	676e6968 6568202c 6e616320 20746f6e     hing, he cannot 
    4718:	706d6f63 65686572 572f646e 74207968     comprehend/Why t
    4728:	20796568 20797274 74206f74 20726165     hey try to tear 
    4738:	20656874 6e756f6d 6e696174 6f642073     the mountains do
    4748:	542f6e77 7262206f 20676e69 61206e69     wn/To bring in a
    4758:	756f6320 20656c70 65726f6d 726f4d2f      couple more/Mor
    4768:	65702065 656c706f 6f6d202c 73206572     e people, more s
    4778:	73726163 6f707520 6874206e 616c2065     cars upon the la
    4788:	0000646e 39333136 36333338 34433230     nd..6139833602C4
    4798:	33334535 46324130 38343546 30314336     5E330A2FF5486C10
    47a8:	46324642 38454232 30434146 00000000     BF2F2BE8FAC0....
    47b8:	6f6c6f43 6f646172 00000000 73696854     Colorado....This
    47c8:	20736920 65742061 00007473 32453844      is a test..D8E2
    47d8:	38363133 30454245 44353243 45354637     3168EBE0C25D7F5E
    47e8:	43463235 39433444 35424446 46313132     52FCD4C9FDB5211F
    47f8:	39433646 00000000 6566654a 00000000     F6C9....Jefe....
    4808:	74616877 206f6420 77206179 20746e61     what do ya want 
    4818:	20726f66 68746f6e 003f6e69 44353744     for nothin?.D75D
    4828:	43303935 30424444 39343230 31334546     590CDDB00249FE31
    4838:	35414433 30323131 35413337 45394246     3DA5112073A5FB9E
    4848:	32393635 00000000 20434652 34303132     5692....RFC 2104
    4858:	00000000 43414d48 654b203a 2d646579     ....HMAC: Keyed-
    4868:	68736148 20676e69 20726f66 7373654d     Hashing for Mess
    4878:	20656761 68747541 69746e65 69746163     age Authenticati
    4888:	00006e6f 43313641 33334130 34363246     on..A61C0A33F264
    4898:	44353236 35353231 45343636 30363946     625D1255664EF960
    48a8:	34353245 45334430 43314438 00000000     E2540D3E8D1C....
    48b8:	73736170 64726f77 00000000 6173796d     password....mysa
    48c8:	0000746c 44364230 43454135 30424134     lt..0B6D5AEC4AB0
    48d8:	32454231 42364230 35343937 30373544     1BE20B6B7945D570
    48e8:	45424242 42304237 39333641 00000000     BBBE7B0BA639....
    48f8:	44364230 43454135 30424134 32454231     0B6D5AEC4AB01BE2
    4908:	42364230 35343937 30373544 45424242     0B6B7945D570BBBE
    4918:	42304237 39333641 00003831 44364230     7B0BA63918..0B6D
    4928:	43454135 30424134 32454231 42364230     5AEC4AB01BE20B6B
    4938:	35343937 30373544 45424242 42304237     7945D570BBBE7B0B
    4948:	39333641 39453831 38313046 30303934     A63918E9F0184900
    4958:	36423434 37423043 37313143 00000000     44B6C0B7C117....
    4968:	44364230 43454135 30424134 32454231     0B6D5AEC4AB01BE2
    4978:	42364230 35343937 30373544 45424242     0B6B7945D570BBBE
    4988:	42304237 39333641 39453831 38313046     7B0BA63918E9F018
    4998:	30303934 36423434 37423043 37313143     490044B6C0B7C117
    49a8:	44353831 43384633 33343432 43374539     185D3F8C24439E7C
    49b8:	43313745 33314539 38324635 43414435     E71C9E135F285DAC
    49c8:	33323236 44343444 41333542 38433245     6223D44DB53AE2C8
    49d8:	31383233 44383843 42463041 45423545     3281C88DA0FBE5BE
    49e8:	00000000 44364230 43454135 30424134     ....0B6D5AEC4AB0
    49f8:	32454231 42364230 35343937 30373544     1BE20B6B7945D570
    4a08:	45424242 42304237 39333641 39453831     BBBE7B0BA63918E9
    4a18:	38313046 30303934 36423434 37423043     F018490044B6C0B7
    4a28:	37313143 44353831 43384633 33343432     C117185D3F8C2443
    4a38:	43374539 43313745 33314539 38324635     9E7CE71C9E135F28
    4a48:	43414435 33323236 44343444 41333542     5DAC6223D44DB53A
    4a58:	38433245 31383233 44383843 42463041     E2C83281C88DA0FB
    4a68:	45423545 35364631 36343631 38333644     E5BE1F651646D638
    4a78:	31343134 45324430 45354444 43343343     41410D2EDD5EC34C
    4a88:	42394243 32453542 38323245 32304333     CB9BB5E2E2283C02
    4a98:	32434535 33393238 43434632 34354435     5EC282932FCC5D54
    4aa8:	36434542 39393337 31464330 45464242     BEC673990CF1BBFE
    4ab8:	44393537 37443130 46384241 37444238     759D01D7AB8F8BD7
    4ac8:	41314245 45414443 37323335 32433938     EB1ACDAE532789C2
    4ad8:	44323032 33433530 45333242 35394533     202D05C3B23E3E95
    4ae8:	42303639 42333245 42333130 37383634     960BE23B013B4687
    4af8:	46353543 36343336 43454139 34453845     C55F63469AECE8E4
    4b08:	35333632 30344135 43443642 38444535     26355A40B6DC5ED8
    4b18:	38444231 43373346 37384439 39373931     1BD8F37C9D871979
    4b28:	38343933 32424434 42443742 39364138     39484DB2B7DB8A69
    4b38:	45463841 44383135 33443041 46454545     A8FE518DA0D3EEEF
    4b48:	45304444 33443537 38463244 32353546     DD0E75D3D2F8F552
    4b58:	46354535 43343646 46373731 32393146     5E5FF64C177FF192
    4b68:	44433432 35384332 39353537 32414539     24CD2C8575599EA2
    4b78:	45324632 00000000 45423630 41363341     2F2E....06BEA36A
    4b88:	31433030 36333144 32363546 36434144     00C1D136F562DAC6
    4b98:	41324437 38333543 42303145 42453832     7D2AC538E10B28EB
    4ba8:	00000000 45423630 41363341 31433030     ....06BEA36A00C1
    4bb8:	36333144 32363546 36434144 41324437     D136F562DAC67D2A
    4bc8:	38333543 42303145 42453832 45454232     C538E10B28EB2BEE
    4bd8:	43454643 30363742 38434146 39453535     CFECB760FAC855E9
    4be8:	44453141 35423731 35373544 35333833     A1ED17B5D5753835
    4bf8:	37383936 36423436 41433330 44324135     698764B603CA5A2D
    4c08:	34394232 30433946 33313836 39464341     2B94F9C06813ACF9
    4c18:	35414642 43324532 43313835 33374643     BFA52E2C581CCF73
    4c28:	32344532 00000000 42383345 37453432     2E42....E38B24E7
    4c38:	30374236 39443535 31303644 44304342     6B7055D9D601BC0D
    4c48:	41423331 41324643 36373642 46363131     13BACF2AB676116F
    4c58:	00000000 37424536 36344445 33343633     ....6EB7ED463643
    4c68:	42414130 37333533 45324346 35394642     0AAB3537FC2EBF95
    4c78:	37444646 31453937 30304330 00000000     FFD779E10C00....
    4c88:	37424536 36344445 33343633 42414130     6EB7ED4636430AAB
    4c98:	37333533 45324346 35394642 37444646     3537FC2EBF95FFD7
    4ca8:	31453937 30304330 31313131 38323133     79E10C0011113128
    4cb8:	33313437 32303535 39323945 35423531     74135502E92915B5
    4cc8:	33443130 32343046 43383338 31334445     01D3F042838CED31
    4cd8:	37464146 36464136 31433236 42463644     FAF76AF662C1D6FB
    4ce8:	42413132 31303932 46424644 41423741     21AB2901DFBFA7BA
    4cf8:	31344332 31433839 34344134 32303541     2C4198C14A44A502
    4d08:	00000000 44344144 32463839 37343143     ....DA4D98F2C147
    4d18:	35313439 42353632 37444342 44374537     9415265BBCD77E7D
    4d28:	41333045 30413234 43373431 36363236     E03A42A0147C6266
    4d38:	46344431 42303441 45343534 32443230     1D4FA40B454E02D2
    4d48:	42313139 43313642 31383742 42393734     911BB61CB781479B
    4d58:	30343941 35443744 44343135 38414239     A940D7D5514D9BA8
    4d68:	43413632 41423933 46344241 42344242     26AC39BAAB4FBB4B
    4d78:	31434630 30333530 32463337 43413942     0FC1053073F2B9AC
    4d88:	36364131 ffffff00 646b6270 745f3266     1A66....pbkdf2_t
    4d98:	2e747365 37343a63 30203a20 ffffff00     est.c:47 : 0....
    4da8:	74207325 20747365 203a6425 63637573     %s test %d: succ
    4db8:	0d737365 0000000a 74207325 20747365     ess.....%s test 
    4dc8:	203a6425 4c494146 0d455255 ffff000a     %d: FAILURE.....
    4dd8:	000045cc 000045d0 000045fc 00004638     .E...E...E..8F..
    4de8:	00004664 0000468c 000046b8 0000478c     dF...F...F...G..
    4df8:	000047b8 000047c4 000047d4 00004800     .G...G...G...H..
    4e08:	00004808 00004824 00004850 0000485c     .H..$H..PH..\H..
    4e18:	0000488c 000048b8 000048c4 00000001     .H...H...H......
    4e28:	00000014 000048cc 000048b8 000048c4     .....H...H...H..
    4e38:	00000001 00000015 000048f8 000048b8     .........H...H..
    4e48:	000048c4 00000001 00000020 00004924     .H...... ...$I..
    4e58:	000048b8 000048c4 00000001 00000040     .H...H......@...
    4e68:	00004968 000048b8 000048c4 00000001     hI...H...H......
    4e78:	000000c8 000049ec 000048b8 000048c4     .....I...H...H..
    4e88:	00000002 00000014 00004b80 000048b8     .........K...H..
    4e98:	000048c4 00000002 00000040 00004bac     .H......@....K..
    4ea8:	000048b8 000048c4 00000003 00000014     .H...H..........
    4eb8:	00004c30 000048b8 000048c4 00000064     0L...H...H..d...
    4ec8:	00000014 00004c5c 000048b8 000048c4     ....\L...H...H..
    4ed8:	00000064 00000040 00004c88 00004408     d...@....L...D..
    4ee8:	00004410 00000064 00000040 00004d0c     .D..d...@....M..
    4ef8:	646b6270 745f3266 2e747365 32323a63     pbkdf2_test.c:22
    4f08:	203a2036 74736574 5d695b73 5f6b642e     6 : tests[i].dk_
    4f18:	206e656c 73203d3c 6f657a69 78652866     len <= sizeof(ex
    4f28:	65725f70 746c7573 ffff0029              p_result)...

00004f34 <__FUNCTION__.2>:
    4f34:	74736574 6873695f ffff0061              test_isha...

00004f40 <__FUNCTION__.1>:
    4f40:	74736574 616d685f 73695f63 ff006168     test_hmac_isha..

00004f50 <__FUNCTION__.0>:
    4f50:	74736574 6b62705f 5f326664 63616d68     test_pbkdf2_hmac
    4f60:	6873695f ffff0061 5f6c7366 636f6c63     _isha...fsl_cloc
    4f70:	3a632e6b 20353232 5f67203a 6c617478     k.c:225 : g_xtal
    4f80:	65724630 ffff0071 5f6c7366 636f6c63     0Freq...fsl_cloc
    4f90:	3a632e6b 20373935 636d203a 6c6c7067     k.c:597 : mcgpll
    4fa0:	6b6c6330 ffffff00 5f6c7366 636f6c63     0clk....fsl_cloc
    4fb0:	3a632e6b 20303637 6f63203a 6769666e     k.c:760 : config
    4fc0:	ffffff00 5f6c7366 636f6c63 3a632e6b     ....fsl_clock.c:
    4fd0:	30383331 63203a20 69666e6f ffff0067     1380 : config...
    4fe0:	5f6c7366 636f6c63 3a632e6b 39343531     fsl_clock.c:1549
    4ff0:	63203a20 69666e6f ffff0067               : config...

00004ffc <fllFactorTable.1>:
    4ffc:	02dc0280 05b80500 08950780 0b710a00     ..............q.
    500c:	5f6c7366 6373706c 3a632e69 20343431     fsl_lpsci.c:144 
    501c:	6e69203a 6e617473 3c206563 52524120     : instance < ARR
    502c:	535f5941 28455a49 706c5f73 42696373     AY_SIZE(s_lpsciB
    503c:	73657361 ffff0029 5f6c7366 6373706c     ases)...fsl_lpsc
    504c:	3a632e69 20353132 6f63203a 6769666e     i.c:215 : config
    505c:	00000000 5f6c7366 6373706c 3a632e69     ....fsl_lpsci.c:
    506c:	20363132 6f63203a 6769666e 61623e2d     216 : config->ba
    507c:	61526475 425f6574 ff007370 5f6c7366     udRate_Bps..fsl_
    508c:	6373706c 3a632e69 20313433 6f63203a     lpsci.c:341 : co
    509c:	6769666e ffffff00 5f6c7366 6373706c     nfig....fsl_lpsc
    50ac:	3a632e69 20313235 6164203a ff006174     i.c:521 : data..
    50bc:	5f6c7366 6373706c 3a632e69 20363335     fsl_lpsci.c:536 
    50cc:	6164203a ff006174                       : data..

000050d4 <s_uartBases>:
    50d4:	00000000 4006b000 4006c000              .......@...@

000050e0 <s_uartClock>:
    50e0:	00000000 1034000b 1034000c 5f6c7366     ......4...4.fsl_
    50f0:	74726175 313a632e 3a203936 736e6920     uart.c:169 : ins
    5100:	636e6174 203c2065 74726175 61727241     tance < uartArra
    5110:	756f4379 ff00746e 5f6c7366 74726175     yCount..fsl_uart
    5120:	323a632e 3a203231 6e6f6320 00676966     .c:212 : config.
    5130:	5f6c7366 74726175 323a632e 3a203331     fsl_uart.c:213 :
    5140:	6e6f6320 2d676966 7561623e 74615264      config->baudRat
    5150:	70425f65 ffff0073 5f6c7366 74726175     e_Bps...fsl_uart
    5160:	333a632e 3a203934 6e6f6320 00676966     .c:349 : config.
    5170:	5f6c7366 74726175 353a632e 3a203237     fsl_uart.c:572 :
    5180:	74616420 ffff0061                        data...

00005188 <mcgConfig_BOARD_BootClockRUN>:
    5188:	00000207 00000000 ffff0001              ............

00005194 <simConfig_BOARD_BootClockRUN>:
    5194:	00000301 10010000                       ........

0000519c <oscConfig_BOARD_BootClockRUN>:
    519c:	007a1200 00800400                       ..z.....

000051a4 <__num_Ciob_streams>:
    51a4:	00000003 202a2a2a 65737361 66207472     ....*** assert f
    51b4:	656c6961 203a2064 2a2a2a00 73435f20     ailed : .*** _Cs
    51c4:	615f7379 636f6c6c 69616620 0a64656c     ys_alloc failed.
    51d4:	77007200 756e2800 00296c6c 30005830     .r.w.(null).0X.0
    51e4:	00300078 002b002d 33323130 37363534     x.0.-.+.01234567
    51f4:	42413938 46454443 32313000 36353433     89ABCDEF.0123456
    5204:	61393837 65646362 ffff0066              789abcdef...
