
C:\Users\itssh\Documents\MCUXpressoIDE_11.6.0_8187\workspace\PBKDF2\PBK\Release\PBK.axf:     file format elf32-littlearm
C:\Users\itssh\Documents\MCUXpressoIDE_11.6.0_8187\workspace\PBKDF2\PBK\Release\PBK.axf
architecture: armv6s-m, flags 0x00000112:
EXEC_P, HAS_SYMS, D_PAGED
start address 0x000000d5

Program Header:
    LOAD off    0x00010000 vaddr 0x00000000 paddr 0x00000000 align 2**16
         filesz 0x00003754 memsz 0x00003754 flags r-x
    LOAD off    0x0001f080 vaddr 0x1ffff080 paddr 0x00003754 align 2**16
         filesz 0x00000008 memsz 0x00000008 flags rw-
    LOAD off    0x0000f000 vaddr 0x1ffff000 paddr 0x1ffff000 align 2**16
         filesz 0x00000000 memsz 0x00001c04 flags rw-
private flags = 0x5000200: [Version5 EABI] [soft-float ABI]

Sections:
Idx Name          Size      VMA       LMA       File off  Algn
  0 .text         00003754  00000000  00000000  00010000  2**2
                  CONTENTS, ALLOC, LOAD, READONLY, CODE
  1 .data         00000008  1ffff080  00003754  0001f080  2**2
                  CONTENTS, ALLOC, LOAD, DATA
  2 .bss          0000137c  1ffff088  1ffff088  0002f000  2**2
                  ALLOC
  3 .mtb_buffer_default 00000080  1ffff000  1ffff000  0002f000  2**7
                  ALLOC
  4 .uninit_RESERVED 00000000  1ffff080  1ffff080  0001f088  2**2
                  CONTENTS
  5 .noinit       00000000  20000404  20000404  00000000  2**2
                  ALLOC
  6 .heap         00000400  20000404  20000404  0002f000  2**2
                  ALLOC
  7 .heap2stackfill 00000400  20000804  20000804  0002f000  2**0
                  ALLOC
  8 .stack        00000000  20002c00  20002c00  0001f088  2**2
                  CONTENTS
  9 .debug_info   00009f82  00000000  00000000  0001f088  2**0
                  CONTENTS, READONLY, DEBUGGING, OCTETS
 10 .debug_abbrev 0000219f  00000000  00000000  0002900a  2**0
                  CONTENTS, READONLY, DEBUGGING, OCTETS
 11 .debug_loc    00004b05  00000000  00000000  0002b1a9  2**0
                  CONTENTS, READONLY, DEBUGGING, OCTETS
 12 .debug_aranges 000006e8  00000000  00000000  0002fcae  2**0
                  CONTENTS, READONLY, DEBUGGING, OCTETS
 13 .debug_ranges 00000988  00000000  00000000  00030396  2**0
                  CONTENTS, READONLY, DEBUGGING, OCTETS
 14 .debug_line   00005da4  00000000  00000000  00030d1e  2**0
                  CONTENTS, READONLY, DEBUGGING, OCTETS
 15 .debug_str    00003afc  00000000  00000000  00036ac2  2**0
                  CONTENTS, READONLY, DEBUGGING, OCTETS
 16 .comment      00000049  00000000  00000000  0003a5be  2**0
                  CONTENTS, READONLY
 17 .ARM.attributes 0000002a  00000000  00000000  0003a607  2**0
                  CONTENTS, READONLY
 18 .debug_frame  000010fc  00000000  00000000  0003a634  2**2
                  CONTENTS, READONLY, DEBUGGING, OCTETS
SYMBOL TABLE:
00000000 l    d  .text	00000000 .text
1ffff080 l    d  .data	00000000 .data
1ffff088 l    d  .bss	00000000 .bss
1ffff000 l    d  .mtb_buffer_default	00000000 .mtb_buffer_default
1ffff080 l    d  .uninit_RESERVED	00000000 .uninit_RESERVED
20000404 l    d  .noinit	00000000 .noinit
20000404 l    d  .heap	00000000 .heap
20000804 l    d  .heap2stackfill	00000000 .heap2stackfill
20002c00 l    d  .stack	00000000 .stack
00000000 l    d  .debug_info	00000000 .debug_info
00000000 l    d  .debug_abbrev	00000000 .debug_abbrev
00000000 l    d  .debug_loc	00000000 .debug_loc
00000000 l    d  .debug_aranges	00000000 .debug_aranges
00000000 l    d  .debug_ranges	00000000 .debug_ranges
00000000 l    d  .debug_line	00000000 .debug_line
00000000 l    d  .debug_str	00000000 .debug_str
00000000 l    d  .comment	00000000 .comment
00000000 l    d  .ARM.attributes	00000000 .ARM.attributes
00000000 l    d  .debug_frame	00000000 .debug_frame
00000000 l    df *ABS*	00000000 startup_mkl25z4.c
00000000 l    df *ABS*	00000000 fsl_debug_console.c
1ffff088 l     O .bss	00000010 s_debugConsole
00000000 l    df *ABS*	00000000 isha.c
000027e4 l     F .text	0000009e ISHAProcessMessageBlock
00000000 l    df *ABS*	00000000 main.c
00000508 l     F .text	0000009c time_pbkdf2_hmac_isha
00002f0b l     O .text	00000016 __FUNCTION__.0
00000000 l    df *ABS*	00000000 pbkdf2.c
1ffff204 l     O .bss	00000a00 accumulator.1
1ffffc04 l     O .bss	00000800 saltplus.0
00000000 l    df *ABS*	00000000 pbkdf2_test.c
00002a34 l     F .text	0000001e hexdigit_to_int
000036ca l     O .text	00000016 __FUNCTION__.0
000036e0 l     O .text	0000000f __FUNCTION__.1
000036ef l     O .text	0000000a __FUNCTION__.2
00000000 l    df *ABS*	00000000 semihost_hardfault.c
000009fa l       .text	00000000 _MSP
000009fe l       .text	00000000 _process
00000a0a l       .text	00000000 _semihost_return
00000000 l    df *ABS*	00000000 ticktime.c
1ffff098 l     O .bss	00000004 g_now
1ffff09c l     O .bss	00000004 g_timer
00000000 l    df *ABS*	00000000 fsl_clock.c
00000aac l     F .text	0000004c CLOCK_GetFllRefClkFreq
1ffff080 l     O .data	00000004 s_slowIrcFreq
00002de4 l     O .text	00000010 fllFactorTable.1
00000000 l    df *ABS*	00000000 fsl_lpsci.c
1ffff0a4 l     O .bss	00000004 s_lpsciHandle
1ffff0a8 l     O .bss	00000004 s_lpsciIsr
00000000 l    df *ABS*	00000000 fsl_uart.c
1ffff0ac l     O .bss	0000000c s_uartHandle
1ffff0b8 l     O .bss	00000004 s_uartIsr
00002dc4 l     O .text	0000000c s_uartClock
00000000 l    df *ABS*	00000000 board.c
00000000 l    df *ABS*	00000000 clock_config.c
00000000 l    df *ABS*	00000000 pin_mux.c
00000000 l    df *ABS*	00000000 system_MKL25Z4.c
00000000 l    df *ABS*	00000000 initio.c
00000000 l    df *ABS*	00000000 printf.c
00002b0c l     F .text	00000004 no_fp_display
00000000 l    df *ABS*	00000000 setvbuf.c
00000000 l    df *ABS*	00000000 stdlib.c
00000000 l    df *ABS*	00000000 strlen.c
00000000 l    df *ABS*	00000000 _deferredlazyseek.c
00000000 l    df *ABS*	00000000 _fdopen.c
00000000 l    df *ABS*	00000000 _fflush.c
00000000 l    df *ABS*	00000000 _writebuf.c
00000000 l    df *ABS*	00000000 alloc.c
00000000 l    df *ABS*	00000000 fclose.c
00000000 l    df *ABS*	00000000 fflush.c
00000000 l    df *ABS*	00000000 fseek.c
00000000 l    df *ABS*	00000000 ftell.c
00000000 l    df *ABS*	00000000 _cr_sbrk.c
00000000 l    df *ABS*	00000000 _do_fflush.c
00000000 l    df *ABS*	00000000 _cr_check_heap.c
00000000 l    df *ABS*	00000000 __sys_appexit.o
00000000 l    df *ABS*	00000000 peripherals.c
00000000 l    df *ABS*	00000000 _cr__main.c
00000000 l    df *ABS*	00000000 memcpy.c
00000000 l    df *ABS*	00000000 memset.c
00000000 l    df *ABS*	00000000 remove.c
00000000 l    df *ABS*	00000000 division_32.o
00002b98 l       .text	00000000 idiv_negative
00002bbc l       .text	00000000 idiv_divzero
00002b64 l       .text	00000000 div_search4a
00002b60 l       .text	00000000 div_search4
00002b70 l       .text	00000000 div_search1a
00002b6c l       .text	00000000 div_search1
00002b78 l       .text	00000000 div_loop1a
00002b76 l       .text	00000000 div_loop1
00002b8c l       .text	00000000 div1
00002b7c l       .text	00000000 div2
00002b86 l       .text	00000000 div_loop2
00002b9e l       .text	00000000 idiv_neg1
00002ba4 l       .text	00000000 idiv_neg2
00002bae l       .text	00000000 idiv_sign
00002bb4 l       .text	00000000 idiv_sign1
00002bba l       .text	00000000 idiv_ret
00000000 l    df *ABS*	00000000 division_idiv0.o
00000000 l    df *ABS*	00000000 llong.o
00000000 l    df *ABS*	00000000 memcpy.o
00002c0e l       .text	00000000 copy1_start
00002c04 l       .text	00000000 copy4
00002c1e l       .text	00000000 copy1_ret
00002c16 l       .text	00000000 copy1
00002c3c l       .text	00000000 memset1
00002c36 l       .text	00000000 memset4
00002c48 l       .text	00000000 memset1_ret
00002c40 l       .text	00000000 memset1a
00000000 l    df *ABS*	00000000 thumb1_switch_helpers.o
00000000 l    df *ABS*	00000000 __sys_close.o
00000000 l    df *ABS*	00000000 __sys_flen.o
00000000 l    df *ABS*	00000000 __sys_istty.o
00000000 l    df *ABS*	00000000 __sys_remove.o
00000000 l    df *ABS*	00000000 __sys_seek.o
00000000 l    df *ABS*	00000000 __sys_tmpnam.o
00000000 l    df *ABS*	00000000 __ciob.c
00000000 l    df *ABS*	00000000 mtb.c
00002af0 g     F .text	0000000c __main
00000400 g       .text	00000000 __FLASH_CONFIG_START__
00000000 g     O .text	000000c0 __Vectors
000021a4 g     F .text	00000040 _deferredlazyseek
00000122  w    F .text	00000002 PIT_DriverIRQHandler
00000122  w    F .text	00000002 Reserved39_DriverIRQHandler
00002aa2 g     F .text	00000018 LPSCI_WriteBlocking
000000c0 g       .text	00000000 __section_table_start
000027d8 g     F .text	00000000 __exit
00000164  w    F .text	00000008 I2C0_IRQHandler
00002c98 g     F .text	00000000 __sys_tmpnam
000008ac g     F .text	0000009c test_hmac_isha
00000122  w    F .text	00000002 DMA0_DriverIRQHandler
0000110c g     F .text	00000038 BOARD_InitDebugConsole
000009ec g     F .text	00000028 HardFault_Handler
00000122  w    F .text	00000002 SPI1_DriverIRQHandler
00000000 g       *ABS*	00000000 __vectors_start__
00000400 g       *ABS*	00000000 _HeapSize
00000122  w    F .text	00000002 LPTMR0_DriverIRQHandler
00000a74 g     F .text	00000010 SysTick_Handler
00002014 g     F .text	00000070 _vsnprintf
00000d5c g     F .text	0000012c LPSCI_Init
0000060c g     F .text	00000194 pbkdf2_hmac_isha
0000011e  w    F .text	00000002 PendSV_Handler
00000118  w    F .text	00000002 NMI_Handler
0000375c g       .noinit	00000000 __exidx_end
000000cc g       .text	00000000 __data_section_table_end
0000016c  w    F .text	00000008 I2C1_IRQHandler
0000018c  w    F .text	00000008 UART1_IRQHandler
000021e4 g     F .text	00000150 __flsbuf
00000134  w    F .text	00000008 DMA2_IRQHandler
00000122  w    F .text	00000002 TPM2_DriverIRQHandler
20003000 g       *ABS*	00000000 __top_SRAM
000001ac  w    F .text	00000008 TPM0_IRQHandler
1ffff14c g     O .bss	00000004 errno
00003754 g       .text	00000000 _etext
00000a84 g     F .text	00000014 reset_timer
00000f90 g     F .text	000000e4 UART_Init
0000015c  w    F .text	00000008 LLWU_IRQHandler
00000122  w    F .text	00000002 TSI0_DriverIRQHandler
00002954 g     F .text	00000048 ISHAInput
00000122  w    F .text	00000002 RTC_Seconds_DriverIRQHandler
000001f4  w    F .text	00000008 TSI0_IRQHandler
00002af0  w    F .text	0000000c __CR_SEMIHOST
00000400 g       *ABS*	00000000 _StackSize
00000184  w    F .text	00000008 UART0_IRQHandler
00002ade g     F .text	00000008 BOARD_InitBootClocks
0000023a g     F .text	00000014 bss_init
00000122  w    F .text	00000002 LLWU_DriverIRQHandler
00002afc g     F .text	00000008 memcpy
000020d4 g     F .text	0000004c setvbuf
00002a96 g     F .text	0000000c LPSCI_GetDefaultConfig
20000404 g       .noinit	00000000 _noinit
00000122  w    F .text	00000002 MCG_DriverIRQHandler
1ffff084 g     O .data	00000004 SystemCoreClock
00020000 g       *ABS*	00000000 __top_PROGRAM_FLASH
0000019c  w    F .text	00000008 ADC0_IRQHandler
00002470 g     F .text	000000cc malloc
00002b3c g     F .text	00000012 remove
000001dc  w    F .text	00000008 Reserved39_IRQHandler
20003000 g       *ABS*	00000000 __top_RAM
000007a0 g     F .text	0000010c test_isha
00002bf6 g     F .text	0000002c __aeabi_memcpy
000010d4 g     F .text	0000001c UART1_DriverIRQHandler
00002c68 g     F .text	00000000 __sys_flen
0000017c  w    F .text	00000008 SPI1_IRQHandler
00000122  w    F .text	00000002 FTFA_DriverIRQHandler
00000122  w    F .text	00000002 IntDefaultHandler
00000122  w    F .text	00000002 USB0_DriverIRQHandler
20000804 g       .heap	00000000 _pvHeapLimit
000025b8 g     F .text	00000044 fflush
00000122  w    F .text	00000002 DAC0_DriverIRQHandler
0000021c  w    F .text	00000008 PORTD_IRQHandler
0000375c g       .noinit	00000000 __exidx_start
00002bf6 g     F .text	0000002c __aeabi_memcpy4
00002bc8 g     F .text	0000002e __aeabi_lmul
00002334 g     F .text	00000074 _fdopen
00002c22 g     F .text	0000002a __aeabi_lowlevel_memset
1ffff000 g       *ABS*	00000000 __base_SRAM
00002734 g     F .text	00000044 _sbrk
00000122  w    F .text	00000002 LVD_LVW_DriverIRQHandler
00000a98 g     F .text	00000014 get_timer
00000122  w    F .text	00000002 TPM0_DriverIRQHandler
000001bc  w    F .text	00000008 TPM2_IRQHandler
00000d34 g     F .text	00000028 CLOCK_BootToPeeMode
000000c0 g       .text	00000000 __data_section_table
00002de0 g     O .text	00000004 __num_Ciob_streams
00000410 g       .text	00000000 __FLASH_CONFIG_END__
000001c4  w    F .text	00000008 RTC_IRQHandler
20000404 g       .bss	00000000 _ebss
00002882 g     F .text	000000d2 ISHAResult
0000375c g       *ABS*	00000000 _image_size
000012d4 g     F .text	00000d40 __vfprintf
00000122  w    F .text	00000002 Reserved20_DriverIRQHandler
00000122  w    F .text	00000002 DMA3_DriverIRQHandler
00000ce4 g     F .text	00000050 CLOCK_SetPbeMode
1ffff0bc g     O .bss	00000084 _exitvector
00000224 g     F .text	00000016 data_init
00002bf6 g     F .text	0000002c __aeabi_memcpy8
00001284 g     F .text	00000050 _terminateio
000001cc  w    F .text	00000008 RTC_Seconds_IRQHandler
00000122  w    F .text	00000002 Reserved45_DriverIRQHandler
00002b4e g     F .text	00000006 __aeabi_idiv
00001144 g     F .text	00000070 BOARD_BootClockRUN
000001fc  w    F .text	00000008 MCG_IRQHandler
00000194  w    F .text	00000008 UART2_IRQHandler
000025fc g     F .text	000000f0 fseek
00000bb4 g     F .text	00000024 CLOCK_GetPllFllSelClkFreq
00000000 g       *ABS*	00000000 __base_Flash
000011b4 g     F .text	00000044 BOARD_InitPins
000023a8 g     F .text	00000060 _fflush
00000144  w    F .text	00000008 Reserved20_IRQHandler
00002c4c g     F .text	00000010 __gnu_thumb1_case_shi
00000edc g     F .text	00000078 LPSCI_ReadBlocking
00002aba g     F .text	0000000c UART_GetDefaultConfig
1ffff088 g       .bss	00000000 _bss
00000f70 g     F .text	00000020 UART_GetInstance
00002dd0 g     O .text	00000008 oscConfig_BOARD_BootClockRUN
00000122  w    F .text	00000002 PORTA_DriverIRQHandler
00000122  w    F .text	00000002 TPM1_DriverIRQHandler
00000948 g     F .text	000000a4 test_pbkdf2_hmac_isha
00000e88 g     F .text	00000054 LPSCI_ClearStatusFlags
00000000 g       *ABS*	00000000 _image_start
00020000 g       *ABS*	00000000 __top_Flash
20000404 g       .noinit	00000000 _end_noinit
20003000 g       .stack	00000000 _vStackTop
000000d4 g       .text	00000000 __bss_section_table_end
000027c0 g     F .text	00000018 __check_heap_overflow
00000122  w    F .text	00000002 RTC_DriverIRQHandler
00000000 g       *ABS*	00000000 __base_PROGRAM_FLASH
000001e4  w    F .text	00000008 USB0_IRQHandler
00000c4c g     F .text	00000030 CLOCK_EnablePll0
000004ac  w    F .text	00000028 __sys_write
00002b04 g     F .text	00000008 memset
000005a4 g     F .text	00000068 main
00002778 g     F .text	00000048 _do_fflush
000026ec g     F .text	00000048 ftell
000001d4  w    F .text	00000008 PIT_IRQHandler
00002b54 g     F .text	00000072 __aeabi_uidiv
0000011c  w    F .text	00000002 SVC_Handler
0000255c g     F .text	0000005c fclose
00000b80 g     F .text	00000034 CLOCK_GetPll0Freq
00002ae8 g     F .text	00000008 BOARD_InitBootPins
000010f0 g     F .text	0000001c UART2_DriverIRQHandler
00002c8c g     F .text	00000000 __sys_seek
00000c7c g     F .text	00000068 CLOCK_InitOsc0
00000122  w    F .text	00000002 DMA1_DriverIRQHandler
0000013c  w    F .text	00000008 DMA3_IRQHandler
00001074 g     F .text	00000060 UART_ReadBlocking
000011f8 g     F .text	00000010 SystemInit
00000124  w    F .text	00000008 DMA0_IRQHandler
000000cc g       .text	00000000 __bss_section_table
00000122  w    F .text	00000002 I2C1_DriverIRQHandler
00000bd8 g     F .text	00000074 CLOCK_SetInternalRefClkConfig
00002c5c g     F .text	00000000 __sys_close
00002a52 g     F .text	0000001c cmp_bin
000001ec  w    F .text	00000008 DAC0_IRQHandler
1ffff080 g       .uninit_RESERVED	00000000 _end_uninit_RESERVED
1ffff080 g       .uninit_RESERVED	00000000 _start_uninit_RESERVED
00002408 g     F .text	00000068 _Cwritebuf
0000299c g     F .text	00000098 hmac_isha
00000a18 g     F .text	0000005c init_ticktime
00000f54 g     F .text	0000001c UART0_DriverIRQHandler
1ffff080 g       .data	00000000 _data
0000020c  w    F .text	00000008 Reserved45_IRQHandler
1ffff140 g     O .bss	00000004 _number_of_exit_functions
20000404 g       .heap	00000000 _pvHeapStart
000000d4 g       .text	00000000 __section_table_end
00000122  w    F .text	00000002 SPI0_DriverIRQHandler
00000af8 g     F .text	0000004c CLOCK_SetSimConfig
000001b4  w    F .text	00000008 TPM1_IRQHandler
00000410 g     F .text	0000009c DbgConsole_Init
00000122  w    F .text	00000002 ADC0_DriverIRQHandler
00002c80 g     F .text	00000000 __sys_remove
00002b54 g     F .text	00000072 __aeabi_uidivmod
00000154  w    F .text	00000008 LVD_LVW_IRQHandler
1ffff088 g       .data	00000000 _edata
00000174  w    F .text	00000008 SPI0_IRQHandler
00000214  w    F .text	00000008 PORTA_IRQHandler
00000b44 g     F .text	0000003c CLOCK_GetFllFreq
00000122  w    F .text	00000002 CMP0_DriverIRQHandler
1ffff148 g     O .bss	00000004 __heaps
000027d8 g     F .text	00000000 __sys_appexit
00000400 g     O .text	00000010 Flash_Config
00002ae6 g     F .text	00000002 BOARD_InitBootPeripherals
00002120 g     F .text	0000002c exit
1ffff000 g       *ABS*	00000000 __base_RAM
00000000 g     O .text	000000c0 g_pfnVectors
0000014c  w    F .text	00000008 FTFA_IRQHandler
000000d4 g     F .text	00000044 ResetISR
0000375c g       *ABS*	00000000 _image_end
00002a6e g     F .text	00000028 hexstr_to_bytes
1ffff144 g     O .bss	00000004 __end_of_heap
000004d4 g     F .text	00000034 ISHAReset
0000253c g     F .text	00000020 _Csys_alloc
00002ac6 g     F .text	00000018 UART_WriteBlocking
00002bc6 g     F .text	00000002 __aeabi_idiv0
00000204  w    F .text	00000008 LPTMR0_IRQHandler
000036f9 g     O .text	0000000a mcgConfig_BOARD_BootClockRUN
0000214c g     F .text	00000058 strlen
00000122  w    F .text	00000002 DMA2_DriverIRQHandler
00000122  w    F .text	00000002 PORTD_DriverIRQHandler
00002084 g     F .text	00000050 _printf
00000122  w    F .text	00000002 I2C0_DriverIRQHandler
1ffff000 g     O .mtb_buffer_default	00000080 __mtb_buffer__
20002c00 g       .stack	00000000 _vStackBase
00001208 g     F .text	0000007c _initio
000001a4  w    F .text	00000008 CMP0_IRQHandler
00002b4e g     F .text	00000006 __aeabi_idivmod
1ffff150 g     O .bss	000000b4 __Ciob
00002c74 g     F .text	00000000 __sys_istty
1ffff0a0 g     O .bss	00000004 g_xtal0Freq
0000012c  w    F .text	00000008 DMA1_IRQHandler
00002b10 g     F .text	0000002c free
00002dd8 g     O .text	00000008 simConfig_BOARD_BootClockRUN



Disassembly of section .text:

00000000 <__Vectors>:
       0:	00 30 00 20 d5 00 00 00 19 01 00 00 ed 09 00 00     .0. ............
	...
      2c:	1d 01 00 00 00 00 00 00 00 00 00 00 1f 01 00 00     ................
      3c:	75 0a 00 00 25 01 00 00 2d 01 00 00 35 01 00 00     u...%...-...5...
      4c:	3d 01 00 00 45 01 00 00 4d 01 00 00 55 01 00 00     =...E...M...U...
      5c:	5d 01 00 00 65 01 00 00 6d 01 00 00 75 01 00 00     ]...e...m...u...
      6c:	7d 01 00 00 85 01 00 00 8d 01 00 00 95 01 00 00     }...............
      7c:	9d 01 00 00 a5 01 00 00 ad 01 00 00 b5 01 00 00     ................
      8c:	bd 01 00 00 c5 01 00 00 cd 01 00 00 d5 01 00 00     ................
      9c:	dd 01 00 00 e5 01 00 00 ed 01 00 00 f5 01 00 00     ................
      ac:	fd 01 00 00 05 02 00 00 0d 02 00 00 15 02 00 00     ................
      bc:	1d 02 00 00                                         ....

000000c0 <__data_section_table>:
      c0:	00003754 	.word	0x00003754
      c4:	1ffff080 	.word	0x1ffff080
      c8:	00000008 	.word	0x00000008

000000cc <__bss_section_table>:
      cc:	1ffff088 	.word	0x1ffff088
      d0:	0000137c 	.word	0x0000137c

000000d4 <ResetISR>:
      d4:	b510      	push	{r4, lr}
      d6:	b672      	cpsid	i
      d8:	f001 f88e 	bl	11f8 <SystemInit>
      dc:	4c0b      	ldr	r4, [pc, #44]	; (10c <ResetISR+0x38>)
      de:	4b0c      	ldr	r3, [pc, #48]	; (110 <ResetISR+0x3c>)
      e0:	429c      	cmp	r4, r3
      e2:	d306      	bcc.n	f2 <ResetISR+0x1e>
      e4:	4b0b      	ldr	r3, [pc, #44]	; (114 <ResetISR+0x40>)
      e6:	429c      	cmp	r4, r3
      e8:	d30a      	bcc.n	100 <ResetISR+0x2c>
      ea:	b662      	cpsie	i
      ec:	f002 fd00 	bl	2af0 <__main>
      f0:	e7fe      	b.n	f0 <ResetISR+0x1c>
      f2:	68a2      	ldr	r2, [r4, #8]
      f4:	6861      	ldr	r1, [r4, #4]
      f6:	6820      	ldr	r0, [r4, #0]
      f8:	f000 f894 	bl	224 <data_init>
      fc:	340c      	adds	r4, #12
      fe:	e7ee      	b.n	de <ResetISR+0xa>
     100:	6861      	ldr	r1, [r4, #4]
     102:	6820      	ldr	r0, [r4, #0]
     104:	f000 f899 	bl	23a <bss_init>
     108:	3408      	adds	r4, #8
     10a:	e7eb      	b.n	e4 <ResetISR+0x10>
     10c:	000000c0 	.word	0x000000c0
     110:	000000cc 	.word	0x000000cc
     114:	000000d4 	.word	0x000000d4

00000118 <NMI_Handler>:
     118:	e7fe      	b.n	118 <NMI_Handler>
     11a:	e7fe      	b.n	11a <NMI_Handler+0x2>

0000011c <SVC_Handler>:
     11c:	e7fe      	b.n	11c <SVC_Handler>

0000011e <PendSV_Handler>:
     11e:	e7fe      	b.n	11e <PendSV_Handler>
     120:	e7fe      	b.n	120 <PendSV_Handler+0x2>

00000122 <ADC0_DriverIRQHandler>:
     122:	e7fe      	b.n	122 <ADC0_DriverIRQHandler>

00000124 <DMA0_IRQHandler>:
     124:	b510      	push	{r4, lr}
     126:	f7ff fffc 	bl	122 <ADC0_DriverIRQHandler>
     12a:	bd10      	pop	{r4, pc}

0000012c <DMA1_IRQHandler>:
     12c:	b510      	push	{r4, lr}
     12e:	f7ff fff8 	bl	122 <ADC0_DriverIRQHandler>
     132:	bd10      	pop	{r4, pc}

00000134 <DMA2_IRQHandler>:
     134:	b510      	push	{r4, lr}
     136:	f7ff fff4 	bl	122 <ADC0_DriverIRQHandler>
     13a:	bd10      	pop	{r4, pc}

0000013c <DMA3_IRQHandler>:
     13c:	b510      	push	{r4, lr}
     13e:	f7ff fff0 	bl	122 <ADC0_DriverIRQHandler>
     142:	bd10      	pop	{r4, pc}

00000144 <Reserved20_IRQHandler>:
     144:	b510      	push	{r4, lr}
     146:	f7ff ffec 	bl	122 <ADC0_DriverIRQHandler>
     14a:	bd10      	pop	{r4, pc}

0000014c <FTFA_IRQHandler>:
     14c:	b510      	push	{r4, lr}
     14e:	f7ff ffe8 	bl	122 <ADC0_DriverIRQHandler>
     152:	bd10      	pop	{r4, pc}

00000154 <LVD_LVW_IRQHandler>:
     154:	b510      	push	{r4, lr}
     156:	f7ff ffe4 	bl	122 <ADC0_DriverIRQHandler>
     15a:	bd10      	pop	{r4, pc}

0000015c <LLWU_IRQHandler>:
     15c:	b510      	push	{r4, lr}
     15e:	f7ff ffe0 	bl	122 <ADC0_DriverIRQHandler>
     162:	bd10      	pop	{r4, pc}

00000164 <I2C0_IRQHandler>:
     164:	b510      	push	{r4, lr}
     166:	f7ff ffdc 	bl	122 <ADC0_DriverIRQHandler>
     16a:	bd10      	pop	{r4, pc}

0000016c <I2C1_IRQHandler>:
     16c:	b510      	push	{r4, lr}
     16e:	f7ff ffd8 	bl	122 <ADC0_DriverIRQHandler>
     172:	bd10      	pop	{r4, pc}

00000174 <SPI0_IRQHandler>:
     174:	b510      	push	{r4, lr}
     176:	f7ff ffd4 	bl	122 <ADC0_DriverIRQHandler>
     17a:	bd10      	pop	{r4, pc}

0000017c <SPI1_IRQHandler>:
     17c:	b510      	push	{r4, lr}
     17e:	f7ff ffd0 	bl	122 <ADC0_DriverIRQHandler>
     182:	bd10      	pop	{r4, pc}

00000184 <UART0_IRQHandler>:
     184:	b510      	push	{r4, lr}
     186:	f000 fee5 	bl	f54 <UART0_DriverIRQHandler>
     18a:	bd10      	pop	{r4, pc}

0000018c <UART1_IRQHandler>:
     18c:	b510      	push	{r4, lr}
     18e:	f000 ffa1 	bl	10d4 <UART1_DriverIRQHandler>
     192:	bd10      	pop	{r4, pc}

00000194 <UART2_IRQHandler>:
     194:	b510      	push	{r4, lr}
     196:	f000 ffab 	bl	10f0 <UART2_DriverIRQHandler>
     19a:	bd10      	pop	{r4, pc}

0000019c <ADC0_IRQHandler>:
     19c:	b510      	push	{r4, lr}
     19e:	f7ff ffc0 	bl	122 <ADC0_DriverIRQHandler>
     1a2:	bd10      	pop	{r4, pc}

000001a4 <CMP0_IRQHandler>:
     1a4:	b510      	push	{r4, lr}
     1a6:	f7ff ffbc 	bl	122 <ADC0_DriverIRQHandler>
     1aa:	bd10      	pop	{r4, pc}

000001ac <TPM0_IRQHandler>:
     1ac:	b510      	push	{r4, lr}
     1ae:	f7ff ffb8 	bl	122 <ADC0_DriverIRQHandler>
     1b2:	bd10      	pop	{r4, pc}

000001b4 <TPM1_IRQHandler>:
     1b4:	b510      	push	{r4, lr}
     1b6:	f7ff ffb4 	bl	122 <ADC0_DriverIRQHandler>
     1ba:	bd10      	pop	{r4, pc}

000001bc <TPM2_IRQHandler>:
     1bc:	b510      	push	{r4, lr}
     1be:	f7ff ffb0 	bl	122 <ADC0_DriverIRQHandler>
     1c2:	bd10      	pop	{r4, pc}

000001c4 <RTC_IRQHandler>:
     1c4:	b510      	push	{r4, lr}
     1c6:	f7ff ffac 	bl	122 <ADC0_DriverIRQHandler>
     1ca:	bd10      	pop	{r4, pc}

000001cc <RTC_Seconds_IRQHandler>:
     1cc:	b510      	push	{r4, lr}
     1ce:	f7ff ffa8 	bl	122 <ADC0_DriverIRQHandler>
     1d2:	bd10      	pop	{r4, pc}

000001d4 <PIT_IRQHandler>:
     1d4:	b510      	push	{r4, lr}
     1d6:	f7ff ffa4 	bl	122 <ADC0_DriverIRQHandler>
     1da:	bd10      	pop	{r4, pc}

000001dc <Reserved39_IRQHandler>:
     1dc:	b510      	push	{r4, lr}
     1de:	f7ff ffa0 	bl	122 <ADC0_DriverIRQHandler>
     1e2:	bd10      	pop	{r4, pc}

000001e4 <USB0_IRQHandler>:
     1e4:	b510      	push	{r4, lr}
     1e6:	f7ff ff9c 	bl	122 <ADC0_DriverIRQHandler>
     1ea:	bd10      	pop	{r4, pc}

000001ec <DAC0_IRQHandler>:
     1ec:	b510      	push	{r4, lr}
     1ee:	f7ff ff98 	bl	122 <ADC0_DriverIRQHandler>
     1f2:	bd10      	pop	{r4, pc}

000001f4 <TSI0_IRQHandler>:
     1f4:	b510      	push	{r4, lr}
     1f6:	f7ff ff94 	bl	122 <ADC0_DriverIRQHandler>
     1fa:	bd10      	pop	{r4, pc}

000001fc <MCG_IRQHandler>:
     1fc:	b510      	push	{r4, lr}
     1fe:	f7ff ff90 	bl	122 <ADC0_DriverIRQHandler>
     202:	bd10      	pop	{r4, pc}

00000204 <LPTMR0_IRQHandler>:
     204:	b510      	push	{r4, lr}
     206:	f7ff ff8c 	bl	122 <ADC0_DriverIRQHandler>
     20a:	bd10      	pop	{r4, pc}

0000020c <Reserved45_IRQHandler>:
     20c:	b510      	push	{r4, lr}
     20e:	f7ff ff88 	bl	122 <ADC0_DriverIRQHandler>
     212:	bd10      	pop	{r4, pc}

00000214 <PORTA_IRQHandler>:
     214:	b510      	push	{r4, lr}
     216:	f7ff ff84 	bl	122 <ADC0_DriverIRQHandler>
     21a:	bd10      	pop	{r4, pc}

0000021c <PORTD_IRQHandler>:
     21c:	b510      	push	{r4, lr}
     21e:	f7ff ff80 	bl	122 <ADC0_DriverIRQHandler>
     222:	bd10      	pop	{r4, pc}

00000224 <data_init>:
     224:	2300      	movs	r3, #0
     226:	b530      	push	{r4, r5, lr}
     228:	185d      	adds	r5, r3, r1
     22a:	181c      	adds	r4, r3, r0
     22c:	4293      	cmp	r3, r2
     22e:	d300      	bcc.n	232 <data_init+0xe>
     230:	bd30      	pop	{r4, r5, pc}
     232:	6824      	ldr	r4, [r4, #0]
     234:	3304      	adds	r3, #4
     236:	602c      	str	r4, [r5, #0]
     238:	e7f6      	b.n	228 <data_init+0x4>

0000023a <bss_init>:
     23a:	2300      	movs	r3, #0
     23c:	b510      	push	{r4, lr}
     23e:	001c      	movs	r4, r3
     240:	181a      	adds	r2, r3, r0
     242:	428b      	cmp	r3, r1
     244:	d300      	bcc.n	248 <bss_init+0xe>
     246:	bd10      	pop	{r4, pc}
     248:	6014      	str	r4, [r2, #0]
     24a:	3304      	adds	r3, #4
     24c:	e7f8      	b.n	240 <bss_init+0x6>
     24e:	ffff ffff 			; <UNDEFINED> instruction: 0xffffffff
     252:	ffff ffff 			; <UNDEFINED> instruction: 0xffffffff
     256:	ffff ffff 			; <UNDEFINED> instruction: 0xffffffff
     25a:	ffff ffff 			; <UNDEFINED> instruction: 0xffffffff
     25e:	ffff ffff 			; <UNDEFINED> instruction: 0xffffffff
     262:	ffff ffff 			; <UNDEFINED> instruction: 0xffffffff
     266:	ffff ffff 			; <UNDEFINED> instruction: 0xffffffff
     26a:	ffff ffff 			; <UNDEFINED> instruction: 0xffffffff
     26e:	ffff ffff 			; <UNDEFINED> instruction: 0xffffffff
     272:	ffff ffff 			; <UNDEFINED> instruction: 0xffffffff
     276:	ffff ffff 			; <UNDEFINED> instruction: 0xffffffff
     27a:	ffff ffff 			; <UNDEFINED> instruction: 0xffffffff
     27e:	ffff ffff 			; <UNDEFINED> instruction: 0xffffffff
     282:	ffff ffff 			; <UNDEFINED> instruction: 0xffffffff
     286:	ffff ffff 			; <UNDEFINED> instruction: 0xffffffff
     28a:	ffff ffff 			; <UNDEFINED> instruction: 0xffffffff
     28e:	ffff ffff 			; <UNDEFINED> instruction: 0xffffffff
     292:	ffff ffff 			; <UNDEFINED> instruction: 0xffffffff
     296:	ffff ffff 			; <UNDEFINED> instruction: 0xffffffff
     29a:	ffff ffff 			; <UNDEFINED> instruction: 0xffffffff
     29e:	ffff ffff 			; <UNDEFINED> instruction: 0xffffffff
     2a2:	ffff ffff 			; <UNDEFINED> instruction: 0xffffffff
     2a6:	ffff ffff 			; <UNDEFINED> instruction: 0xffffffff
     2aa:	ffff ffff 			; <UNDEFINED> instruction: 0xffffffff
     2ae:	ffff ffff 			; <UNDEFINED> instruction: 0xffffffff
     2b2:	ffff ffff 			; <UNDEFINED> instruction: 0xffffffff
     2b6:	ffff ffff 			; <UNDEFINED> instruction: 0xffffffff
     2ba:	ffff ffff 			; <UNDEFINED> instruction: 0xffffffff
     2be:	ffff ffff 			; <UNDEFINED> instruction: 0xffffffff
     2c2:	ffff ffff 			; <UNDEFINED> instruction: 0xffffffff
     2c6:	ffff ffff 			; <UNDEFINED> instruction: 0xffffffff
     2ca:	ffff ffff 			; <UNDEFINED> instruction: 0xffffffff
     2ce:	ffff ffff 			; <UNDEFINED> instruction: 0xffffffff
     2d2:	ffff ffff 			; <UNDEFINED> instruction: 0xffffffff
     2d6:	ffff ffff 			; <UNDEFINED> instruction: 0xffffffff
     2da:	ffff ffff 			; <UNDEFINED> instruction: 0xffffffff
     2de:	ffff ffff 			; <UNDEFINED> instruction: 0xffffffff
     2e2:	ffff ffff 			; <UNDEFINED> instruction: 0xffffffff
     2e6:	ffff ffff 			; <UNDEFINED> instruction: 0xffffffff
     2ea:	ffff ffff 			; <UNDEFINED> instruction: 0xffffffff
     2ee:	ffff ffff 			; <UNDEFINED> instruction: 0xffffffff
     2f2:	ffff ffff 			; <UNDEFINED> instruction: 0xffffffff
     2f6:	ffff ffff 			; <UNDEFINED> instruction: 0xffffffff
     2fa:	ffff ffff 			; <UNDEFINED> instruction: 0xffffffff
     2fe:	ffff ffff 			; <UNDEFINED> instruction: 0xffffffff
     302:	ffff ffff 			; <UNDEFINED> instruction: 0xffffffff
     306:	ffff ffff 			; <UNDEFINED> instruction: 0xffffffff
     30a:	ffff ffff 			; <UNDEFINED> instruction: 0xffffffff
     30e:	ffff ffff 			; <UNDEFINED> instruction: 0xffffffff
     312:	ffff ffff 			; <UNDEFINED> instruction: 0xffffffff
     316:	ffff ffff 			; <UNDEFINED> instruction: 0xffffffff
     31a:	ffff ffff 			; <UNDEFINED> instruction: 0xffffffff
     31e:	ffff ffff 			; <UNDEFINED> instruction: 0xffffffff
     322:	ffff ffff 			; <UNDEFINED> instruction: 0xffffffff
     326:	ffff ffff 			; <UNDEFINED> instruction: 0xffffffff
     32a:	ffff ffff 			; <UNDEFINED> instruction: 0xffffffff
     32e:	ffff ffff 			; <UNDEFINED> instruction: 0xffffffff
     332:	ffff ffff 			; <UNDEFINED> instruction: 0xffffffff
     336:	ffff ffff 			; <UNDEFINED> instruction: 0xffffffff
     33a:	ffff ffff 			; <UNDEFINED> instruction: 0xffffffff
     33e:	ffff ffff 			; <UNDEFINED> instruction: 0xffffffff
     342:	ffff ffff 			; <UNDEFINED> instruction: 0xffffffff
     346:	ffff ffff 			; <UNDEFINED> instruction: 0xffffffff
     34a:	ffff ffff 			; <UNDEFINED> instruction: 0xffffffff
     34e:	ffff ffff 			; <UNDEFINED> instruction: 0xffffffff
     352:	ffff ffff 			; <UNDEFINED> instruction: 0xffffffff
     356:	ffff ffff 			; <UNDEFINED> instruction: 0xffffffff
     35a:	ffff ffff 			; <UNDEFINED> instruction: 0xffffffff
     35e:	ffff ffff 			; <UNDEFINED> instruction: 0xffffffff
     362:	ffff ffff 			; <UNDEFINED> instruction: 0xffffffff
     366:	ffff ffff 			; <UNDEFINED> instruction: 0xffffffff
     36a:	ffff ffff 			; <UNDEFINED> instruction: 0xffffffff
     36e:	ffff ffff 			; <UNDEFINED> instruction: 0xffffffff
     372:	ffff ffff 			; <UNDEFINED> instruction: 0xffffffff
     376:	ffff ffff 			; <UNDEFINED> instruction: 0xffffffff
     37a:	ffff ffff 			; <UNDEFINED> instruction: 0xffffffff
     37e:	ffff ffff 			; <UNDEFINED> instruction: 0xffffffff
     382:	ffff ffff 			; <UNDEFINED> instruction: 0xffffffff
     386:	ffff ffff 			; <UNDEFINED> instruction: 0xffffffff
     38a:	ffff ffff 			; <UNDEFINED> instruction: 0xffffffff
     38e:	ffff ffff 			; <UNDEFINED> instruction: 0xffffffff
     392:	ffff ffff 			; <UNDEFINED> instruction: 0xffffffff
     396:	ffff ffff 			; <UNDEFINED> instruction: 0xffffffff
     39a:	ffff ffff 			; <UNDEFINED> instruction: 0xffffffff
     39e:	ffff ffff 			; <UNDEFINED> instruction: 0xffffffff
     3a2:	ffff ffff 			; <UNDEFINED> instruction: 0xffffffff
     3a6:	ffff ffff 			; <UNDEFINED> instruction: 0xffffffff
     3aa:	ffff ffff 			; <UNDEFINED> instruction: 0xffffffff
     3ae:	ffff ffff 			; <UNDEFINED> instruction: 0xffffffff
     3b2:	ffff ffff 			; <UNDEFINED> instruction: 0xffffffff
     3b6:	ffff ffff 			; <UNDEFINED> instruction: 0xffffffff
     3ba:	ffff ffff 			; <UNDEFINED> instruction: 0xffffffff
     3be:	ffff ffff 			; <UNDEFINED> instruction: 0xffffffff
     3c2:	ffff ffff 			; <UNDEFINED> instruction: 0xffffffff
     3c6:	ffff ffff 			; <UNDEFINED> instruction: 0xffffffff
     3ca:	ffff ffff 			; <UNDEFINED> instruction: 0xffffffff
     3ce:	ffff ffff 			; <UNDEFINED> instruction: 0xffffffff
     3d2:	ffff ffff 			; <UNDEFINED> instruction: 0xffffffff
     3d6:	ffff ffff 			; <UNDEFINED> instruction: 0xffffffff
     3da:	ffff ffff 			; <UNDEFINED> instruction: 0xffffffff
     3de:	ffff ffff 			; <UNDEFINED> instruction: 0xffffffff
     3e2:	ffff ffff 			; <UNDEFINED> instruction: 0xffffffff
     3e6:	ffff ffff 			; <UNDEFINED> instruction: 0xffffffff
     3ea:	ffff ffff 			; <UNDEFINED> instruction: 0xffffffff
     3ee:	ffff ffff 			; <UNDEFINED> instruction: 0xffffffff
     3f2:	ffff ffff 			; <UNDEFINED> instruction: 0xffffffff
     3f6:	ffff ffff 			; <UNDEFINED> instruction: 0xffffffff
     3fa:	ffff ffff 			; <UNDEFINED> instruction: 0xffffffff
     3fe:	Address 0x000003fe is out of bounds.


00000400 <Flash_Config>:
     400:	ffff ffff ffff ffff ffff ffff fffe ffff     ................

00000410 <DbgConsole_Init>:
     410:	b5f7      	push	{r0, r1, r2, r4, r5, r6, r7, lr}
     412:	4c21      	ldr	r4, [pc, #132]	; (498 <DbgConsole_Init+0x88>)
     414:	001d      	movs	r5, r3
     416:	7827      	ldrb	r7, [r4, #0]
     418:	000e      	movs	r6, r1
     41a:	2301      	movs	r3, #1
     41c:	2f00      	cmp	r7, #0
     41e:	d11f      	bne.n	460 <DbgConsole_Init+0x50>
     420:	7022      	strb	r2, [r4, #0]
     422:	2a03      	cmp	r2, #3
     424:	d01e      	beq.n	464 <DbgConsole_Init+0x54>
     426:	2a06      	cmp	r2, #6
     428:	d002      	beq.n	430 <DbgConsole_Init+0x20>
     42a:	3303      	adds	r3, #3
     42c:	2a01      	cmp	r2, #1
     42e:	d117      	bne.n	460 <DbgConsole_Init+0x50>
     430:	6060      	str	r0, [r4, #4]
     432:	4668      	mov	r0, sp
     434:	f002 fb41 	bl	2aba <UART_GetDefaultConfig>
     438:	002a      	movs	r2, r5
     43a:	4669      	mov	r1, sp
     43c:	6860      	ldr	r0, [r4, #4]
     43e:	9600      	str	r6, [sp, #0]
     440:	f000 fda6 	bl	f90 <UART_Init>
     444:	2208      	movs	r2, #8
     446:	6863      	ldr	r3, [r4, #4]
     448:	78d9      	ldrb	r1, [r3, #3]
     44a:	430a      	orrs	r2, r1
     44c:	70da      	strb	r2, [r3, #3]
     44e:	2204      	movs	r2, #4
     450:	78d9      	ldrb	r1, [r3, #3]
     452:	430a      	orrs	r2, r1
     454:	70da      	strb	r2, [r3, #3]
     456:	4b11      	ldr	r3, [pc, #68]	; (49c <DbgConsole_Init+0x8c>)
     458:	60a3      	str	r3, [r4, #8]
     45a:	4b11      	ldr	r3, [pc, #68]	; (4a0 <DbgConsole_Init+0x90>)
     45c:	60e3      	str	r3, [r4, #12]
     45e:	2300      	movs	r3, #0
     460:	0018      	movs	r0, r3
     462:	bdfe      	pop	{r1, r2, r3, r4, r5, r6, r7, pc}
     464:	6060      	str	r0, [r4, #4]
     466:	4668      	mov	r0, sp
     468:	f002 fb15 	bl	2a96 <LPSCI_GetDefaultConfig>
     46c:	002a      	movs	r2, r5
     46e:	4669      	mov	r1, sp
     470:	6860      	ldr	r0, [r4, #4]
     472:	9600      	str	r6, [sp, #0]
     474:	f000 fc72 	bl	d5c <LPSCI_Init>
     478:	2208      	movs	r2, #8
     47a:	6863      	ldr	r3, [r4, #4]
     47c:	78d9      	ldrb	r1, [r3, #3]
     47e:	430a      	orrs	r2, r1
     480:	70da      	strb	r2, [r3, #3]
     482:	2204      	movs	r2, #4
     484:	78d9      	ldrb	r1, [r3, #3]
     486:	430a      	orrs	r2, r1
     488:	70da      	strb	r2, [r3, #3]
     48a:	4b06      	ldr	r3, [pc, #24]	; (4a4 <DbgConsole_Init+0x94>)
     48c:	60a3      	str	r3, [r4, #8]
     48e:	4b06      	ldr	r3, [pc, #24]	; (4a8 <DbgConsole_Init+0x98>)
     490:	60e3      	str	r3, [r4, #12]
     492:	003b      	movs	r3, r7
     494:	e7e4      	b.n	460 <DbgConsole_Init+0x50>
     496:	46c0      	nop			; (mov r8, r8)
     498:	1ffff088 	.word	0x1ffff088
     49c:	00002ac7 	.word	0x00002ac7
     4a0:	00001075 	.word	0x00001075
     4a4:	00002aa3 	.word	0x00002aa3
     4a8:	00000edd 	.word	0x00000edd

000004ac <__sys_write>:
     4ac:	b510      	push	{r4, lr}
     4ae:	2900      	cmp	r1, #0
     4b0:	d00b      	beq.n	4ca <__sys_write+0x1e>
     4b2:	3801      	subs	r0, #1
     4b4:	2801      	cmp	r0, #1
     4b6:	d808      	bhi.n	4ca <__sys_write+0x1e>
     4b8:	4b05      	ldr	r3, [pc, #20]	; (4d0 <__sys_write+0x24>)
     4ba:	7818      	ldrb	r0, [r3, #0]
     4bc:	2800      	cmp	r0, #0
     4be:	d004      	beq.n	4ca <__sys_write+0x1e>
     4c0:	6858      	ldr	r0, [r3, #4]
     4c2:	689c      	ldr	r4, [r3, #8]
     4c4:	47a0      	blx	r4
     4c6:	2000      	movs	r0, #0
     4c8:	bd10      	pop	{r4, pc}
     4ca:	2001      	movs	r0, #1
     4cc:	4240      	negs	r0, r0
     4ce:	e7fb      	b.n	4c8 <__sys_write+0x1c>
     4d0:	1ffff088 	.word	0x1ffff088

000004d4 <ISHAReset>:
     4d4:	2300      	movs	r3, #0
     4d6:	4a07      	ldr	r2, [pc, #28]	; (4f4 <ISHAReset+0x20>)
     4d8:	6143      	str	r3, [r0, #20]
     4da:	6002      	str	r2, [r0, #0]
     4dc:	4a06      	ldr	r2, [pc, #24]	; (4f8 <ISHAReset+0x24>)
     4de:	6583      	str	r3, [r0, #88]	; 0x58
     4e0:	6042      	str	r2, [r0, #4]
     4e2:	4a06      	ldr	r2, [pc, #24]	; (4fc <ISHAReset+0x28>)
     4e4:	65c3      	str	r3, [r0, #92]	; 0x5c
     4e6:	6082      	str	r2, [r0, #8]
     4e8:	4a05      	ldr	r2, [pc, #20]	; (500 <ISHAReset+0x2c>)
     4ea:	6603      	str	r3, [r0, #96]	; 0x60
     4ec:	60c2      	str	r2, [r0, #12]
     4ee:	4a05      	ldr	r2, [pc, #20]	; (504 <ISHAReset+0x30>)
     4f0:	6102      	str	r2, [r0, #16]
     4f2:	4770      	bx	lr
     4f4:	67452301 	.word	0x67452301
     4f8:	efcdab89 	.word	0xefcdab89
     4fc:	98badcfe 	.word	0x98badcfe
     500:	10325476 	.word	0x10325476
     504:	c3d2e1f0 	.word	0xc3d2e1f0

00000508 <time_pbkdf2_hmac_isha>:
     508:	b5f0      	push	{r4, r5, r6, r7, lr}
     50a:	4c1e      	ldr	r4, [pc, #120]	; (584 <time_pbkdf2_hmac_isha+0x7c>)
     50c:	2230      	movs	r2, #48	; 0x30
     50e:	44a5      	add	sp, r4
     510:	491d      	ldr	r1, [pc, #116]	; (588 <time_pbkdf2_hmac_isha+0x80>)
     512:	a886      	add	r0, sp, #536	; 0x218
     514:	f002 faab 	bl	2a6e <hexstr_to_bytes>
     518:	4f1c      	ldr	r7, [pc, #112]	; (58c <time_pbkdf2_hmac_isha+0x84>)
     51a:	2630      	movs	r6, #48	; 0x30
     51c:	0038      	movs	r0, r7
     51e:	f001 fe15 	bl	214c <strlen>
     522:	4c1b      	ldr	r4, [pc, #108]	; (590 <time_pbkdf2_hmac_isha+0x88>)
     524:	9004      	str	r0, [sp, #16]
     526:	0020      	movs	r0, r4
     528:	f001 fe10 	bl	214c <strlen>
     52c:	9005      	str	r0, [sp, #20]
     52e:	f000 faa9 	bl	a84 <reset_timer>
     532:	2380      	movs	r3, #128	; 0x80
     534:	ad06      	add	r5, sp, #24
     536:	015b      	lsls	r3, r3, #5
     538:	0022      	movs	r2, r4
     53a:	0038      	movs	r0, r7
     53c:	9904      	ldr	r1, [sp, #16]
     53e:	9300      	str	r3, [sp, #0]
     540:	9502      	str	r5, [sp, #8]
     542:	9b05      	ldr	r3, [sp, #20]
     544:	9601      	str	r6, [sp, #4]
     546:	f000 f861 	bl	60c <pbkdf2_hmac_isha>
     54a:	f000 faa5 	bl	a98 <get_timer>
     54e:	0032      	movs	r2, r6
     550:	0007      	movs	r7, r0
     552:	a986      	add	r1, sp, #536	; 0x218
     554:	0028      	movs	r0, r5
     556:	f002 fa7c 	bl	2a52 <cmp_bin>
     55a:	2800      	cmp	r0, #0
     55c:	d00d      	beq.n	57a <time_pbkdf2_hmac_isha+0x72>
     55e:	210a      	movs	r1, #10
     560:	0038      	movs	r0, r7
     562:	f002 faf7 	bl	2b54 <__aeabi_uidiv>
     566:	2280      	movs	r2, #128	; 0x80
     568:	0003      	movs	r3, r0
     56a:	490a      	ldr	r1, [pc, #40]	; (594 <time_pbkdf2_hmac_isha+0x8c>)
     56c:	480a      	ldr	r0, [pc, #40]	; (598 <time_pbkdf2_hmac_isha+0x90>)
     56e:	0152      	lsls	r2, r2, #5
     570:	f001 fd88 	bl	2084 <_printf>
     574:	4b09      	ldr	r3, [pc, #36]	; (59c <time_pbkdf2_hmac_isha+0x94>)
     576:	449d      	add	sp, r3
     578:	bdf0      	pop	{r4, r5, r6, r7, pc}
     57a:	4809      	ldr	r0, [pc, #36]	; (5a0 <time_pbkdf2_hmac_isha+0x98>)
     57c:	f001 fd82 	bl	2084 <_printf>
     580:	e7f8      	b.n	574 <time_pbkdf2_hmac_isha+0x6c>
     582:	46c0      	nop			; (mov r8, r8)
     584:	fffffbe4 	.word	0xfffffbe4
     588:	00002df4 	.word	0x00002df4
     58c:	00002e55 	.word	0x00002e55
     590:	00002e5d 	.word	0x00002e5d
     594:	00002f0b 	.word	0x00002f0b
     598:	00002e67 	.word	0x00002e67
     59c:	0000041c 	.word	0x0000041c
     5a0:	00002e88 	.word	0x00002e88

000005a4 <main>:
     5a4:	b510      	push	{r4, lr}
     5a6:	f002 fa9f 	bl	2ae8 <BOARD_InitBootPins>
     5aa:	f002 fa98 	bl	2ade <BOARD_InitBootClocks>
     5ae:	f002 fa9a 	bl	2ae6 <BOARD_InitBootPeripherals>
     5b2:	f000 fdab 	bl	110c <BOARD_InitDebugConsole>
     5b6:	f000 fa2f 	bl	a18 <init_ticktime>
     5ba:	4810      	ldr	r0, [pc, #64]	; (5fc <main+0x58>)
     5bc:	f001 fd62 	bl	2084 <_printf>
     5c0:	f000 f8ee 	bl	7a0 <test_isha>
     5c4:	0004      	movs	r4, r0
     5c6:	f000 f971 	bl	8ac <test_hmac_isha>
     5ca:	4004      	ands	r4, r0
     5cc:	b2e4      	uxtb	r4, r4
     5ce:	f000 f9bb 	bl	948 <test_pbkdf2_hmac_isha>
     5d2:	2c00      	cmp	r4, #0
     5d4:	d001      	beq.n	5da <main+0x36>
     5d6:	2800      	cmp	r0, #0
     5d8:	d106      	bne.n	5e8 <main+0x44>
     5da:	4809      	ldr	r0, [pc, #36]	; (600 <main+0x5c>)
     5dc:	f001 fd52 	bl	2084 <_printf>
     5e0:	2001      	movs	r0, #1
     5e2:	4240      	negs	r0, r0
     5e4:	f001 fd9c 	bl	2120 <exit>
     5e8:	4806      	ldr	r0, [pc, #24]	; (604 <main+0x60>)
     5ea:	f001 fd4b 	bl	2084 <_printf>
     5ee:	4806      	ldr	r0, [pc, #24]	; (608 <main+0x64>)
     5f0:	f001 fd48 	bl	2084 <_printf>
     5f4:	f7ff ff88 	bl	508 <time_pbkdf2_hmac_isha>
     5f8:	2000      	movs	r0, #0
     5fa:	bd10      	pop	{r4, pc}
     5fc:	00002ea0 	.word	0x00002ea0
     600:	00002ebc 	.word	0x00002ebc
     604:	00002ede 	.word	0x00002ede
     608:	00002ef2 	.word	0x00002ef2

0000060c <pbkdf2_hmac_isha>:
     60c:	b5f0      	push	{r4, r5, r6, r7, lr}
     60e:	b08d      	sub	sp, #52	; 0x34
     610:	9103      	str	r1, [sp, #12]
     612:	0007      	movs	r7, r0
     614:	2114      	movs	r1, #20
     616:	9813      	ldr	r0, [sp, #76]	; 0x4c
     618:	001e      	movs	r6, r3
     61a:	2414      	movs	r4, #20
     61c:	9205      	str	r2, [sp, #20]
     61e:	f002 fa99 	bl	2b54 <__aeabi_uidiv>
     622:	1c43      	adds	r3, r0, #1
     624:	4360      	muls	r0, r4
     626:	4c5c      	ldr	r4, [pc, #368]	; (798 <pbkdf2_hmac_isha+0x18c>)
     628:	1904      	adds	r4, r0, r4
     62a:	1e5a      	subs	r2, r3, #1
     62c:	9204      	str	r2, [sp, #16]
     62e:	d251      	bcs.n	6d4 <pbkdf2_hmac_isha+0xc8>
     630:	4b59      	ldr	r3, [pc, #356]	; (798 <pbkdf2_hmac_isha+0x18c>)
     632:	9a13      	ldr	r2, [sp, #76]	; 0x4c
     634:	1e51      	subs	r1, r2, #1
     636:	9113      	str	r1, [sp, #76]	; 0x4c
     638:	d300      	bcc.n	63c <pbkdf2_hmac_isha+0x30>
     63a:	e0a7      	b.n	78c <pbkdf2_hmac_isha+0x180>
     63c:	b00d      	add	sp, #52	; 0x34
     63e:	bdf0      	pop	{r4, r5, r6, r7, pc}
     640:	9805      	ldr	r0, [sp, #20]
     642:	5c40      	ldrb	r0, [r0, r1]
     644:	5450      	strb	r0, [r2, r1]
     646:	3101      	adds	r1, #1
     648:	428e      	cmp	r6, r1
     64a:	d1f9      	bne.n	640 <pbkdf2_hmac_isha+0x34>
     64c:	ba1b      	rev	r3, r3
     64e:	0418      	lsls	r0, r3, #16
     650:	1991      	adds	r1, r2, r6
     652:	0e00      	lsrs	r0, r0, #24
     654:	5593      	strb	r3, [r2, r6]
     656:	7048      	strb	r0, [r1, #1]
     658:	0218      	lsls	r0, r3, #8
     65a:	ad07      	add	r5, sp, #28
     65c:	0e00      	lsrs	r0, r0, #24
     65e:	0e1b      	lsrs	r3, r3, #24
     660:	7088      	strb	r0, [r1, #2]
     662:	70cb      	strb	r3, [r1, #3]
     664:	0038      	movs	r0, r7
     666:	1d33      	adds	r3, r6, #4
     668:	9903      	ldr	r1, [sp, #12]
     66a:	9500      	str	r5, [sp, #0]
     66c:	f002 f996 	bl	299c <hmac_isha>
     670:	782b      	ldrb	r3, [r5, #0]
     672:	7023      	strb	r3, [r4, #0]
     674:	786b      	ldrb	r3, [r5, #1]
     676:	7063      	strb	r3, [r4, #1]
     678:	78ab      	ldrb	r3, [r5, #2]
     67a:	70a3      	strb	r3, [r4, #2]
     67c:	78eb      	ldrb	r3, [r5, #3]
     67e:	70e3      	strb	r3, [r4, #3]
     680:	792b      	ldrb	r3, [r5, #4]
     682:	7123      	strb	r3, [r4, #4]
     684:	796b      	ldrb	r3, [r5, #5]
     686:	7163      	strb	r3, [r4, #5]
     688:	79ab      	ldrb	r3, [r5, #6]
     68a:	71a3      	strb	r3, [r4, #6]
     68c:	79eb      	ldrb	r3, [r5, #7]
     68e:	71e3      	strb	r3, [r4, #7]
     690:	7a2b      	ldrb	r3, [r5, #8]
     692:	7223      	strb	r3, [r4, #8]
     694:	7a6b      	ldrb	r3, [r5, #9]
     696:	7263      	strb	r3, [r4, #9]
     698:	7aab      	ldrb	r3, [r5, #10]
     69a:	72a3      	strb	r3, [r4, #10]
     69c:	7aeb      	ldrb	r3, [r5, #11]
     69e:	72e3      	strb	r3, [r4, #11]
     6a0:	7b2b      	ldrb	r3, [r5, #12]
     6a2:	7323      	strb	r3, [r4, #12]
     6a4:	7b6b      	ldrb	r3, [r5, #13]
     6a6:	7363      	strb	r3, [r4, #13]
     6a8:	7bab      	ldrb	r3, [r5, #14]
     6aa:	73a3      	strb	r3, [r4, #14]
     6ac:	7beb      	ldrb	r3, [r5, #15]
     6ae:	73e3      	strb	r3, [r4, #15]
     6b0:	7c2b      	ldrb	r3, [r5, #16]
     6b2:	7423      	strb	r3, [r4, #16]
     6b4:	7c6b      	ldrb	r3, [r5, #17]
     6b6:	7463      	strb	r3, [r4, #17]
     6b8:	7cab      	ldrb	r3, [r5, #18]
     6ba:	74a3      	strb	r3, [r4, #18]
     6bc:	7ceb      	ldrb	r3, [r5, #19]
     6be:	74e3      	strb	r3, [r4, #19]
     6c0:	9b12      	ldr	r3, [sp, #72]	; 0x48
     6c2:	9302      	str	r3, [sp, #8]
     6c4:	9b02      	ldr	r3, [sp, #8]
     6c6:	3b01      	subs	r3, #1
     6c8:	9302      	str	r3, [sp, #8]
     6ca:	2b00      	cmp	r3, #0
     6cc:	d105      	bne.n	6da <pbkdf2_hmac_isha+0xce>
     6ce:	9b04      	ldr	r3, [sp, #16]
     6d0:	3c14      	subs	r4, #20
     6d2:	e7aa      	b.n	62a <pbkdf2_hmac_isha+0x1e>
     6d4:	2100      	movs	r1, #0
     6d6:	4a31      	ldr	r2, [pc, #196]	; (79c <pbkdf2_hmac_isha+0x190>)
     6d8:	e7b6      	b.n	648 <pbkdf2_hmac_isha+0x3c>
     6da:	ad07      	add	r5, sp, #28
     6dc:	2314      	movs	r3, #20
     6de:	002a      	movs	r2, r5
     6e0:	0038      	movs	r0, r7
     6e2:	9903      	ldr	r1, [sp, #12]
     6e4:	9500      	str	r5, [sp, #0]
     6e6:	f002 f959 	bl	299c <hmac_isha>
     6ea:	7823      	ldrb	r3, [r4, #0]
     6ec:	782a      	ldrb	r2, [r5, #0]
     6ee:	4053      	eors	r3, r2
     6f0:	7023      	strb	r3, [r4, #0]
     6f2:	786a      	ldrb	r2, [r5, #1]
     6f4:	7863      	ldrb	r3, [r4, #1]
     6f6:	4053      	eors	r3, r2
     6f8:	7063      	strb	r3, [r4, #1]
     6fa:	78aa      	ldrb	r2, [r5, #2]
     6fc:	78a3      	ldrb	r3, [r4, #2]
     6fe:	4053      	eors	r3, r2
     700:	70a3      	strb	r3, [r4, #2]
     702:	78ea      	ldrb	r2, [r5, #3]
     704:	78e3      	ldrb	r3, [r4, #3]
     706:	4053      	eors	r3, r2
     708:	70e3      	strb	r3, [r4, #3]
     70a:	792a      	ldrb	r2, [r5, #4]
     70c:	7923      	ldrb	r3, [r4, #4]
     70e:	4053      	eors	r3, r2
     710:	7123      	strb	r3, [r4, #4]
     712:	796a      	ldrb	r2, [r5, #5]
     714:	7963      	ldrb	r3, [r4, #5]
     716:	4053      	eors	r3, r2
     718:	7163      	strb	r3, [r4, #5]
     71a:	79aa      	ldrb	r2, [r5, #6]
     71c:	79a3      	ldrb	r3, [r4, #6]
     71e:	4053      	eors	r3, r2
     720:	71a3      	strb	r3, [r4, #6]
     722:	79ea      	ldrb	r2, [r5, #7]
     724:	79e3      	ldrb	r3, [r4, #7]
     726:	4053      	eors	r3, r2
     728:	71e3      	strb	r3, [r4, #7]
     72a:	7a2a      	ldrb	r2, [r5, #8]
     72c:	7a23      	ldrb	r3, [r4, #8]
     72e:	4053      	eors	r3, r2
     730:	7223      	strb	r3, [r4, #8]
     732:	7a6a      	ldrb	r2, [r5, #9]
     734:	7a63      	ldrb	r3, [r4, #9]
     736:	4053      	eors	r3, r2
     738:	7263      	strb	r3, [r4, #9]
     73a:	7aaa      	ldrb	r2, [r5, #10]
     73c:	7aa3      	ldrb	r3, [r4, #10]
     73e:	4053      	eors	r3, r2
     740:	72a3      	strb	r3, [r4, #10]
     742:	7aea      	ldrb	r2, [r5, #11]
     744:	7ae3      	ldrb	r3, [r4, #11]
     746:	4053      	eors	r3, r2
     748:	72e3      	strb	r3, [r4, #11]
     74a:	7b2a      	ldrb	r2, [r5, #12]
     74c:	7b23      	ldrb	r3, [r4, #12]
     74e:	4053      	eors	r3, r2
     750:	7323      	strb	r3, [r4, #12]
     752:	7b6a      	ldrb	r2, [r5, #13]
     754:	7b63      	ldrb	r3, [r4, #13]
     756:	4053      	eors	r3, r2
     758:	7363      	strb	r3, [r4, #13]
     75a:	7baa      	ldrb	r2, [r5, #14]
     75c:	7ba3      	ldrb	r3, [r4, #14]
     75e:	4053      	eors	r3, r2
     760:	73a3      	strb	r3, [r4, #14]
     762:	7bea      	ldrb	r2, [r5, #15]
     764:	7be3      	ldrb	r3, [r4, #15]
     766:	4053      	eors	r3, r2
     768:	73e3      	strb	r3, [r4, #15]
     76a:	7c2a      	ldrb	r2, [r5, #16]
     76c:	7c23      	ldrb	r3, [r4, #16]
     76e:	4053      	eors	r3, r2
     770:	7423      	strb	r3, [r4, #16]
     772:	7c6a      	ldrb	r2, [r5, #17]
     774:	7c63      	ldrb	r3, [r4, #17]
     776:	4053      	eors	r3, r2
     778:	7463      	strb	r3, [r4, #17]
     77a:	7caa      	ldrb	r2, [r5, #18]
     77c:	7ca3      	ldrb	r3, [r4, #18]
     77e:	4053      	eors	r3, r2
     780:	74a3      	strb	r3, [r4, #18]
     782:	7cea      	ldrb	r2, [r5, #19]
     784:	7ce3      	ldrb	r3, [r4, #19]
     786:	4053      	eors	r3, r2
     788:	74e3      	strb	r3, [r4, #19]
     78a:	e79b      	b.n	6c4 <pbkdf2_hmac_isha+0xb8>
     78c:	9a13      	ldr	r2, [sp, #76]	; 0x4c
     78e:	9914      	ldr	r1, [sp, #80]	; 0x50
     790:	5c9a      	ldrb	r2, [r3, r2]
     792:	9813      	ldr	r0, [sp, #76]	; 0x4c
     794:	540a      	strb	r2, [r1, r0]
     796:	e74c      	b.n	632 <pbkdf2_hmac_isha+0x26>
     798:	1ffff204 	.word	0x1ffff204
     79c:	1ffffc04 	.word	0x1ffffc04

000007a0 <test_isha>:
     7a0:	b5f0      	push	{r4, r5, r6, r7, lr}
     7a2:	b0b1      	sub	sp, #196	; 0xc4
     7a4:	a90f      	add	r1, sp, #60	; 0x3c
     7a6:	000a      	movs	r2, r1
     7a8:	4b3c      	ldr	r3, [pc, #240]	; (89c <test_isha+0xfc>)
     7aa:	2614      	movs	r6, #20
     7ac:	cb31      	ldmia	r3!, {r0, r4, r5}
     7ae:	c231      	stmia	r2!, {r0, r4, r5}
     7b0:	cb31      	ldmia	r3!, {r0, r4, r5}
     7b2:	c231      	stmia	r2!, {r0, r4, r5}
     7b4:	cb11      	ldmia	r3!, {r0, r4}
     7b6:	c211      	stmia	r2!, {r0, r4}
     7b8:	2400      	movs	r4, #0
     7ba:	000d      	movs	r5, r1
     7bc:	9102      	str	r1, [sp, #8]
     7be:	9401      	str	r4, [sp, #4]
     7c0:	682f      	ldr	r7, [r5, #0]
     7c2:	0038      	movs	r0, r7
     7c4:	f001 fcc2 	bl	214c <strlen>
     7c8:	0032      	movs	r2, r6
     7ca:	6869      	ldr	r1, [r5, #4]
     7cc:	9003      	str	r0, [sp, #12]
     7ce:	a805      	add	r0, sp, #20
     7d0:	f002 f94d 	bl	2a6e <hexstr_to_bytes>
     7d4:	a817      	add	r0, sp, #92	; 0x5c
     7d6:	f7ff fe7d 	bl	4d4 <ISHAReset>
     7da:	9a03      	ldr	r2, [sp, #12]
     7dc:	0039      	movs	r1, r7
     7de:	a817      	add	r0, sp, #92	; 0x5c
     7e0:	f002 f8b8 	bl	2954 <ISHAInput>
     7e4:	a90a      	add	r1, sp, #40	; 0x28
     7e6:	a817      	add	r0, sp, #92	; 0x5c
     7e8:	f002 f84b 	bl	2882 <ISHAResult>
     7ec:	0032      	movs	r2, r6
     7ee:	a905      	add	r1, sp, #20
     7f0:	a80a      	add	r0, sp, #40	; 0x28
     7f2:	f002 f92e 	bl	2a52 <cmp_bin>
     7f6:	0022      	movs	r2, r4
     7f8:	4929      	ldr	r1, [pc, #164]	; (8a0 <test_isha+0x100>)
     7fa:	2800      	cmp	r0, #0
     7fc:	d03a      	beq.n	874 <test_isha+0xd4>
     7fe:	4829      	ldr	r0, [pc, #164]	; (8a4 <test_isha+0x104>)
     800:	f001 fc40 	bl	2084 <_printf>
     804:	9b01      	ldr	r3, [sp, #4]
     806:	3301      	adds	r3, #1
     808:	9301      	str	r3, [sp, #4]
     80a:	3401      	adds	r4, #1
     80c:	3508      	adds	r5, #8
     80e:	2c04      	cmp	r4, #4
     810:	d1d6      	bne.n	7c0 <test_isha+0x20>
     812:	9b02      	ldr	r3, [sp, #8]
     814:	681d      	ldr	r5, [r3, #0]
     816:	0028      	movs	r0, r5
     818:	f001 fc98 	bl	214c <strlen>
     81c:	9b02      	ldr	r3, [sp, #8]
     81e:	0007      	movs	r7, r0
     820:	2214      	movs	r2, #20
     822:	a805      	add	r0, sp, #20
     824:	6859      	ldr	r1, [r3, #4]
     826:	f002 f922 	bl	2a6e <hexstr_to_bytes>
     82a:	a817      	add	r0, sp, #92	; 0x5c
     82c:	f7ff fe52 	bl	4d4 <ISHAReset>
     830:	2f00      	cmp	r7, #0
     832:	dc23      	bgt.n	87c <test_isha+0xdc>
     834:	a90a      	add	r1, sp, #40	; 0x28
     836:	a817      	add	r0, sp, #92	; 0x5c
     838:	f002 f823 	bl	2882 <ISHAResult>
     83c:	2214      	movs	r2, #20
     83e:	a905      	add	r1, sp, #20
     840:	a80a      	add	r0, sp, #40	; 0x28
     842:	f002 f906 	bl	2a52 <cmp_bin>
     846:	0022      	movs	r2, r4
     848:	4915      	ldr	r1, [pc, #84]	; (8a0 <test_isha+0x100>)
     84a:	2800      	cmp	r0, #0
     84c:	d022      	beq.n	894 <test_isha+0xf4>
     84e:	4815      	ldr	r0, [pc, #84]	; (8a4 <test_isha+0x104>)
     850:	f001 fc18 	bl	2084 <_printf>
     854:	9b01      	ldr	r3, [sp, #4]
     856:	3301      	adds	r3, #1
     858:	9301      	str	r3, [sp, #4]
     85a:	9b02      	ldr	r3, [sp, #8]
     85c:	3401      	adds	r4, #1
     85e:	3308      	adds	r3, #8
     860:	9302      	str	r3, [sp, #8]
     862:	2c08      	cmp	r4, #8
     864:	d1d5      	bne.n	812 <test_isha+0x72>
     866:	9801      	ldr	r0, [sp, #4]
     868:	3808      	subs	r0, #8
     86a:	4243      	negs	r3, r0
     86c:	4158      	adcs	r0, r3
     86e:	b2c0      	uxtb	r0, r0
     870:	b031      	add	sp, #196	; 0xc4
     872:	bdf0      	pop	{r4, r5, r6, r7, pc}
     874:	480c      	ldr	r0, [pc, #48]	; (8a8 <test_isha+0x108>)
     876:	f001 fc05 	bl	2084 <_printf>
     87a:	e7c6      	b.n	80a <test_isha+0x6a>
     87c:	003e      	movs	r6, r7
     87e:	2f0a      	cmp	r7, #10
     880:	dd00      	ble.n	884 <test_isha+0xe4>
     882:	260a      	movs	r6, #10
     884:	0029      	movs	r1, r5
     886:	0032      	movs	r2, r6
     888:	a817      	add	r0, sp, #92	; 0x5c
     88a:	f002 f863 	bl	2954 <ISHAInput>
     88e:	1bbf      	subs	r7, r7, r6
     890:	19ad      	adds	r5, r5, r6
     892:	e7cd      	b.n	830 <test_isha+0x90>
     894:	4804      	ldr	r0, [pc, #16]	; (8a8 <test_isha+0x108>)
     896:	f001 fbf5 	bl	2084 <_printf>
     89a:	e7de      	b.n	85a <test_isha+0xba>
     89c:	00002ca4 	.word	0x00002ca4
     8a0:	000036ef 	.word	0x000036ef
     8a4:	0000369e 	.word	0x0000369e
     8a8:	000036b4 	.word	0x000036b4

000008ac <test_hmac_isha>:
     8ac:	b5f0      	push	{r4, r5, r6, r7, lr}
     8ae:	b09b      	sub	sp, #108	; 0x6c
     8b0:	ac11      	add	r4, sp, #68	; 0x44
     8b2:	0022      	movs	r2, r4
     8b4:	4b20      	ldr	r3, [pc, #128]	; (938 <test_hmac_isha+0x8c>)
     8b6:	2614      	movs	r6, #20
     8b8:	3320      	adds	r3, #32
     8ba:	cb23      	ldmia	r3!, {r0, r1, r5}
     8bc:	c223      	stmia	r2!, {r0, r1, r5}
     8be:	cb23      	ldmia	r3!, {r0, r1, r5}
     8c0:	c223      	stmia	r2!, {r0, r1, r5}
     8c2:	cb23      	ldmia	r3!, {r0, r1, r5}
     8c4:	c223      	stmia	r2!, {r0, r1, r5}
     8c6:	2500      	movs	r5, #0
     8c8:	9502      	str	r5, [sp, #8]
     8ca:	6827      	ldr	r7, [r4, #0]
     8cc:	0038      	movs	r0, r7
     8ce:	f001 fc3d 	bl	214c <strlen>
     8d2:	6863      	ldr	r3, [r4, #4]
     8d4:	9004      	str	r0, [sp, #16]
     8d6:	0018      	movs	r0, r3
     8d8:	9303      	str	r3, [sp, #12]
     8da:	f001 fc37 	bl	214c <strlen>
     8de:	0032      	movs	r2, r6
     8e0:	68a1      	ldr	r1, [r4, #8]
     8e2:	9005      	str	r0, [sp, #20]
     8e4:	a807      	add	r0, sp, #28
     8e6:	f002 f8c2 	bl	2a6e <hexstr_to_bytes>
     8ea:	ab0c      	add	r3, sp, #48	; 0x30
     8ec:	0038      	movs	r0, r7
     8ee:	9a03      	ldr	r2, [sp, #12]
     8f0:	9904      	ldr	r1, [sp, #16]
     8f2:	9300      	str	r3, [sp, #0]
     8f4:	9b05      	ldr	r3, [sp, #20]
     8f6:	f002 f851 	bl	299c <hmac_isha>
     8fa:	0032      	movs	r2, r6
     8fc:	a907      	add	r1, sp, #28
     8fe:	a80c      	add	r0, sp, #48	; 0x30
     900:	f002 f8a7 	bl	2a52 <cmp_bin>
     904:	002a      	movs	r2, r5
     906:	490d      	ldr	r1, [pc, #52]	; (93c <test_hmac_isha+0x90>)
     908:	2800      	cmp	r0, #0
     90a:	d010      	beq.n	92e <test_hmac_isha+0x82>
     90c:	480c      	ldr	r0, [pc, #48]	; (940 <test_hmac_isha+0x94>)
     90e:	f001 fbb9 	bl	2084 <_printf>
     912:	9b02      	ldr	r3, [sp, #8]
     914:	3301      	adds	r3, #1
     916:	9302      	str	r3, [sp, #8]
     918:	3501      	adds	r5, #1
     91a:	340c      	adds	r4, #12
     91c:	2d03      	cmp	r5, #3
     91e:	d1d4      	bne.n	8ca <test_hmac_isha+0x1e>
     920:	9802      	ldr	r0, [sp, #8]
     922:	3803      	subs	r0, #3
     924:	4243      	negs	r3, r0
     926:	4158      	adcs	r0, r3
     928:	b2c0      	uxtb	r0, r0
     92a:	b01b      	add	sp, #108	; 0x6c
     92c:	bdf0      	pop	{r4, r5, r6, r7, pc}
     92e:	4805      	ldr	r0, [pc, #20]	; (944 <test_hmac_isha+0x98>)
     930:	f001 fba8 	bl	2084 <_printf>
     934:	e7f0      	b.n	918 <test_hmac_isha+0x6c>
     936:	46c0      	nop			; (mov r8, r8)
     938:	00002ca4 	.word	0x00002ca4
     93c:	000036e0 	.word	0x000036e0
     940:	0000369e 	.word	0x0000369e
     944:	000036b4 	.word	0x000036b4

00000948 <test_pbkdf2_hmac_isha>:
     948:	b5f0      	push	{r4, r5, r6, r7, lr}
     94a:	2500      	movs	r5, #0
     94c:	4c21      	ldr	r4, [pc, #132]	; (9d4 <test_pbkdf2_hmac_isha+0x8c>)
     94e:	22dc      	movs	r2, #220	; 0xdc
     950:	44a5      	add	sp, r4
     952:	4921      	ldr	r1, [pc, #132]	; (9d8 <test_pbkdf2_hmac_isha+0x90>)
     954:	a809      	add	r0, sp, #36	; 0x24
     956:	f002 f8d1 	bl	2afc <memcpy>
     95a:	ac09      	add	r4, sp, #36	; 0x24
     95c:	9504      	str	r5, [sp, #16]
     95e:	6827      	ldr	r7, [r4, #0]
     960:	0038      	movs	r0, r7
     962:	f001 fbf3 	bl	214c <strlen>
     966:	6863      	ldr	r3, [r4, #4]
     968:	9006      	str	r0, [sp, #24]
     96a:	0018      	movs	r0, r3
     96c:	9305      	str	r3, [sp, #20]
     96e:	f001 fbed 	bl	214c <strlen>
     972:	68e6      	ldr	r6, [r4, #12]
     974:	6921      	ldr	r1, [r4, #16]
     976:	0032      	movs	r2, r6
     978:	9007      	str	r0, [sp, #28]
     97a:	a840      	add	r0, sp, #256	; 0x100
     97c:	f002 f877 	bl	2a6e <hexstr_to_bytes>
     980:	abc0      	add	r3, sp, #768	; 0x300
     982:	9302      	str	r3, [sp, #8]
     984:	9601      	str	r6, [sp, #4]
     986:	68a3      	ldr	r3, [r4, #8]
     988:	0038      	movs	r0, r7
     98a:	9a05      	ldr	r2, [sp, #20]
     98c:	9906      	ldr	r1, [sp, #24]
     98e:	9300      	str	r3, [sp, #0]
     990:	9b07      	ldr	r3, [sp, #28]
     992:	f7ff fe3b 	bl	60c <pbkdf2_hmac_isha>
     996:	0032      	movs	r2, r6
     998:	a940      	add	r1, sp, #256	; 0x100
     99a:	a8c0      	add	r0, sp, #768	; 0x300
     99c:	f002 f859 	bl	2a52 <cmp_bin>
     9a0:	002a      	movs	r2, r5
     9a2:	490e      	ldr	r1, [pc, #56]	; (9dc <test_pbkdf2_hmac_isha+0x94>)
     9a4:	2800      	cmp	r0, #0
     9a6:	d011      	beq.n	9cc <test_pbkdf2_hmac_isha+0x84>
     9a8:	480d      	ldr	r0, [pc, #52]	; (9e0 <test_pbkdf2_hmac_isha+0x98>)
     9aa:	f001 fb6b 	bl	2084 <_printf>
     9ae:	9b04      	ldr	r3, [sp, #16]
     9b0:	3301      	adds	r3, #1
     9b2:	9304      	str	r3, [sp, #16]
     9b4:	3501      	adds	r5, #1
     9b6:	3414      	adds	r4, #20
     9b8:	2d0b      	cmp	r5, #11
     9ba:	d1d0      	bne.n	95e <test_pbkdf2_hmac_isha+0x16>
     9bc:	9804      	ldr	r0, [sp, #16]
     9be:	380b      	subs	r0, #11
     9c0:	4243      	negs	r3, r0
     9c2:	4158      	adcs	r0, r3
     9c4:	b2c0      	uxtb	r0, r0
     9c6:	4b07      	ldr	r3, [pc, #28]	; (9e4 <test_pbkdf2_hmac_isha+0x9c>)
     9c8:	449d      	add	sp, r3
     9ca:	bdf0      	pop	{r4, r5, r6, r7, pc}
     9cc:	4806      	ldr	r0, [pc, #24]	; (9e8 <test_pbkdf2_hmac_isha+0xa0>)
     9ce:	f001 fb59 	bl	2084 <_printf>
     9d2:	e7ef      	b.n	9b4 <test_pbkdf2_hmac_isha+0x6c>
     9d4:	fffffafc 	.word	0xfffffafc
     9d8:	00002ce8 	.word	0x00002ce8
     9dc:	000036ca 	.word	0x000036ca
     9e0:	0000369e 	.word	0x0000369e
     9e4:	00000504 	.word	0x00000504
     9e8:	000036b4 	.word	0x000036b4

000009ec <HardFault_Handler>:
     9ec:	2004      	movs	r0, #4
     9ee:	4671      	mov	r1, lr
     9f0:	4208      	tst	r0, r1
     9f2:	d002      	beq.n	9fa <_MSP>
     9f4:	f3ef 8009 	mrs	r0, PSP
     9f8:	e001      	b.n	9fe <_process>

000009fa <_MSP>:
     9fa:	f3ef 8008 	mrs	r0, MSP

000009fe <_process>:
     9fe:	6981      	ldr	r1, [r0, #24]
     a00:	880a      	ldrh	r2, [r1, #0]
     a02:	4b04      	ldr	r3, [pc, #16]	; (a14 <_semihost_return+0xa>)
     a04:	429a      	cmp	r2, r3
     a06:	d000      	beq.n	a0a <_semihost_return>
     a08:	e7fe      	b.n	a08 <_process+0xa>

00000a0a <_semihost_return>:
     a0a:	3102      	adds	r1, #2
     a0c:	6181      	str	r1, [r0, #24]
     a0e:	2120      	movs	r1, #32
     a10:	6001      	str	r1, [r0, #0]
     a12:	4770      	bx	lr
     a14:	0000beab 	.word	0x0000beab

00000a18 <init_ticktime>:
     a18:	2296      	movs	r2, #150	; 0x96
     a1a:	21c0      	movs	r1, #192	; 0xc0
     a1c:	4b10      	ldr	r3, [pc, #64]	; (a60 <init_ticktime+0x48>)
     a1e:	4811      	ldr	r0, [pc, #68]	; (a64 <init_ticktime+0x4c>)
     a20:	0052      	lsls	r2, r2, #1
     a22:	605a      	str	r2, [r3, #4]
     a24:	6a02      	ldr	r2, [r0, #32]
     a26:	0609      	lsls	r1, r1, #24
     a28:	0212      	lsls	r2, r2, #8
     a2a:	0a12      	lsrs	r2, r2, #8
     a2c:	430a      	orrs	r2, r1
     a2e:	6202      	str	r2, [r0, #32]
     a30:	2180      	movs	r1, #128	; 0x80
     a32:	20c0      	movs	r0, #192	; 0xc0
     a34:	4a0c      	ldr	r2, [pc, #48]	; (a68 <init_ticktime+0x50>)
     a36:	0609      	lsls	r1, r1, #24
     a38:	0040      	lsls	r0, r0, #1
     a3a:	5011      	str	r1, [r2, r0]
     a3c:	6011      	str	r1, [r2, #0]
     a3e:	2200      	movs	r2, #0
     a40:	609a      	str	r2, [r3, #8]
     a42:	6819      	ldr	r1, [r3, #0]
     a44:	387d      	subs	r0, #125	; 0x7d
     a46:	38ff      	subs	r0, #255	; 0xff
     a48:	4381      	bics	r1, r0
     a4a:	6019      	str	r1, [r3, #0]
     a4c:	2103      	movs	r1, #3
     a4e:	6818      	ldr	r0, [r3, #0]
     a50:	4301      	orrs	r1, r0
     a52:	6019      	str	r1, [r3, #0]
     a54:	4b05      	ldr	r3, [pc, #20]	; (a6c <init_ticktime+0x54>)
     a56:	601a      	str	r2, [r3, #0]
     a58:	4b05      	ldr	r3, [pc, #20]	; (a70 <init_ticktime+0x58>)
     a5a:	601a      	str	r2, [r3, #0]
     a5c:	4770      	bx	lr
     a5e:	46c0      	nop			; (mov r8, r8)
     a60:	e000e010 	.word	0xe000e010
     a64:	e000ed00 	.word	0xe000ed00
     a68:	e000e100 	.word	0xe000e100
     a6c:	1ffff098 	.word	0x1ffff098
     a70:	1ffff09c 	.word	0x1ffff09c

00000a74 <SysTick_Handler>:
     a74:	4a02      	ldr	r2, [pc, #8]	; (a80 <SysTick_Handler+0xc>)
     a76:	6813      	ldr	r3, [r2, #0]
     a78:	3301      	adds	r3, #1
     a7a:	6013      	str	r3, [r2, #0]
     a7c:	4770      	bx	lr
     a7e:	46c0      	nop			; (mov r8, r8)
     a80:	1ffff098 	.word	0x1ffff098

00000a84 <reset_timer>:
     a84:	4b02      	ldr	r3, [pc, #8]	; (a90 <reset_timer+0xc>)
     a86:	681a      	ldr	r2, [r3, #0]
     a88:	4b02      	ldr	r3, [pc, #8]	; (a94 <reset_timer+0x10>)
     a8a:	601a      	str	r2, [r3, #0]
     a8c:	4770      	bx	lr
     a8e:	46c0      	nop			; (mov r8, r8)
     a90:	1ffff098 	.word	0x1ffff098
     a94:	1ffff09c 	.word	0x1ffff09c

00000a98 <get_timer>:
     a98:	4b02      	ldr	r3, [pc, #8]	; (aa4 <get_timer+0xc>)
     a9a:	6818      	ldr	r0, [r3, #0]
     a9c:	4b02      	ldr	r3, [pc, #8]	; (aa8 <get_timer+0x10>)
     a9e:	681b      	ldr	r3, [r3, #0]
     aa0:	1ac0      	subs	r0, r0, r3
     aa2:	4770      	bx	lr
     aa4:	1ffff098 	.word	0x1ffff098
     aa8:	1ffff09c 	.word	0x1ffff09c

00000aac <CLOCK_GetFllRefClkFreq>:
     aac:	b510      	push	{r4, lr}
     aae:	4a0f      	ldr	r2, [pc, #60]	; (aec <CLOCK_GetFllRefClkFreq+0x40>)
     ab0:	7993      	ldrb	r3, [r2, #6]
     ab2:	06db      	lsls	r3, r3, #27
     ab4:	d417      	bmi.n	ae6 <CLOCK_GetFllRefClkFreq+0x3a>
     ab6:	4b0e      	ldr	r3, [pc, #56]	; (af0 <CLOCK_GetFllRefClkFreq+0x44>)
     ab8:	6818      	ldr	r0, [r3, #0]
     aba:	2800      	cmp	r0, #0
     abc:	d00c      	beq.n	ad8 <CLOCK_GetFllRefClkFreq+0x2c>
     abe:	7813      	ldrb	r3, [r2, #0]
     ac0:	7852      	ldrb	r2, [r2, #1]
     ac2:	069b      	lsls	r3, r3, #26
     ac4:	0f5b      	lsrs	r3, r3, #29
     ac6:	0692      	lsls	r2, r2, #26
     ac8:	40d8      	lsrs	r0, r3
     aca:	0f92      	lsrs	r2, r2, #30
     acc:	d004      	beq.n	ad8 <CLOCK_GetFllRefClkFreq+0x2c>
     ace:	2b06      	cmp	r3, #6
     ad0:	d003      	beq.n	ada <CLOCK_GetFllRefClkFreq+0x2e>
     ad2:	2b07      	cmp	r3, #7
     ad4:	d005      	beq.n	ae2 <CLOCK_GetFllRefClkFreq+0x36>
     ad6:	0940      	lsrs	r0, r0, #5
     ad8:	bd10      	pop	{r4, pc}
     ada:	2114      	movs	r1, #20
     adc:	f002 f83a 	bl	2b54 <__aeabi_uidiv>
     ae0:	e7fa      	b.n	ad8 <CLOCK_GetFllRefClkFreq+0x2c>
     ae2:	210c      	movs	r1, #12
     ae4:	e7fa      	b.n	adc <CLOCK_GetFllRefClkFreq+0x30>
     ae6:	4b03      	ldr	r3, [pc, #12]	; (af4 <CLOCK_GetFllRefClkFreq+0x48>)
     ae8:	6818      	ldr	r0, [r3, #0]
     aea:	e7f5      	b.n	ad8 <CLOCK_GetFllRefClkFreq+0x2c>
     aec:	40064000 	.word	0x40064000
     af0:	1ffff0a0 	.word	0x1ffff0a0
     af4:	1ffff080 	.word	0x1ffff080

00000af8 <CLOCK_SetSimConfig>:
     af8:	b530      	push	{r4, r5, lr}
     afa:	2580      	movs	r5, #128	; 0x80
     afc:	4a0c      	ldr	r2, [pc, #48]	; (b30 <CLOCK_SetSimConfig+0x38>)
     afe:	6841      	ldr	r1, [r0, #4]
     b00:	4b0c      	ldr	r3, [pc, #48]	; (b34 <CLOCK_SetSimConfig+0x3c>)
     b02:	4c0d      	ldr	r4, [pc, #52]	; (b38 <CLOCK_SetSimConfig+0x40>)
     b04:	50d1      	str	r1, [r2, r3]
     b06:	7803      	ldrb	r3, [r0, #0]
     b08:	026d      	lsls	r5, r5, #9
     b0a:	041b      	lsls	r3, r3, #16
     b0c:	5911      	ldr	r1, [r2, r4]
     b0e:	402b      	ands	r3, r5
     b10:	4d0a      	ldr	r5, [pc, #40]	; (b3c <CLOCK_SetSimConfig+0x44>)
     b12:	4029      	ands	r1, r5
     b14:	430b      	orrs	r3, r1
     b16:	5113      	str	r3, [r2, r4]
     b18:	7843      	ldrb	r3, [r0, #1]
     b1a:	20c0      	movs	r0, #192	; 0xc0
     b1c:	049b      	lsls	r3, r3, #18
     b1e:	0300      	lsls	r0, r0, #12
     b20:	6811      	ldr	r1, [r2, #0]
     b22:	4003      	ands	r3, r0
     b24:	4806      	ldr	r0, [pc, #24]	; (b40 <CLOCK_SetSimConfig+0x48>)
     b26:	4001      	ands	r1, r0
     b28:	430b      	orrs	r3, r1
     b2a:	6013      	str	r3, [r2, #0]
     b2c:	bd30      	pop	{r4, r5, pc}
     b2e:	46c0      	nop			; (mov r8, r8)
     b30:	40047000 	.word	0x40047000
     b34:	00001044 	.word	0x00001044
     b38:	00001004 	.word	0x00001004
     b3c:	fffeffff 	.word	0xfffeffff
     b40:	fff3ffff 	.word	0xfff3ffff

00000b44 <CLOCK_GetFllFreq>:
     b44:	b510      	push	{r4, lr}
     b46:	4c0c      	ldr	r4, [pc, #48]	; (b78 <CLOCK_GetFllFreq+0x34>)
     b48:	7863      	ldrb	r3, [r4, #1]
     b4a:	079b      	lsls	r3, r3, #30
     b4c:	d501      	bpl.n	b52 <CLOCK_GetFllFreq+0xe>
     b4e:	2000      	movs	r0, #0
     b50:	bd10      	pop	{r4, pc}
     b52:	79a3      	ldrb	r3, [r4, #6]
     b54:	069b      	lsls	r3, r3, #26
     b56:	d4fa      	bmi.n	b4e <CLOCK_GetFllFreq+0xa>
     b58:	f7ff ffa8 	bl	aac <CLOCK_GetFllRefClkFreq>
     b5c:	2800      	cmp	r0, #0
     b5e:	d0f6      	beq.n	b4e <CLOCK_GetFllFreq+0xa>
     b60:	78e3      	ldrb	r3, [r4, #3]
     b62:	78e1      	ldrb	r1, [r4, #3]
     b64:	065b      	lsls	r3, r3, #25
     b66:	0f9b      	lsrs	r3, r3, #30
     b68:	09c9      	lsrs	r1, r1, #7
     b6a:	005b      	lsls	r3, r3, #1
     b6c:	4a03      	ldr	r2, [pc, #12]	; (b7c <CLOCK_GetFllFreq+0x38>)
     b6e:	185b      	adds	r3, r3, r1
     b70:	005b      	lsls	r3, r3, #1
     b72:	5a9b      	ldrh	r3, [r3, r2]
     b74:	4358      	muls	r0, r3
     b76:	e7eb      	b.n	b50 <CLOCK_GetFllFreq+0xc>
     b78:	40064000 	.word	0x40064000
     b7c:	00002de4 	.word	0x00002de4

00000b80 <CLOCK_GetPll0Freq>:
     b80:	b570      	push	{r4, r5, r6, lr}
     b82:	4c0a      	ldr	r4, [pc, #40]	; (bac <CLOCK_GetPll0Freq+0x2c>)
     b84:	2340      	movs	r3, #64	; 0x40
     b86:	79a2      	ldrb	r2, [r4, #6]
     b88:	0010      	movs	r0, r2
     b8a:	4018      	ands	r0, r3
     b8c:	421a      	tst	r2, r3
     b8e:	d00b      	beq.n	ba8 <CLOCK_GetPll0Freq+0x28>
     b90:	251f      	movs	r5, #31
     b92:	7921      	ldrb	r1, [r4, #4]
     b94:	4b06      	ldr	r3, [pc, #24]	; (bb0 <CLOCK_GetPll0Freq+0x30>)
     b96:	4029      	ands	r1, r5
     b98:	6818      	ldr	r0, [r3, #0]
     b9a:	3101      	adds	r1, #1
     b9c:	f001 ffda 	bl	2b54 <__aeabi_uidiv>
     ba0:	7963      	ldrb	r3, [r4, #5]
     ba2:	402b      	ands	r3, r5
     ba4:	3318      	adds	r3, #24
     ba6:	4358      	muls	r0, r3
     ba8:	bd70      	pop	{r4, r5, r6, pc}
     baa:	46c0      	nop			; (mov r8, r8)
     bac:	40064000 	.word	0x40064000
     bb0:	1ffff0a0 	.word	0x1ffff0a0

00000bb4 <CLOCK_GetPllFllSelClkFreq>:
     bb4:	4a06      	ldr	r2, [pc, #24]	; (bd0 <CLOCK_GetPllFllSelClkFreq+0x1c>)
     bb6:	4b07      	ldr	r3, [pc, #28]	; (bd4 <CLOCK_GetPllFllSelClkFreq+0x20>)
     bb8:	b510      	push	{r4, lr}
     bba:	58d3      	ldr	r3, [r2, r3]
     bbc:	03db      	lsls	r3, r3, #15
     bbe:	d402      	bmi.n	bc6 <CLOCK_GetPllFllSelClkFreq+0x12>
     bc0:	f7ff ffc0 	bl	b44 <CLOCK_GetFllFreq>
     bc4:	bd10      	pop	{r4, pc}
     bc6:	f7ff ffdb 	bl	b80 <CLOCK_GetPll0Freq>
     bca:	0840      	lsrs	r0, r0, #1
     bcc:	e7fa      	b.n	bc4 <CLOCK_GetPllFllSelClkFreq+0x10>
     bce:	46c0      	nop			; (mov r8, r8)
     bd0:	40047000 	.word	0x40047000
     bd4:	00001004 	.word	0x00001004

00000bd8 <CLOCK_SetInternalRefClkConfig>:
     bd8:	b570      	push	{r4, r5, r6, lr}
     bda:	4b1b      	ldr	r3, [pc, #108]	; (c48 <CLOCK_SetInternalRefClkConfig+0x70>)
     bdc:	799c      	ldrb	r4, [r3, #6]
     bde:	799e      	ldrb	r6, [r3, #6]
     be0:	7a1d      	ldrb	r5, [r3, #8]
     be2:	0724      	lsls	r4, r4, #28
     be4:	072d      	lsls	r5, r5, #28
     be6:	0fa4      	lsrs	r4, r4, #30
     be8:	b2f6      	uxtb	r6, r6
     bea:	0f6d      	lsrs	r5, r5, #29
     bec:	4295      	cmp	r5, r2
     bee:	d015      	beq.n	c1c <CLOCK_SetInternalRefClkConfig+0x44>
     bf0:	07f5      	lsls	r5, r6, #31
     bf2:	d50b      	bpl.n	c0c <CLOCK_SetInternalRefClkConfig+0x34>
     bf4:	2c01      	cmp	r4, #1
     bf6:	d002      	beq.n	bfe <CLOCK_SetInternalRefClkConfig+0x26>
     bf8:	781d      	ldrb	r5, [r3, #0]
     bfa:	07ad      	lsls	r5, r5, #30
     bfc:	d506      	bpl.n	c0c <CLOCK_SetInternalRefClkConfig+0x34>
     bfe:	2601      	movs	r6, #1
     c00:	785d      	ldrb	r5, [r3, #1]
     c02:	43b5      	bics	r5, r6
     c04:	705d      	strb	r5, [r3, #1]
     c06:	799d      	ldrb	r5, [r3, #6]
     c08:	4235      	tst	r5, r6
     c0a:	d1fc      	bne.n	c06 <CLOCK_SetInternalRefClkConfig+0x2e>
     c0c:	260e      	movs	r6, #14
     c0e:	7a1d      	ldrb	r5, [r3, #8]
     c10:	0052      	lsls	r2, r2, #1
     c12:	4032      	ands	r2, r6
     c14:	3621      	adds	r6, #33	; 0x21
     c16:	43b5      	bics	r5, r6
     c18:	432a      	orrs	r2, r5
     c1a:	721a      	strb	r2, [r3, #8]
     c1c:	2501      	movs	r5, #1
     c1e:	785a      	ldrb	r2, [r3, #1]
     c20:	43aa      	bics	r2, r5
     c22:	400d      	ands	r5, r1
     c24:	432a      	orrs	r2, r5
     c26:	2503      	movs	r5, #3
     c28:	705a      	strb	r2, [r3, #1]
     c2a:	781a      	ldrb	r2, [r3, #0]
     c2c:	43aa      	bics	r2, r5
     c2e:	4302      	orrs	r2, r0
     c30:	701a      	strb	r2, [r3, #0]
     c32:	2c01      	cmp	r4, #1
     c34:	d001      	beq.n	c3a <CLOCK_SetInternalRefClkConfig+0x62>
     c36:	0782      	lsls	r2, r0, #30
     c38:	d504      	bpl.n	c44 <CLOCK_SetInternalRefClkConfig+0x6c>
     c3a:	2001      	movs	r0, #1
     c3c:	799a      	ldrb	r2, [r3, #6]
     c3e:	4002      	ands	r2, r0
     c40:	428a      	cmp	r2, r1
     c42:	d1fb      	bne.n	c3c <CLOCK_SetInternalRefClkConfig+0x64>
     c44:	2000      	movs	r0, #0
     c46:	bd70      	pop	{r4, r5, r6, pc}
     c48:	40064000 	.word	0x40064000

00000c4c <CLOCK_EnablePll0>:
     c4c:	b510      	push	{r4, lr}
     c4e:	241f      	movs	r4, #31
     c50:	7842      	ldrb	r2, [r0, #1]
     c52:	4b09      	ldr	r3, [pc, #36]	; (c78 <CLOCK_EnablePll0+0x2c>)
     c54:	4022      	ands	r2, r4
     c56:	711a      	strb	r2, [r3, #4]
     c58:	7959      	ldrb	r1, [r3, #5]
     c5a:	7882      	ldrb	r2, [r0, #2]
     c5c:	43a1      	bics	r1, r4
     c5e:	4022      	ands	r2, r4
     c60:	430a      	orrs	r2, r1
     c62:	715a      	strb	r2, [r3, #5]
     c64:	7801      	ldrb	r1, [r0, #0]
     c66:	791a      	ldrb	r2, [r3, #4]
     c68:	430a      	orrs	r2, r1
     c6a:	2140      	movs	r1, #64	; 0x40
     c6c:	430a      	orrs	r2, r1
     c6e:	711a      	strb	r2, [r3, #4]
     c70:	799a      	ldrb	r2, [r3, #6]
     c72:	420a      	tst	r2, r1
     c74:	d0fc      	beq.n	c70 <CLOCK_EnablePll0+0x24>
     c76:	bd10      	pop	{r4, pc}
     c78:	40064000 	.word	0x40064000

00000c7c <CLOCK_InitOsc0>:
     c7c:	6802      	ldr	r2, [r0, #0]
     c7e:	4915      	ldr	r1, [pc, #84]	; (cd4 <CLOCK_InitOsc0+0x58>)
     c80:	2300      	movs	r3, #0
     c82:	b530      	push	{r4, r5, lr}
     c84:	428a      	cmp	r2, r1
     c86:	d904      	bls.n	c92 <CLOCK_InitOsc0+0x16>
     c88:	4b13      	ldr	r3, [pc, #76]	; (cd8 <CLOCK_InitOsc0+0x5c>)
     c8a:	4293      	cmp	r3, r2
     c8c:	419b      	sbcs	r3, r3
     c8e:	425b      	negs	r3, r3
     c90:	3301      	adds	r3, #1
     c92:	240f      	movs	r4, #15
     c94:	4911      	ldr	r1, [pc, #68]	; (cdc <CLOCK_InitOsc0+0x60>)
     c96:	253c      	movs	r5, #60	; 0x3c
     c98:	780a      	ldrb	r2, [r1, #0]
     c9a:	011b      	lsls	r3, r3, #4
     c9c:	43a2      	bics	r2, r4
     c9e:	7904      	ldrb	r4, [r0, #4]
     ca0:	4322      	orrs	r2, r4
     ca2:	245f      	movs	r4, #95	; 0x5f
     ca4:	700a      	strb	r2, [r1, #0]
     ca6:	780a      	ldrb	r2, [r1, #0]
     ca8:	4022      	ands	r2, r4
     caa:	7984      	ldrb	r4, [r0, #6]
     cac:	4322      	orrs	r2, r4
     cae:	4c0c      	ldr	r4, [pc, #48]	; (ce0 <CLOCK_InitOsc0+0x64>)
     cb0:	700a      	strb	r2, [r1, #0]
     cb2:	7862      	ldrb	r2, [r4, #1]
     cb4:	7940      	ldrb	r0, [r0, #5]
     cb6:	43aa      	bics	r2, r5
     cb8:	4302      	orrs	r2, r0
     cba:	4313      	orrs	r3, r2
     cbc:	7063      	strb	r3, [r4, #1]
     cbe:	2800      	cmp	r0, #0
     cc0:	d007      	beq.n	cd2 <CLOCK_InitOsc0+0x56>
     cc2:	780b      	ldrb	r3, [r1, #0]
     cc4:	b25b      	sxtb	r3, r3
     cc6:	2b00      	cmp	r3, #0
     cc8:	da03      	bge.n	cd2 <CLOCK_InitOsc0+0x56>
     cca:	2302      	movs	r3, #2
     ccc:	79a2      	ldrb	r2, [r4, #6]
     cce:	421a      	tst	r2, r3
     cd0:	d0fc      	beq.n	ccc <CLOCK_InitOsc0+0x50>
     cd2:	bd30      	pop	{r4, r5, pc}
     cd4:	00009897 	.word	0x00009897
     cd8:	007a1200 	.word	0x007a1200
     cdc:	40065000 	.word	0x40065000
     ce0:	40064000 	.word	0x40064000

00000ce4 <CLOCK_SetPbeMode>:
     ce4:	2202      	movs	r2, #2
     ce6:	0008      	movs	r0, r1
     ce8:	b510      	push	{r4, lr}
     cea:	4c11      	ldr	r4, [pc, #68]	; (d30 <CLOCK_SetPbeMode+0x4c>)
     cec:	7863      	ldrb	r3, [r4, #1]
     cee:	4393      	bics	r3, r2
     cf0:	7063      	strb	r3, [r4, #1]
     cf2:	7823      	ldrb	r3, [r4, #0]
     cf4:	3239      	adds	r2, #57	; 0x39
     cf6:	4013      	ands	r3, r2
     cf8:	3245      	adds	r2, #69	; 0x45
     cfa:	4313      	orrs	r3, r2
     cfc:	7023      	strb	r3, [r4, #0]
     cfe:	3a64      	subs	r2, #100	; 0x64
     d00:	79a3      	ldrb	r3, [r4, #6]
     d02:	4013      	ands	r3, r2
     d04:	2b08      	cmp	r3, #8
     d06:	d1fb      	bne.n	d00 <CLOCK_SetPbeMode+0x1c>
     d08:	2240      	movs	r2, #64	; 0x40
     d0a:	7963      	ldrb	r3, [r4, #5]
     d0c:	4393      	bics	r3, r2
     d0e:	7163      	strb	r3, [r4, #5]
     d10:	2320      	movs	r3, #32
     d12:	79a2      	ldrb	r2, [r4, #6]
     d14:	421a      	tst	r2, r3
     d16:	d1fc      	bne.n	d12 <CLOCK_SetPbeMode+0x2e>
     d18:	f7ff ff98 	bl	c4c <CLOCK_EnablePll0>
     d1c:	2340      	movs	r3, #64	; 0x40
     d1e:	7962      	ldrb	r2, [r4, #5]
     d20:	4313      	orrs	r3, r2
     d22:	7163      	strb	r3, [r4, #5]
     d24:	2320      	movs	r3, #32
     d26:	79a2      	ldrb	r2, [r4, #6]
     d28:	421a      	tst	r2, r3
     d2a:	d0fc      	beq.n	d26 <CLOCK_SetPbeMode+0x42>
     d2c:	2000      	movs	r0, #0
     d2e:	bd10      	pop	{r4, pc}
     d30:	40064000 	.word	0x40064000

00000d34 <CLOCK_BootToPeeMode>:
     d34:	0008      	movs	r0, r1
     d36:	b510      	push	{r4, lr}
     d38:	0011      	movs	r1, r2
     d3a:	f7ff ffd3 	bl	ce4 <CLOCK_SetPbeMode>
     d3e:	213f      	movs	r1, #63	; 0x3f
     d40:	4a05      	ldr	r2, [pc, #20]	; (d58 <CLOCK_BootToPeeMode+0x24>)
     d42:	7813      	ldrb	r3, [r2, #0]
     d44:	400b      	ands	r3, r1
     d46:	7013      	strb	r3, [r2, #0]
     d48:	393c      	subs	r1, #60	; 0x3c
     d4a:	7993      	ldrb	r3, [r2, #6]
     d4c:	089b      	lsrs	r3, r3, #2
     d4e:	400b      	ands	r3, r1
     d50:	2b03      	cmp	r3, #3
     d52:	d1fa      	bne.n	d4a <CLOCK_BootToPeeMode+0x16>
     d54:	2000      	movs	r0, #0
     d56:	bd10      	pop	{r4, pc}
     d58:	40064000 	.word	0x40064000

00000d5c <LPSCI_Init>:
     d5c:	b5f0      	push	{r4, r5, r6, r7, lr}
     d5e:	680e      	ldr	r6, [r1, #0]
     d60:	b089      	sub	sp, #36	; 0x24
     d62:	00b3      	lsls	r3, r6, #2
     d64:	9305      	str	r3, [sp, #20]
     d66:	2304      	movs	r3, #4
     d68:	9300      	str	r3, [sp, #0]
     d6a:	2300      	movs	r3, #0
     d6c:	0004      	movs	r4, r0
     d6e:	000f      	movs	r7, r1
     d70:	9206      	str	r2, [sp, #24]
     d72:	9604      	str	r6, [sp, #16]
     d74:	9303      	str	r3, [sp, #12]
     d76:	9302      	str	r3, [sp, #8]
     d78:	9905      	ldr	r1, [sp, #20]
     d7a:	9806      	ldr	r0, [sp, #24]
     d7c:	f001 feea 	bl	2b54 <__aeabi_uidiv>
     d80:	b280      	uxth	r0, r0
     d82:	1c05      	adds	r5, r0, #0
     d84:	2800      	cmp	r0, #0
     d86:	d100      	bne.n	d8a <LPSCI_Init+0x2e>
     d88:	2501      	movs	r5, #1
     d8a:	9900      	ldr	r1, [sp, #0]
     d8c:	b2ad      	uxth	r5, r5
     d8e:	4369      	muls	r1, r5
     d90:	9806      	ldr	r0, [sp, #24]
     d92:	f001 fedf 	bl	2b54 <__aeabi_uidiv>
     d96:	9900      	ldr	r1, [sp, #0]
     d98:	1b83      	subs	r3, r0, r6
     d9a:	9301      	str	r3, [sp, #4]
     d9c:	1c6b      	adds	r3, r5, #1
     d9e:	4359      	muls	r1, r3
     da0:	9806      	ldr	r0, [sp, #24]
     da2:	9307      	str	r3, [sp, #28]
     da4:	f001 fed6 	bl	2b54 <__aeabi_uidiv>
     da8:	9b01      	ldr	r3, [sp, #4]
     daa:	1a30      	subs	r0, r6, r0
     dac:	4298      	cmp	r0, r3
     dae:	d202      	bcs.n	db6 <LPSCI_Init+0x5a>
     db0:	466b      	mov	r3, sp
     db2:	8b9d      	ldrh	r5, [r3, #28]
     db4:	9001      	str	r0, [sp, #4]
     db6:	9b01      	ldr	r3, [sp, #4]
     db8:	9a04      	ldr	r2, [sp, #16]
     dba:	4293      	cmp	r3, r2
     dbc:	d803      	bhi.n	dc6 <LPSCI_Init+0x6a>
     dbe:	9304      	str	r3, [sp, #16]
     dc0:	9b00      	ldr	r3, [sp, #0]
     dc2:	9502      	str	r5, [sp, #8]
     dc4:	9303      	str	r3, [sp, #12]
     dc6:	9b00      	ldr	r3, [sp, #0]
     dc8:	3301      	adds	r3, #1
     dca:	9300      	str	r3, [sp, #0]
     dcc:	9b05      	ldr	r3, [sp, #20]
     dce:	199b      	adds	r3, r3, r6
     dd0:	9305      	str	r3, [sp, #20]
     dd2:	9b00      	ldr	r3, [sp, #0]
     dd4:	2b21      	cmp	r3, #33	; 0x21
     dd6:	d1cf      	bne.n	d78 <LPSCI_Init+0x1c>
     dd8:	2164      	movs	r1, #100	; 0x64
     dda:	0030      	movs	r0, r6
     ddc:	f001 feba 	bl	2b54 <__aeabi_uidiv>
     de0:	2303      	movs	r3, #3
     de2:	4343      	muls	r3, r0
     de4:	9a04      	ldr	r2, [sp, #16]
     de6:	4293      	cmp	r3, r2
     de8:	d348      	bcc.n	e7c <LPSCI_Init+0x120>
     dea:	2380      	movs	r3, #128	; 0x80
     dec:	4a24      	ldr	r2, [pc, #144]	; (e80 <LPSCI_Init+0x124>)
     dee:	00db      	lsls	r3, r3, #3
     df0:	6811      	ldr	r1, [r2, #0]
     df2:	430b      	orrs	r3, r1
     df4:	6013      	str	r3, [r2, #0]
     df6:	220c      	movs	r2, #12
     df8:	78e3      	ldrb	r3, [r4, #3]
     dfa:	4393      	bics	r3, r2
     dfc:	70e3      	strb	r3, [r4, #3]
     dfe:	9b03      	ldr	r3, [sp, #12]
     e00:	3b04      	subs	r3, #4
     e02:	2b03      	cmp	r3, #3
     e04:	d803      	bhi.n	e0e <LPSCI_Init+0xb2>
     e06:	2302      	movs	r3, #2
     e08:	7ae2      	ldrb	r2, [r4, #11]
     e0a:	4313      	orrs	r3, r2
     e0c:	72e3      	strb	r3, [r4, #11]
     e0e:	221f      	movs	r2, #31
     e10:	7aa3      	ldrb	r3, [r4, #10]
     e12:	9903      	ldr	r1, [sp, #12]
     e14:	4393      	bics	r3, r2
     e16:	3901      	subs	r1, #1
     e18:	430b      	orrs	r3, r1
     e1a:	b2db      	uxtb	r3, r3
     e1c:	72a3      	strb	r3, [r4, #10]
     e1e:	7aa3      	ldrb	r3, [r4, #10]
     e20:	4393      	bics	r3, r2
     e22:	001a      	movs	r2, r3
     e24:	9b02      	ldr	r3, [sp, #8]
     e26:	0a1b      	lsrs	r3, r3, #8
     e28:	4313      	orrs	r3, r2
     e2a:	b2db      	uxtb	r3, r3
     e2c:	7023      	strb	r3, [r4, #0]
     e2e:	466b      	mov	r3, sp
     e30:	2213      	movs	r2, #19
     e32:	7a1b      	ldrb	r3, [r3, #8]
     e34:	7063      	strb	r3, [r4, #1]
     e36:	78a3      	ldrb	r3, [r4, #2]
     e38:	4393      	bics	r3, r2
     e3a:	793a      	ldrb	r2, [r7, #4]
     e3c:	2a00      	cmp	r2, #0
     e3e:	d002      	beq.n	e46 <LPSCI_Init+0xea>
     e40:	4313      	orrs	r3, r2
     e42:	2210      	movs	r2, #16
     e44:	4313      	orrs	r3, r2
     e46:	2120      	movs	r1, #32
     e48:	70a3      	strb	r3, [r4, #2]
     e4a:	7822      	ldrb	r2, [r4, #0]
     e4c:	438a      	bics	r2, r1
     e4e:	7022      	strb	r2, [r4, #0]
     e50:	797b      	ldrb	r3, [r7, #5]
     e52:	7822      	ldrb	r2, [r4, #0]
     e54:	015b      	lsls	r3, r3, #5
     e56:	400b      	ands	r3, r1
     e58:	4313      	orrs	r3, r2
     e5a:	7023      	strb	r3, [r4, #0]
     e5c:	78e3      	ldrb	r3, [r4, #3]
     e5e:	79ba      	ldrb	r2, [r7, #6]
     e60:	b2db      	uxtb	r3, r3
     e62:	2a00      	cmp	r2, #0
     e64:	d001      	beq.n	e6a <LPSCI_Init+0x10e>
     e66:	2208      	movs	r2, #8
     e68:	4313      	orrs	r3, r2
     e6a:	79fa      	ldrb	r2, [r7, #7]
     e6c:	2a00      	cmp	r2, #0
     e6e:	d001      	beq.n	e74 <LPSCI_Init+0x118>
     e70:	2204      	movs	r2, #4
     e72:	4313      	orrs	r3, r2
     e74:	2000      	movs	r0, #0
     e76:	70e3      	strb	r3, [r4, #3]
     e78:	b009      	add	sp, #36	; 0x24
     e7a:	bdf0      	pop	{r4, r5, r6, r7, pc}
     e7c:	4801      	ldr	r0, [pc, #4]	; (e84 <LPSCI_Init+0x128>)
     e7e:	e7fb      	b.n	e78 <LPSCI_Init+0x11c>
     e80:	40048034 	.word	0x40048034
     e84:	000004b5 	.word	0x000004b5

00000e88 <LPSCI_ClearStatusFlags>:
     e88:	b082      	sub	sp, #8
     e8a:	466b      	mov	r3, sp
     e8c:	1dda      	adds	r2, r3, #7
     e8e:	2300      	movs	r3, #0
     e90:	7013      	strb	r3, [r2, #0]
     e92:	7813      	ldrb	r3, [r2, #0]
     e94:	3301      	adds	r3, #1
     e96:	b2db      	uxtb	r3, r3
     e98:	7013      	strb	r3, [r2, #0]
     e9a:	040b      	lsls	r3, r1, #16
     e9c:	d503      	bpl.n	ea6 <LPSCI_ClearStatusFlags+0x1e>
     e9e:	2380      	movs	r3, #128	; 0x80
     ea0:	7143      	strb	r3, [r0, #5]
     ea2:	4b0b      	ldr	r3, [pc, #44]	; (ed0 <LPSCI_ClearStatusFlags+0x48>)
     ea4:	4019      	ands	r1, r3
     ea6:	044b      	lsls	r3, r1, #17
     ea8:	d503      	bpl.n	eb2 <LPSCI_ClearStatusFlags+0x2a>
     eaa:	2340      	movs	r3, #64	; 0x40
     eac:	7143      	strb	r3, [r0, #5]
     eae:	4b09      	ldr	r3, [pc, #36]	; (ed4 <LPSCI_ClearStatusFlags+0x4c>)
     eb0:	4019      	ands	r1, r3
     eb2:	231f      	movs	r3, #31
     eb4:	000a      	movs	r2, r1
     eb6:	401a      	ands	r2, r3
     eb8:	4219      	tst	r1, r3
     eba:	d002      	beq.n	ec2 <LPSCI_ClearStatusFlags+0x3a>
     ebc:	b2d2      	uxtb	r2, r2
     ebe:	7102      	strb	r2, [r0, #4]
     ec0:	4399      	bics	r1, r3
     ec2:	1e4b      	subs	r3, r1, #1
     ec4:	4199      	sbcs	r1, r3
     ec6:	4248      	negs	r0, r1
     ec8:	4903      	ldr	r1, [pc, #12]	; (ed8 <LPSCI_ClearStatusFlags+0x50>)
     eca:	4008      	ands	r0, r1
     ecc:	b002      	add	sp, #8
     ece:	4770      	bx	lr
     ed0:	ffff7fff 	.word	0xffff7fff
     ed4:	ffffbfff 	.word	0xffffbfff
     ed8:	000004b4 	.word	0x000004b4

00000edc <LPSCI_ReadBlocking>:
     edc:	b5f8      	push	{r3, r4, r5, r6, r7, lr}
     ede:	2304      	movs	r3, #4
     ee0:	000c      	movs	r4, r1
     ee2:	2708      	movs	r7, #8
     ee4:	469c      	mov	ip, r3
     ee6:	188a      	adds	r2, r1, r2
     ee8:	4294      	cmp	r4, r2
     eea:	d02a      	beq.n	f42 <LPSCI_ReadBlocking+0x66>
     eec:	2620      	movs	r6, #32
     eee:	2502      	movs	r5, #2
     ef0:	7903      	ldrb	r3, [r0, #4]
     ef2:	4233      	tst	r3, r6
     ef4:	d003      	beq.n	efe <LPSCI_ReadBlocking+0x22>
     ef6:	79c3      	ldrb	r3, [r0, #7]
     ef8:	7023      	strb	r3, [r4, #0]
     efa:	3401      	adds	r4, #1
     efc:	e7f4      	b.n	ee8 <LPSCI_ReadBlocking+0xc>
     efe:	7901      	ldrb	r1, [r0, #4]
     f00:	7943      	ldrb	r3, [r0, #5]
     f02:	021b      	lsls	r3, r3, #8
     f04:	430b      	orrs	r3, r1
     f06:	423b      	tst	r3, r7
     f08:	d005      	beq.n	f16 <LPSCI_ReadBlocking+0x3a>
     f0a:	2108      	movs	r1, #8
     f0c:	f7ff ffbc 	bl	e88 <LPSCI_ClearStatusFlags>
     f10:	2097      	movs	r0, #151	; 0x97
     f12:	00c0      	lsls	r0, r0, #3
     f14:	bdf8      	pop	{r3, r4, r5, r6, r7, pc}
     f16:	4661      	mov	r1, ip
     f18:	420b      	tst	r3, r1
     f1a:	d004      	beq.n	f26 <LPSCI_ReadBlocking+0x4a>
     f1c:	2104      	movs	r1, #4
     f1e:	f7ff ffb3 	bl	e88 <LPSCI_ClearStatusFlags>
     f22:	4809      	ldr	r0, [pc, #36]	; (f48 <LPSCI_ReadBlocking+0x6c>)
     f24:	e7f6      	b.n	f14 <LPSCI_ReadBlocking+0x38>
     f26:	422b      	tst	r3, r5
     f28:	d004      	beq.n	f34 <LPSCI_ReadBlocking+0x58>
     f2a:	2102      	movs	r1, #2
     f2c:	f7ff ffac 	bl	e88 <LPSCI_ClearStatusFlags>
     f30:	4806      	ldr	r0, [pc, #24]	; (f4c <LPSCI_ReadBlocking+0x70>)
     f32:	e7ef      	b.n	f14 <LPSCI_ReadBlocking+0x38>
     f34:	2101      	movs	r1, #1
     f36:	420b      	tst	r3, r1
     f38:	d0da      	beq.n	ef0 <LPSCI_ReadBlocking+0x14>
     f3a:	f7ff ffa5 	bl	e88 <LPSCI_ClearStatusFlags>
     f3e:	4804      	ldr	r0, [pc, #16]	; (f50 <LPSCI_ReadBlocking+0x74>)
     f40:	e7e8      	b.n	f14 <LPSCI_ReadBlocking+0x38>
     f42:	2000      	movs	r0, #0
     f44:	e7e6      	b.n	f14 <LPSCI_ReadBlocking+0x38>
     f46:	46c0      	nop			; (mov r8, r8)
     f48:	000004b9 	.word	0x000004b9
     f4c:	000004ba 	.word	0x000004ba
     f50:	000004bb 	.word	0x000004bb

00000f54 <UART0_DriverIRQHandler>:
     f54:	b510      	push	{r4, lr}
     f56:	4b03      	ldr	r3, [pc, #12]	; (f64 <UART0_DriverIRQHandler+0x10>)
     f58:	4a03      	ldr	r2, [pc, #12]	; (f68 <UART0_DriverIRQHandler+0x14>)
     f5a:	681b      	ldr	r3, [r3, #0]
     f5c:	6811      	ldr	r1, [r2, #0]
     f5e:	4803      	ldr	r0, [pc, #12]	; (f6c <UART0_DriverIRQHandler+0x18>)
     f60:	4798      	blx	r3
     f62:	bd10      	pop	{r4, pc}
     f64:	1ffff0a8 	.word	0x1ffff0a8
     f68:	1ffff0a4 	.word	0x1ffff0a4
     f6c:	4006a000 	.word	0x4006a000

00000f70 <UART_GetInstance>:
     f70:	1e03      	subs	r3, r0, #0
     f72:	d008      	beq.n	f86 <UART_GetInstance+0x16>
     f74:	4a04      	ldr	r2, [pc, #16]	; (f88 <UART_GetInstance+0x18>)
     f76:	2001      	movs	r0, #1
     f78:	4293      	cmp	r3, r2
     f7a:	d004      	beq.n	f86 <UART_GetInstance+0x16>
     f7c:	4a03      	ldr	r2, [pc, #12]	; (f8c <UART_GetInstance+0x1c>)
     f7e:	1898      	adds	r0, r3, r2
     f80:	1e43      	subs	r3, r0, #1
     f82:	4198      	sbcs	r0, r3
     f84:	3002      	adds	r0, #2
     f86:	4770      	bx	lr
     f88:	4006b000 	.word	0x4006b000
     f8c:	bff94000 	.word	0xbff94000

00000f90 <UART_Init>:
     f90:	b5f7      	push	{r0, r1, r2, r4, r5, r6, r7, lr}
     f92:	680b      	ldr	r3, [r1, #0]
     f94:	0004      	movs	r4, r0
     f96:	000d      	movs	r5, r1
     f98:	0010      	movs	r0, r2
     f9a:	0119      	lsls	r1, r3, #4
     f9c:	0016      	movs	r6, r2
     f9e:	9300      	str	r3, [sp, #0]
     fa0:	f001 fdd8 	bl	2b54 <__aeabi_uidiv>
     fa4:	b280      	uxth	r0, r0
     fa6:	1c07      	adds	r7, r0, #0
     fa8:	2800      	cmp	r0, #0
     faa:	d100      	bne.n	fae <UART_Init+0x1e>
     fac:	2701      	movs	r7, #1
     fae:	b2bf      	uxth	r7, r7
     fb0:	0139      	lsls	r1, r7, #4
     fb2:	0030      	movs	r0, r6
     fb4:	f001 fdce 	bl	2b54 <__aeabi_uidiv>
     fb8:	9b00      	ldr	r3, [sp, #0]
     fba:	0139      	lsls	r1, r7, #4
     fbc:	1ac3      	subs	r3, r0, r3
     fbe:	3110      	adds	r1, #16
     fc0:	0030      	movs	r0, r6
     fc2:	9301      	str	r3, [sp, #4]
     fc4:	f001 fdc6 	bl	2b54 <__aeabi_uidiv>
     fc8:	9b00      	ldr	r3, [sp, #0]
     fca:	1a18      	subs	r0, r3, r0
     fcc:	9b01      	ldr	r3, [sp, #4]
     fce:	4298      	cmp	r0, r3
     fd0:	d202      	bcs.n	fd8 <UART_Init+0x48>
     fd2:	3701      	adds	r7, #1
     fd4:	b2bf      	uxth	r7, r7
     fd6:	9001      	str	r0, [sp, #4]
     fd8:	2164      	movs	r1, #100	; 0x64
     fda:	9800      	ldr	r0, [sp, #0]
     fdc:	f001 fdba 	bl	2b54 <__aeabi_uidiv>
     fe0:	2303      	movs	r3, #3
     fe2:	4343      	muls	r3, r0
     fe4:	9a01      	ldr	r2, [sp, #4]
     fe6:	4293      	cmp	r3, r2
     fe8:	d33c      	bcc.n	1064 <UART_Init+0xd4>
     fea:	0020      	movs	r0, r4
     fec:	f7ff ffc0 	bl	f70 <UART_GetInstance>
     ff0:	4b1d      	ldr	r3, [pc, #116]	; (1068 <UART_Init+0xd8>)
     ff2:	0080      	lsls	r0, r0, #2
     ff4:	58c1      	ldr	r1, [r0, r3]
     ff6:	4b1d      	ldr	r3, [pc, #116]	; (106c <UART_Init+0xdc>)
     ff8:	0c0a      	lsrs	r2, r1, #16
     ffa:	18d2      	adds	r2, r2, r3
     ffc:	2301      	movs	r3, #1
     ffe:	b289      	uxth	r1, r1
    1000:	408b      	lsls	r3, r1
    1002:	6810      	ldr	r0, [r2, #0]
    1004:	4303      	orrs	r3, r0
    1006:	6013      	str	r3, [r2, #0]
    1008:	220c      	movs	r2, #12
    100a:	78e3      	ldrb	r3, [r4, #3]
    100c:	4393      	bics	r3, r2
    100e:	70e3      	strb	r3, [r4, #3]
    1010:	7823      	ldrb	r3, [r4, #0]
    1012:	3213      	adds	r2, #19
    1014:	4393      	bics	r3, r2
    1016:	001a      	movs	r2, r3
    1018:	0a3b      	lsrs	r3, r7, #8
    101a:	4313      	orrs	r3, r2
    101c:	2213      	movs	r2, #19
    101e:	7023      	strb	r3, [r4, #0]
    1020:	b2fb      	uxtb	r3, r7
    1022:	7063      	strb	r3, [r4, #1]
    1024:	78a3      	ldrb	r3, [r4, #2]
    1026:	4393      	bics	r3, r2
    1028:	792a      	ldrb	r2, [r5, #4]
    102a:	2a00      	cmp	r2, #0
    102c:	d002      	beq.n	1034 <UART_Init+0xa4>
    102e:	4313      	orrs	r3, r2
    1030:	2210      	movs	r2, #16
    1032:	4313      	orrs	r3, r2
    1034:	2120      	movs	r1, #32
    1036:	70a3      	strb	r3, [r4, #2]
    1038:	796b      	ldrb	r3, [r5, #5]
    103a:	7822      	ldrb	r2, [r4, #0]
    103c:	015b      	lsls	r3, r3, #5
    103e:	438a      	bics	r2, r1
    1040:	400b      	ands	r3, r1
    1042:	4313      	orrs	r3, r2
    1044:	7023      	strb	r3, [r4, #0]
    1046:	78e3      	ldrb	r3, [r4, #3]
    1048:	79aa      	ldrb	r2, [r5, #6]
    104a:	b2db      	uxtb	r3, r3
    104c:	2a00      	cmp	r2, #0
    104e:	d001      	beq.n	1054 <UART_Init+0xc4>
    1050:	2208      	movs	r2, #8
    1052:	4313      	orrs	r3, r2
    1054:	79ea      	ldrb	r2, [r5, #7]
    1056:	2a00      	cmp	r2, #0
    1058:	d001      	beq.n	105e <UART_Init+0xce>
    105a:	2204      	movs	r2, #4
    105c:	4313      	orrs	r3, r2
    105e:	2000      	movs	r0, #0
    1060:	70e3      	strb	r3, [r4, #3]
    1062:	bdfe      	pop	{r1, r2, r3, r4, r5, r6, r7, pc}
    1064:	4802      	ldr	r0, [pc, #8]	; (1070 <UART_Init+0xe0>)
    1066:	e7fc      	b.n	1062 <UART_Init+0xd2>
    1068:	00002dc4 	.word	0x00002dc4
    106c:	40047000 	.word	0x40047000
    1070:	000003f5 	.word	0x000003f5

00001074 <UART_ReadBlocking>:
    1074:	b5f0      	push	{r4, r5, r6, r7, lr}
    1076:	2608      	movs	r6, #8
    1078:	2704      	movs	r7, #4
    107a:	188a      	adds	r2, r1, r2
    107c:	4291      	cmp	r1, r2
    107e:	d017      	beq.n	10b0 <UART_ReadBlocking+0x3c>
    1080:	2520      	movs	r5, #32
    1082:	e00e      	b.n	10a2 <UART_ReadBlocking+0x2e>
    1084:	7903      	ldrb	r3, [r0, #4]
    1086:	469c      	mov	ip, r3
    1088:	4664      	mov	r4, ip
    108a:	7943      	ldrb	r3, [r0, #5]
    108c:	021b      	lsls	r3, r3, #8
    108e:	4323      	orrs	r3, r4
    1090:	4233      	tst	r3, r6
    1092:	d10f      	bne.n	10b4 <UART_ReadBlocking+0x40>
    1094:	423b      	tst	r3, r7
    1096:	d10f      	bne.n	10b8 <UART_ReadBlocking+0x44>
    1098:	2402      	movs	r4, #2
    109a:	4223      	tst	r3, r4
    109c:	d10e      	bne.n	10bc <UART_ReadBlocking+0x48>
    109e:	07db      	lsls	r3, r3, #31
    10a0:	d40e      	bmi.n	10c0 <UART_ReadBlocking+0x4c>
    10a2:	7903      	ldrb	r3, [r0, #4]
    10a4:	422b      	tst	r3, r5
    10a6:	d0ed      	beq.n	1084 <UART_ReadBlocking+0x10>
    10a8:	79c3      	ldrb	r3, [r0, #7]
    10aa:	700b      	strb	r3, [r1, #0]
    10ac:	3101      	adds	r1, #1
    10ae:	e7e5      	b.n	107c <UART_ReadBlocking+0x8>
    10b0:	2000      	movs	r0, #0
    10b2:	bdf0      	pop	{r4, r5, r6, r7, pc}
    10b4:	4804      	ldr	r0, [pc, #16]	; (10c8 <UART_ReadBlocking+0x54>)
    10b6:	e7fc      	b.n	10b2 <UART_ReadBlocking+0x3e>
    10b8:	4804      	ldr	r0, [pc, #16]	; (10cc <UART_ReadBlocking+0x58>)
    10ba:	e7fa      	b.n	10b2 <UART_ReadBlocking+0x3e>
    10bc:	4804      	ldr	r0, [pc, #16]	; (10d0 <UART_ReadBlocking+0x5c>)
    10be:	e7f8      	b.n	10b2 <UART_ReadBlocking+0x3e>
    10c0:	20fd      	movs	r0, #253	; 0xfd
    10c2:	0080      	lsls	r0, r0, #2
    10c4:	e7f5      	b.n	10b2 <UART_ReadBlocking+0x3e>
    10c6:	46c0      	nop			; (mov r8, r8)
    10c8:	000003f1 	.word	0x000003f1
    10cc:	000003f2 	.word	0x000003f2
    10d0:	000003f3 	.word	0x000003f3

000010d4 <UART1_DriverIRQHandler>:
    10d4:	b510      	push	{r4, lr}
    10d6:	4b03      	ldr	r3, [pc, #12]	; (10e4 <UART1_DriverIRQHandler+0x10>)
    10d8:	4a03      	ldr	r2, [pc, #12]	; (10e8 <UART1_DriverIRQHandler+0x14>)
    10da:	681b      	ldr	r3, [r3, #0]
    10dc:	6851      	ldr	r1, [r2, #4]
    10de:	4803      	ldr	r0, [pc, #12]	; (10ec <UART1_DriverIRQHandler+0x18>)
    10e0:	4798      	blx	r3
    10e2:	bd10      	pop	{r4, pc}
    10e4:	1ffff0b8 	.word	0x1ffff0b8
    10e8:	1ffff0ac 	.word	0x1ffff0ac
    10ec:	4006b000 	.word	0x4006b000

000010f0 <UART2_DriverIRQHandler>:
    10f0:	b510      	push	{r4, lr}
    10f2:	4b03      	ldr	r3, [pc, #12]	; (1100 <UART2_DriverIRQHandler+0x10>)
    10f4:	4a03      	ldr	r2, [pc, #12]	; (1104 <UART2_DriverIRQHandler+0x14>)
    10f6:	681b      	ldr	r3, [r3, #0]
    10f8:	6891      	ldr	r1, [r2, #8]
    10fa:	4803      	ldr	r0, [pc, #12]	; (1108 <UART2_DriverIRQHandler+0x18>)
    10fc:	4798      	blx	r3
    10fe:	bd10      	pop	{r4, pc}
    1100:	1ffff0b8 	.word	0x1ffff0b8
    1104:	1ffff0ac 	.word	0x1ffff0ac
    1108:	4006c000 	.word	0x4006c000

0000110c <BOARD_InitDebugConsole>:
    110c:	4909      	ldr	r1, [pc, #36]	; (1134 <BOARD_InitDebugConsole+0x28>)
    110e:	480a      	ldr	r0, [pc, #40]	; (1138 <BOARD_InitDebugConsole+0x2c>)
    1110:	4a0a      	ldr	r2, [pc, #40]	; (113c <BOARD_InitDebugConsole+0x30>)
    1112:	5843      	ldr	r3, [r0, r1]
    1114:	b510      	push	{r4, lr}
    1116:	401a      	ands	r2, r3
    1118:	2380      	movs	r3, #128	; 0x80
    111a:	04db      	lsls	r3, r3, #19
    111c:	4313      	orrs	r3, r2
    111e:	5043      	str	r3, [r0, r1]
    1120:	f7ff fd48 	bl	bb4 <CLOCK_GetPllFllSelClkFreq>
    1124:	21e1      	movs	r1, #225	; 0xe1
    1126:	0003      	movs	r3, r0
    1128:	2203      	movs	r2, #3
    112a:	4805      	ldr	r0, [pc, #20]	; (1140 <BOARD_InitDebugConsole+0x34>)
    112c:	0249      	lsls	r1, r1, #9
    112e:	f7ff f96f 	bl	410 <DbgConsole_Init>
    1132:	bd10      	pop	{r4, pc}
    1134:	00001004 	.word	0x00001004
    1138:	40047000 	.word	0x40047000
    113c:	f3ffffff 	.word	0xf3ffffff
    1140:	4006a000 	.word	0x4006a000

00001144 <BOARD_BootClockRUN>:
    1144:	4a10      	ldr	r2, [pc, #64]	; (1188 <BOARD_BootClockRUN+0x44>)
    1146:	4b11      	ldr	r3, [pc, #68]	; (118c <BOARD_BootClockRUN+0x48>)
    1148:	4911      	ldr	r1, [pc, #68]	; (1190 <BOARD_BootClockRUN+0x4c>)
    114a:	b510      	push	{r4, lr}
    114c:	4811      	ldr	r0, [pc, #68]	; (1194 <BOARD_BootClockRUN+0x50>)
    114e:	50d1      	str	r1, [r2, r3]
    1150:	f7ff fd94 	bl	c7c <CLOCK_InitOsc0>
    1154:	2138      	movs	r1, #56	; 0x38
    1156:	4b10      	ldr	r3, [pc, #64]	; (1198 <BOARD_BootClockRUN+0x54>)
    1158:	4a10      	ldr	r2, [pc, #64]	; (119c <BOARD_BootClockRUN+0x58>)
    115a:	601a      	str	r2, [r3, #0]
    115c:	4a10      	ldr	r2, [pc, #64]	; (11a0 <BOARD_BootClockRUN+0x5c>)
    115e:	7813      	ldrb	r3, [r2, #0]
    1160:	438b      	bics	r3, r1
    1162:	2100      	movs	r1, #0
    1164:	7013      	strb	r3, [r2, #0]
    1166:	4a0f      	ldr	r2, [pc, #60]	; (11a4 <BOARD_BootClockRUN+0x60>)
    1168:	0008      	movs	r0, r1
    116a:	3207      	adds	r2, #7
    116c:	f7ff fde2 	bl	d34 <CLOCK_BootToPeeMode>
    1170:	2200      	movs	r2, #0
    1172:	2002      	movs	r0, #2
    1174:	0011      	movs	r1, r2
    1176:	f7ff fd2f 	bl	bd8 <CLOCK_SetInternalRefClkConfig>
    117a:	480b      	ldr	r0, [pc, #44]	; (11a8 <BOARD_BootClockRUN+0x64>)
    117c:	f7ff fcbc 	bl	af8 <CLOCK_SetSimConfig>
    1180:	4b0a      	ldr	r3, [pc, #40]	; (11ac <BOARD_BootClockRUN+0x68>)
    1182:	4a0b      	ldr	r2, [pc, #44]	; (11b0 <BOARD_BootClockRUN+0x6c>)
    1184:	601a      	str	r2, [r3, #0]
    1186:	bd10      	pop	{r4, pc}
    1188:	40047000 	.word	0x40047000
    118c:	00001044 	.word	0x00001044
    1190:	10030000 	.word	0x10030000
    1194:	00002dd0 	.word	0x00002dd0
    1198:	1ffff0a0 	.word	0x1ffff0a0
    119c:	007a1200 	.word	0x007a1200
    11a0:	40064000 	.word	0x40064000
    11a4:	000036f9 	.word	0x000036f9
    11a8:	00002dd8 	.word	0x00002dd8
    11ac:	1ffff084 	.word	0x1ffff084
    11b0:	02dc6c00 	.word	0x02dc6c00

000011b4 <BOARD_InitPins>:
    11b4:	2380      	movs	r3, #128	; 0x80
    11b6:	490b      	ldr	r1, [pc, #44]	; (11e4 <BOARD_InitPins+0x30>)
    11b8:	009b      	lsls	r3, r3, #2
    11ba:	680a      	ldr	r2, [r1, #0]
    11bc:	480a      	ldr	r0, [pc, #40]	; (11e8 <BOARD_InitPins+0x34>)
    11be:	431a      	orrs	r2, r3
    11c0:	600a      	str	r2, [r1, #0]
    11c2:	490a      	ldr	r1, [pc, #40]	; (11ec <BOARD_InitPins+0x38>)
    11c4:	684a      	ldr	r2, [r1, #4]
    11c6:	4002      	ands	r2, r0
    11c8:	431a      	orrs	r2, r3
    11ca:	604a      	str	r2, [r1, #4]
    11cc:	688a      	ldr	r2, [r1, #8]
    11ce:	4002      	ands	r2, r0
    11d0:	2007      	movs	r0, #7
    11d2:	4313      	orrs	r3, r2
    11d4:	608b      	str	r3, [r1, #8]
    11d6:	4a06      	ldr	r2, [pc, #24]	; (11f0 <BOARD_InitPins+0x3c>)
    11d8:	4906      	ldr	r1, [pc, #24]	; (11f4 <BOARD_InitPins+0x40>)
    11da:	588b      	ldr	r3, [r1, r2]
    11dc:	4383      	bics	r3, r0
    11de:	508b      	str	r3, [r1, r2]
    11e0:	4770      	bx	lr
    11e2:	46c0      	nop			; (mov r8, r8)
    11e4:	40048038 	.word	0x40048038
    11e8:	fffff8ff 	.word	0xfffff8ff
    11ec:	40049000 	.word	0x40049000
    11f0:	00001010 	.word	0x00001010
    11f4:	40047000 	.word	0x40047000

000011f8 <SystemInit>:
    11f8:	2388      	movs	r3, #136	; 0x88
    11fa:	2100      	movs	r1, #0
    11fc:	4a01      	ldr	r2, [pc, #4]	; (1204 <SystemInit+0xc>)
    11fe:	015b      	lsls	r3, r3, #5
    1200:	50d1      	str	r1, [r2, r3]
    1202:	4770      	bx	lr
    1204:	40047000 	.word	0x40047000

00001208 <_initio>:
    1208:	b537      	push	{r0, r1, r2, r4, r5, lr}
    120a:	4c18      	ldr	r4, [pc, #96]	; (126c <_initio+0x64>)
    120c:	4918      	ldr	r1, [pc, #96]	; (1270 <_initio+0x68>)
    120e:	0022      	movs	r2, r4
    1210:	2000      	movs	r0, #0
    1212:	f001 f88f 	bl	2334 <_fdopen>
    1216:	2380      	movs	r3, #128	; 0x80
    1218:	2280      	movs	r2, #128	; 0x80
    121a:	005b      	lsls	r3, r3, #1
    121c:	2100      	movs	r1, #0
    121e:	0020      	movs	r0, r4
    1220:	00d2      	lsls	r2, r2, #3
    1222:	f000 ff57 	bl	20d4 <setvbuf>
    1226:	4c13      	ldr	r4, [pc, #76]	; (1274 <_initio+0x6c>)
    1228:	4d13      	ldr	r5, [pc, #76]	; (1278 <_initio+0x70>)
    122a:	0022      	movs	r2, r4
    122c:	0029      	movs	r1, r5
    122e:	2001      	movs	r0, #1
    1230:	f001 f880 	bl	2334 <_fdopen>
    1234:	2380      	movs	r3, #128	; 0x80
    1236:	2280      	movs	r2, #128	; 0x80
    1238:	005b      	lsls	r3, r3, #1
    123a:	2100      	movs	r1, #0
    123c:	0020      	movs	r0, r4
    123e:	00d2      	lsls	r2, r2, #3
    1240:	f000 ff48 	bl	20d4 <setvbuf>
    1244:	4b0d      	ldr	r3, [pc, #52]	; (127c <_initio+0x74>)
    1246:	681b      	ldr	r3, [r3, #0]
    1248:	9301      	str	r3, [sp, #4]
    124a:	2b02      	cmp	r3, #2
    124c:	dd0d      	ble.n	126a <_initio+0x62>
    124e:	4c0c      	ldr	r4, [pc, #48]	; (1280 <_initio+0x78>)
    1250:	0029      	movs	r1, r5
    1252:	0022      	movs	r2, r4
    1254:	2002      	movs	r0, #2
    1256:	f001 f86d 	bl	2334 <_fdopen>
    125a:	2380      	movs	r3, #128	; 0x80
    125c:	2280      	movs	r2, #128	; 0x80
    125e:	2100      	movs	r1, #0
    1260:	0020      	movs	r0, r4
    1262:	005b      	lsls	r3, r3, #1
    1264:	00d2      	lsls	r2, r2, #3
    1266:	f000 ff35 	bl	20d4 <setvbuf>
    126a:	bd37      	pop	{r0, r1, r2, r4, r5, pc}
    126c:	1ffff150 	.word	0x1ffff150
    1270:	00002e5b 	.word	0x00002e5b
    1274:	1ffff18c 	.word	0x1ffff18c
    1278:	00003703 	.word	0x00003703
    127c:	00002de0 	.word	0x00002de0
    1280:	1ffff1c8 	.word	0x1ffff1c8

00001284 <_terminateio>:
    1284:	b5f8      	push	{r3, r4, r5, r6, r7, lr}
    1286:	2780      	movs	r7, #128	; 0x80
    1288:	2503      	movs	r5, #3
    128a:	4b0d      	ldr	r3, [pc, #52]	; (12c0 <_terminateio+0x3c>)
    128c:	4c0d      	ldr	r4, [pc, #52]	; (12c4 <_terminateio+0x40>)
    128e:	681e      	ldr	r6, [r3, #0]
    1290:	03bf      	lsls	r7, r7, #14
    1292:	42ae      	cmp	r6, r5
    1294:	dc0b      	bgt.n	12ae <_terminateio+0x2a>
    1296:	480c      	ldr	r0, [pc, #48]	; (12c8 <_terminateio+0x44>)
    1298:	f001 f960 	bl	255c <fclose>
    129c:	480b      	ldr	r0, [pc, #44]	; (12cc <_terminateio+0x48>)
    129e:	f001 f95d 	bl	255c <fclose>
    12a2:	2e02      	cmp	r6, #2
    12a4:	dd02      	ble.n	12ac <_terminateio+0x28>
    12a6:	480a      	ldr	r0, [pc, #40]	; (12d0 <_terminateio+0x4c>)
    12a8:	f001 f958 	bl	255c <fclose>
    12ac:	bdf8      	pop	{r3, r4, r5, r6, r7, pc}
    12ae:	68e3      	ldr	r3, [r4, #12]
    12b0:	423b      	tst	r3, r7
    12b2:	d002      	beq.n	12ba <_terminateio+0x36>
    12b4:	0020      	movs	r0, r4
    12b6:	f001 f951 	bl	255c <fclose>
    12ba:	3501      	adds	r5, #1
    12bc:	343c      	adds	r4, #60	; 0x3c
    12be:	e7e8      	b.n	1292 <_terminateio+0xe>
    12c0:	00002de0 	.word	0x00002de0
    12c4:	1ffff204 	.word	0x1ffff204
    12c8:	1ffff150 	.word	0x1ffff150
    12cc:	1ffff18c 	.word	0x1ffff18c
    12d0:	1ffff1c8 	.word	0x1ffff1c8

000012d4 <__vfprintf>:
    12d4:	b5f0      	push	{r4, r5, r6, r7, lr}
    12d6:	b0cf      	sub	sp, #316	; 0x13c
    12d8:	920a      	str	r2, [sp, #40]	; 0x28
    12da:	9a55      	ldr	r2, [sp, #340]	; 0x154
    12dc:	0004      	movs	r4, r0
    12de:	9208      	str	r2, [sp, #32]
    12e0:	2200      	movs	r2, #0
    12e2:	930b      	str	r3, [sp, #44]	; 0x2c
    12e4:	9b54      	ldr	r3, [sp, #336]	; 0x150
    12e6:	9206      	str	r2, [sp, #24]
    12e8:	7818      	ldrb	r0, [r3, #0]
    12ea:	1c5a      	adds	r2, r3, #1
    12ec:	9207      	str	r2, [sp, #28]
    12ee:	2800      	cmp	r0, #0
    12f0:	d102      	bne.n	12f8 <__vfprintf+0x24>
    12f2:	9806      	ldr	r0, [sp, #24]
    12f4:	b04f      	add	sp, #316	; 0x13c
    12f6:	bdf0      	pop	{r4, r5, r6, r7, pc}
    12f8:	2825      	cmp	r0, #37	; 0x25
    12fa:	d139      	bne.n	1370 <__vfprintf+0x9c>
    12fc:	2204      	movs	r2, #4
    12fe:	2180      	movs	r1, #128	; 0x80
    1300:	2500      	movs	r5, #0
    1302:	2702      	movs	r7, #2
    1304:	4694      	mov	ip, r2
    1306:	9b07      	ldr	r3, [sp, #28]
    1308:	3824      	subs	r0, #36	; 0x24
    130a:	0089      	lsls	r1, r1, #2
    130c:	001a      	movs	r2, r3
    130e:	7816      	ldrb	r6, [r2, #0]
    1310:	3301      	adds	r3, #1
    1312:	2e2b      	cmp	r6, #43	; 0x2b
    1314:	d04f      	beq.n	13b6 <__vfprintf+0xe2>
    1316:	d846      	bhi.n	13a6 <__vfprintf+0xd2>
    1318:	2e20      	cmp	r6, #32
    131a:	d04e      	beq.n	13ba <__vfprintf+0xe6>
    131c:	2e23      	cmp	r6, #35	; 0x23
    131e:	d04f      	beq.n	13c0 <__vfprintf+0xec>
    1320:	2e2a      	cmp	r6, #42	; 0x2a
    1322:	d14f      	bne.n	13c4 <__vfprintf+0xf0>
    1324:	9908      	ldr	r1, [sp, #32]
    1326:	c980      	ldmia	r1!, {r7}
    1328:	2f00      	cmp	r7, #0
    132a:	da02      	bge.n	1332 <__vfprintf+0x5e>
    132c:	2001      	movs	r0, #1
    132e:	427f      	negs	r7, r7
    1330:	4045      	eors	r5, r0
    1332:	3202      	adds	r2, #2
    1334:	781e      	ldrb	r6, [r3, #0]
    1336:	9207      	str	r2, [sp, #28]
    1338:	9108      	str	r1, [sp, #32]
    133a:	43fb      	mvns	r3, r7
    133c:	17db      	asrs	r3, r3, #31
    133e:	403b      	ands	r3, r7
    1340:	9314      	str	r3, [sp, #80]	; 0x50
    1342:	2300      	movs	r3, #0
    1344:	930c      	str	r3, [sp, #48]	; 0x30
    1346:	2e2e      	cmp	r6, #46	; 0x2e
    1348:	d157      	bne.n	13fa <__vfprintf+0x126>
    134a:	9b07      	ldr	r3, [sp, #28]
    134c:	781e      	ldrb	r6, [r3, #0]
    134e:	2e2a      	cmp	r6, #42	; 0x2a
    1350:	d045      	beq.n	13de <__vfprintf+0x10a>
    1352:	210a      	movs	r1, #10
    1354:	3301      	adds	r3, #1
    1356:	0032      	movs	r2, r6
    1358:	3a30      	subs	r2, #48	; 0x30
    135a:	b2d0      	uxtb	r0, r2
    135c:	9307      	str	r3, [sp, #28]
    135e:	2809      	cmp	r0, #9
    1360:	d846      	bhi.n	13f0 <__vfprintf+0x11c>
    1362:	980c      	ldr	r0, [sp, #48]	; 0x30
    1364:	781e      	ldrb	r6, [r3, #0]
    1366:	4348      	muls	r0, r1
    1368:	1812      	adds	r2, r2, r0
    136a:	920c      	str	r2, [sp, #48]	; 0x30
    136c:	3301      	adds	r3, #1
    136e:	e7f2      	b.n	1356 <__vfprintf+0x82>
    1370:	9b06      	ldr	r3, [sp, #24]
    1372:	9a0b      	ldr	r2, [sp, #44]	; 0x2c
    1374:	1c5d      	adds	r5, r3, #1
    1376:	17db      	asrs	r3, r3, #31
    1378:	429a      	cmp	r2, r3
    137a:	dc04      	bgt.n	1386 <__vfprintf+0xb2>
    137c:	d10c      	bne.n	1398 <__vfprintf+0xc4>
    137e:	9b0a      	ldr	r3, [sp, #40]	; 0x28
    1380:	9a06      	ldr	r2, [sp, #24]
    1382:	4293      	cmp	r3, r2
    1384:	d908      	bls.n	1398 <__vfprintf+0xc4>
    1386:	68a3      	ldr	r3, [r4, #8]
    1388:	3b01      	subs	r3, #1
    138a:	60a3      	str	r3, [r4, #8]
    138c:	2b00      	cmp	r3, #0
    138e:	db06      	blt.n	139e <__vfprintf+0xca>
    1390:	6823      	ldr	r3, [r4, #0]
    1392:	1c5a      	adds	r2, r3, #1
    1394:	6022      	str	r2, [r4, #0]
    1396:	7018      	strb	r0, [r3, #0]
    1398:	9b07      	ldr	r3, [sp, #28]
    139a:	9506      	str	r5, [sp, #24]
    139c:	e7a4      	b.n	12e8 <__vfprintf+0x14>
    139e:	0021      	movs	r1, r4
    13a0:	f000 ff20 	bl	21e4 <__flsbuf>
    13a4:	e7f8      	b.n	1398 <__vfprintf+0xc4>
    13a6:	2e2d      	cmp	r6, #45	; 0x2d
    13a8:	d003      	beq.n	13b2 <__vfprintf+0xde>
    13aa:	2e30      	cmp	r6, #48	; 0x30
    13ac:	d1b8      	bne.n	1320 <__vfprintf+0x4c>
    13ae:	430d      	orrs	r5, r1
    13b0:	e7ac      	b.n	130c <__vfprintf+0x38>
    13b2:	4305      	orrs	r5, r0
    13b4:	e7aa      	b.n	130c <__vfprintf+0x38>
    13b6:	433d      	orrs	r5, r7
    13b8:	e7a8      	b.n	130c <__vfprintf+0x38>
    13ba:	4662      	mov	r2, ip
    13bc:	4315      	orrs	r5, r2
    13be:	e7a5      	b.n	130c <__vfprintf+0x38>
    13c0:	2208      	movs	r2, #8
    13c2:	e7fb      	b.n	13bc <__vfprintf+0xe8>
    13c4:	2700      	movs	r7, #0
    13c6:	200a      	movs	r0, #10
    13c8:	0032      	movs	r2, r6
    13ca:	3a30      	subs	r2, #48	; 0x30
    13cc:	b2d1      	uxtb	r1, r2
    13ce:	9307      	str	r3, [sp, #28]
    13d0:	2909      	cmp	r1, #9
    13d2:	d8b2      	bhi.n	133a <__vfprintf+0x66>
    13d4:	4347      	muls	r7, r0
    13d6:	781e      	ldrb	r6, [r3, #0]
    13d8:	19d7      	adds	r7, r2, r7
    13da:	3301      	adds	r3, #1
    13dc:	e7f4      	b.n	13c8 <__vfprintf+0xf4>
    13de:	9b08      	ldr	r3, [sp, #32]
    13e0:	cb04      	ldmia	r3!, {r2}
    13e2:	920c      	str	r2, [sp, #48]	; 0x30
    13e4:	9a07      	ldr	r2, [sp, #28]
    13e6:	9308      	str	r3, [sp, #32]
    13e8:	0013      	movs	r3, r2
    13ea:	7856      	ldrb	r6, [r2, #1]
    13ec:	3302      	adds	r3, #2
    13ee:	9307      	str	r3, [sp, #28]
    13f0:	9b0c      	ldr	r3, [sp, #48]	; 0x30
    13f2:	2b00      	cmp	r3, #0
    13f4:	db18      	blt.n	1428 <__vfprintf+0x154>
    13f6:	2310      	movs	r3, #16
    13f8:	431d      	orrs	r5, r3
    13fa:	2e6c      	cmp	r6, #108	; 0x6c
    13fc:	d109      	bne.n	1412 <__vfprintf+0x13e>
    13fe:	9b07      	ldr	r3, [sp, #28]
    1400:	781e      	ldrb	r6, [r3, #0]
    1402:	2e6c      	cmp	r6, #108	; 0x6c
    1404:	d113      	bne.n	142e <__vfprintf+0x15a>
    1406:	785e      	ldrb	r6, [r3, #1]
    1408:	2360      	movs	r3, #96	; 0x60
    140a:	431d      	orrs	r5, r3
    140c:	9b07      	ldr	r3, [sp, #28]
    140e:	3302      	adds	r3, #2
    1410:	9307      	str	r3, [sp, #28]
    1412:	2e4c      	cmp	r6, #76	; 0x4c
    1414:	d001      	beq.n	141a <__vfprintf+0x146>
    1416:	2e71      	cmp	r6, #113	; 0x71
    1418:	d10f      	bne.n	143a <__vfprintf+0x166>
    141a:	9b07      	ldr	r3, [sp, #28]
    141c:	781e      	ldrb	r6, [r3, #0]
    141e:	2360      	movs	r3, #96	; 0x60
    1420:	431d      	orrs	r5, r3
    1422:	9b07      	ldr	r3, [sp, #28]
    1424:	3301      	adds	r3, #1
    1426:	e014      	b.n	1452 <__vfprintf+0x17e>
    1428:	2300      	movs	r3, #0
    142a:	930c      	str	r3, [sp, #48]	; 0x30
    142c:	e7e5      	b.n	13fa <__vfprintf+0x126>
    142e:	9b07      	ldr	r3, [sp, #28]
    1430:	3301      	adds	r3, #1
    1432:	9307      	str	r3, [sp, #28]
    1434:	2320      	movs	r3, #32
    1436:	431d      	orrs	r5, r3
    1438:	e7eb      	b.n	1412 <__vfprintf+0x13e>
    143a:	2e68      	cmp	r6, #104	; 0x68
    143c:	d170      	bne.n	1520 <__vfprintf+0x24c>
    143e:	9b07      	ldr	r3, [sp, #28]
    1440:	781e      	ldrb	r6, [r3, #0]
    1442:	2e68      	cmp	r6, #104	; 0x68
    1444:	d107      	bne.n	1456 <__vfprintf+0x182>
    1446:	2380      	movs	r3, #128	; 0x80
    1448:	005b      	lsls	r3, r3, #1
    144a:	431d      	orrs	r5, r3
    144c:	9b07      	ldr	r3, [sp, #28]
    144e:	785e      	ldrb	r6, [r3, #1]
    1450:	3302      	adds	r3, #2
    1452:	9307      	str	r3, [sp, #28]
    1454:	e004      	b.n	1460 <__vfprintf+0x18c>
    1456:	9b07      	ldr	r3, [sp, #28]
    1458:	3301      	adds	r3, #1
    145a:	9307      	str	r3, [sp, #28]
    145c:	2380      	movs	r3, #128	; 0x80
    145e:	431d      	orrs	r5, r3
    1460:	2e78      	cmp	r6, #120	; 0x78
    1462:	dc09      	bgt.n	1478 <__vfprintf+0x1a4>
    1464:	2e57      	cmp	r6, #87	; 0x57
    1466:	dc67      	bgt.n	1538 <__vfprintf+0x264>
    1468:	2e41      	cmp	r6, #65	; 0x41
    146a:	d100      	bne.n	146e <__vfprintf+0x19a>
    146c:	e2fd      	b.n	1a6a <__vfprintf+0x796>
    146e:	dd00      	ble.n	1472 <__vfprintf+0x19e>
    1470:	e089      	b.n	1586 <__vfprintf+0x2b2>
    1472:	2e00      	cmp	r6, #0
    1474:	d100      	bne.n	1478 <__vfprintf+0x1a4>
    1476:	e0ed      	b.n	1654 <__vfprintf+0x380>
    1478:	9b14      	ldr	r3, [sp, #80]	; 0x50
    147a:	2201      	movs	r2, #1
    147c:	3b01      	subs	r3, #1
    147e:	930c      	str	r3, [sp, #48]	; 0x30
    1480:	002b      	movs	r3, r5
    1482:	4013      	ands	r3, r2
    1484:	9339      	str	r3, [sp, #228]	; 0xe4
    1486:	9b06      	ldr	r3, [sp, #24]
    1488:	4215      	tst	r5, r2
    148a:	d11d      	bne.n	14c8 <__vfprintf+0x1f4>
    148c:	2330      	movs	r3, #48	; 0x30
    148e:	9338      	str	r3, [sp, #224]	; 0xe0
    1490:	05ab      	lsls	r3, r5, #22
    1492:	d401      	bmi.n	1498 <__vfprintf+0x1c4>
    1494:	2320      	movs	r3, #32
    1496:	9338      	str	r3, [sp, #224]	; 0xe0
    1498:	9b06      	ldr	r3, [sp, #24]
    149a:	9d0c      	ldr	r5, [sp, #48]	; 0x30
    149c:	9322      	str	r3, [sp, #136]	; 0x88
    149e:	17db      	asrs	r3, r3, #31
    14a0:	9323      	str	r3, [sp, #140]	; 0x8c
    14a2:	3d01      	subs	r5, #1
    14a4:	d400      	bmi.n	14a8 <__vfprintf+0x1d4>
    14a6:	e08e      	b.n	15c6 <__vfprintf+0x2f2>
    14a8:	2300      	movs	r3, #0
    14aa:	429f      	cmp	r7, r3
    14ac:	dd00      	ble.n	14b0 <__vfprintf+0x1dc>
    14ae:	9b0c      	ldr	r3, [sp, #48]	; 0x30
    14b0:	9a06      	ldr	r2, [sp, #24]
    14b2:	189b      	adds	r3, r3, r2
    14b4:	9a14      	ldr	r2, [sp, #80]	; 0x50
    14b6:	1e91      	subs	r1, r2, #2
    14b8:	2200      	movs	r2, #0
    14ba:	4297      	cmp	r7, r2
    14bc:	dd02      	ble.n	14c4 <__vfprintf+0x1f0>
    14be:	9814      	ldr	r0, [sp, #80]	; 0x50
    14c0:	3201      	adds	r2, #1
    14c2:	1a12      	subs	r2, r2, r0
    14c4:	1852      	adds	r2, r2, r1
    14c6:	920c      	str	r2, [sp, #48]	; 0x30
    14c8:	990b      	ldr	r1, [sp, #44]	; 0x2c
    14ca:	1c5a      	adds	r2, r3, #1
    14cc:	9206      	str	r2, [sp, #24]
    14ce:	17da      	asrs	r2, r3, #31
    14d0:	4291      	cmp	r1, r2
    14d2:	dc03      	bgt.n	14dc <__vfprintf+0x208>
    14d4:	d10c      	bne.n	14f0 <__vfprintf+0x21c>
    14d6:	9a0a      	ldr	r2, [sp, #40]	; 0x28
    14d8:	429a      	cmp	r2, r3
    14da:	d909      	bls.n	14f0 <__vfprintf+0x21c>
    14dc:	68a3      	ldr	r3, [r4, #8]
    14de:	3b01      	subs	r3, #1
    14e0:	60a3      	str	r3, [r4, #8]
    14e2:	2b00      	cmp	r3, #0
    14e4:	da00      	bge.n	14e8 <__vfprintf+0x214>
    14e6:	e08f      	b.n	1608 <__vfprintf+0x334>
    14e8:	6823      	ldr	r3, [r4, #0]
    14ea:	1c5a      	adds	r2, r3, #1
    14ec:	6022      	str	r2, [r4, #0]
    14ee:	701e      	strb	r6, [r3, #0]
    14f0:	9b39      	ldr	r3, [sp, #228]	; 0xe4
    14f2:	9f08      	ldr	r7, [sp, #32]
    14f4:	2b00      	cmp	r3, #0
    14f6:	d010      	beq.n	151a <__vfprintf+0x246>
    14f8:	9b06      	ldr	r3, [sp, #24]
    14fa:	9d0c      	ldr	r5, [sp, #48]	; 0x30
    14fc:	9320      	str	r3, [sp, #128]	; 0x80
    14fe:	17db      	asrs	r3, r3, #31
    1500:	9321      	str	r3, [sp, #132]	; 0x84
    1502:	3d01      	subs	r5, #1
    1504:	d400      	bmi.n	1508 <__vfprintf+0x234>
    1506:	e084      	b.n	1612 <__vfprintf+0x33e>
    1508:	9b0c      	ldr	r3, [sp, #48]	; 0x30
    150a:	9a0c      	ldr	r2, [sp, #48]	; 0x30
    150c:	43db      	mvns	r3, r3
    150e:	17db      	asrs	r3, r3, #31
    1510:	4013      	ands	r3, r2
    1512:	9a06      	ldr	r2, [sp, #24]
    1514:	18d3      	adds	r3, r2, r3
    1516:	9306      	str	r3, [sp, #24]
    1518:	9f08      	ldr	r7, [sp, #32]
    151a:	9d06      	ldr	r5, [sp, #24]
    151c:	9708      	str	r7, [sp, #32]
    151e:	e73b      	b.n	1398 <__vfprintf+0xc4>
    1520:	2e6a      	cmp	r6, #106	; 0x6a
    1522:	d104      	bne.n	152e <__vfprintf+0x25a>
    1524:	2340      	movs	r3, #64	; 0x40
    1526:	431d      	orrs	r5, r3
    1528:	9b07      	ldr	r3, [sp, #28]
    152a:	781e      	ldrb	r6, [r3, #0]
    152c:	e77a      	b.n	1424 <__vfprintf+0x150>
    152e:	2e7a      	cmp	r6, #122	; 0x7a
    1530:	d0fa      	beq.n	1528 <__vfprintf+0x254>
    1532:	2e74      	cmp	r6, #116	; 0x74
    1534:	d194      	bne.n	1460 <__vfprintf+0x18c>
    1536:	e7f7      	b.n	1528 <__vfprintf+0x254>
    1538:	0030      	movs	r0, r6
    153a:	3858      	subs	r0, #88	; 0x58
    153c:	2820      	cmp	r0, #32
    153e:	d89b      	bhi.n	1478 <__vfprintf+0x1a4>
    1540:	f001 fb84 	bl	2c4c <__gnu_thumb1_case_shi>
    1544:	ff9a0166 	.word	0xff9a0166
    1548:	ff9aff9a 	.word	0xff9aff9a
    154c:	ff9aff9a 	.word	0xff9aff9a
    1550:	ff9aff9a 	.word	0xff9aff9a
    1554:	0293ff9a 	.word	0x0293ff9a
    1558:	003dff9a 	.word	0x003dff9a
    155c:	00270259 	.word	0x00270259
    1560:	00270027 	.word	0x00270027
    1564:	0259ff9a 	.word	0x0259ff9a
    1568:	ff9aff9a 	.word	0xff9aff9a
    156c:	ff9aff9a 	.word	0xff9aff9a
    1570:	01c8008c 	.word	0x01c8008c
    1574:	ff9a01be 	.word	0xff9a01be
    1578:	00acff9a 	.word	0x00acff9a
    157c:	01f0ff9a 	.word	0x01f0ff9a
    1580:	ff9aff9a 	.word	0xff9aff9a
    1584:	0195      	.short	0x0195
    1586:	2302      	movs	r3, #2
    1588:	0032      	movs	r2, r6
    158a:	439a      	bics	r2, r3
    158c:	2a45      	cmp	r2, #69	; 0x45
    158e:	d000      	beq.n	1592 <__vfprintf+0x2be>
    1590:	e772      	b.n	1478 <__vfprintf+0x1a4>
    1592:	2380      	movs	r3, #128	; 0x80
    1594:	00db      	lsls	r3, r3, #3
    1596:	432b      	orrs	r3, r5
    1598:	06ea      	lsls	r2, r5, #27
    159a:	d401      	bmi.n	15a0 <__vfprintf+0x2cc>
    159c:	2206      	movs	r2, #6
    159e:	920c      	str	r2, [sp, #48]	; 0x30
    15a0:	001d      	movs	r5, r3
    15a2:	2200      	movs	r2, #0
    15a4:	2300      	movs	r3, #0
    15a6:	2107      	movs	r1, #7
    15a8:	9204      	str	r2, [sp, #16]
    15aa:	9305      	str	r3, [sp, #20]
    15ac:	2300      	movs	r3, #0
    15ae:	9f08      	ldr	r7, [sp, #32]
    15b0:	9338      	str	r3, [sp, #224]	; 0xe0
    15b2:	3707      	adds	r7, #7
    15b4:	438f      	bics	r7, r1
    15b6:	cf03      	ldmia	r7!, {r0, r1}
    15b8:	9044      	str	r0, [sp, #272]	; 0x110
    15ba:	9145      	str	r1, [sp, #276]	; 0x114
    15bc:	e188      	b.n	18d0 <__vfprintf+0x5fc>
    15be:	9b08      	ldr	r3, [sp, #32]
    15c0:	cb40      	ldmia	r3!, {r6}
    15c2:	9308      	str	r3, [sp, #32]
    15c4:	e758      	b.n	1478 <__vfprintf+0x1a4>
    15c6:	9b0b      	ldr	r3, [sp, #44]	; 0x2c
    15c8:	9a23      	ldr	r2, [sp, #140]	; 0x8c
    15ca:	4293      	cmp	r3, r2
    15cc:	dc04      	bgt.n	15d8 <__vfprintf+0x304>
    15ce:	d10d      	bne.n	15ec <__vfprintf+0x318>
    15d0:	9b0a      	ldr	r3, [sp, #40]	; 0x28
    15d2:	9a22      	ldr	r2, [sp, #136]	; 0x88
    15d4:	4293      	cmp	r3, r2
    15d6:	d909      	bls.n	15ec <__vfprintf+0x318>
    15d8:	68a3      	ldr	r3, [r4, #8]
    15da:	3b01      	subs	r3, #1
    15dc:	60a3      	str	r3, [r4, #8]
    15de:	2b00      	cmp	r3, #0
    15e0:	db0d      	blt.n	15fe <__vfprintf+0x32a>
    15e2:	6823      	ldr	r3, [r4, #0]
    15e4:	1c5a      	adds	r2, r3, #1
    15e6:	6022      	str	r2, [r4, #0]
    15e8:	9a38      	ldr	r2, [sp, #224]	; 0xe0
    15ea:	701a      	strb	r2, [r3, #0]
    15ec:	2001      	movs	r0, #1
    15ee:	9a22      	ldr	r2, [sp, #136]	; 0x88
    15f0:	9b23      	ldr	r3, [sp, #140]	; 0x8c
    15f2:	2100      	movs	r1, #0
    15f4:	1812      	adds	r2, r2, r0
    15f6:	414b      	adcs	r3, r1
    15f8:	9222      	str	r2, [sp, #136]	; 0x88
    15fa:	9323      	str	r3, [sp, #140]	; 0x8c
    15fc:	e751      	b.n	14a2 <__vfprintf+0x1ce>
    15fe:	0021      	movs	r1, r4
    1600:	9838      	ldr	r0, [sp, #224]	; 0xe0
    1602:	f000 fdef 	bl	21e4 <__flsbuf>
    1606:	e7f1      	b.n	15ec <__vfprintf+0x318>
    1608:	0021      	movs	r1, r4
    160a:	0030      	movs	r0, r6
    160c:	f000 fdea 	bl	21e4 <__flsbuf>
    1610:	e76e      	b.n	14f0 <__vfprintf+0x21c>
    1612:	9b0b      	ldr	r3, [sp, #44]	; 0x2c
    1614:	9a21      	ldr	r2, [sp, #132]	; 0x84
    1616:	4293      	cmp	r3, r2
    1618:	dc04      	bgt.n	1624 <__vfprintf+0x350>
    161a:	d10d      	bne.n	1638 <__vfprintf+0x364>
    161c:	9b0a      	ldr	r3, [sp, #40]	; 0x28
    161e:	9a20      	ldr	r2, [sp, #128]	; 0x80
    1620:	4293      	cmp	r3, r2
    1622:	d909      	bls.n	1638 <__vfprintf+0x364>
    1624:	68a3      	ldr	r3, [r4, #8]
    1626:	3b01      	subs	r3, #1
    1628:	60a3      	str	r3, [r4, #8]
    162a:	2b00      	cmp	r3, #0
    162c:	db0d      	blt.n	164a <__vfprintf+0x376>
    162e:	6823      	ldr	r3, [r4, #0]
    1630:	1c5a      	adds	r2, r3, #1
    1632:	6022      	str	r2, [r4, #0]
    1634:	2220      	movs	r2, #32
    1636:	701a      	strb	r2, [r3, #0]
    1638:	2001      	movs	r0, #1
    163a:	9a20      	ldr	r2, [sp, #128]	; 0x80
    163c:	9b21      	ldr	r3, [sp, #132]	; 0x84
    163e:	2100      	movs	r1, #0
    1640:	1812      	adds	r2, r2, r0
    1642:	414b      	adcs	r3, r1
    1644:	9220      	str	r2, [sp, #128]	; 0x80
    1646:	9321      	str	r3, [sp, #132]	; 0x84
    1648:	e75b      	b.n	1502 <__vfprintf+0x22e>
    164a:	0021      	movs	r1, r4
    164c:	2020      	movs	r0, #32
    164e:	f000 fdc9 	bl	21e4 <__flsbuf>
    1652:	e7f1      	b.n	1638 <__vfprintf+0x364>
    1654:	9b07      	ldr	r3, [sp, #28]
    1656:	3b01      	subs	r3, #1
    1658:	9307      	str	r3, [sp, #28]
    165a:	e75d      	b.n	1518 <__vfprintf+0x244>
    165c:	9b08      	ldr	r3, [sp, #32]
    165e:	1d1f      	adds	r7, r3, #4
    1660:	066b      	lsls	r3, r5, #25
    1662:	d506      	bpl.n	1672 <__vfprintf+0x39e>
    1664:	9b08      	ldr	r3, [sp, #32]
    1666:	9a06      	ldr	r2, [sp, #24]
    1668:	681b      	ldr	r3, [r3, #0]
    166a:	601a      	str	r2, [r3, #0]
    166c:	17d2      	asrs	r2, r2, #31
    166e:	605a      	str	r2, [r3, #4]
    1670:	e753      	b.n	151a <__vfprintf+0x246>
    1672:	06ab      	lsls	r3, r5, #26
    1674:	d504      	bpl.n	1680 <__vfprintf+0x3ac>
    1676:	9b08      	ldr	r3, [sp, #32]
    1678:	9a06      	ldr	r2, [sp, #24]
    167a:	681b      	ldr	r3, [r3, #0]
    167c:	601a      	str	r2, [r3, #0]
    167e:	e74c      	b.n	151a <__vfprintf+0x246>
    1680:	05eb      	lsls	r3, r5, #23
    1682:	d504      	bpl.n	168e <__vfprintf+0x3ba>
    1684:	9b08      	ldr	r3, [sp, #32]
    1686:	9a06      	ldr	r2, [sp, #24]
    1688:	681b      	ldr	r3, [r3, #0]
    168a:	701a      	strb	r2, [r3, #0]
    168c:	e745      	b.n	151a <__vfprintf+0x246>
    168e:	062b      	lsls	r3, r5, #24
    1690:	d5f1      	bpl.n	1676 <__vfprintf+0x3a2>
    1692:	9b08      	ldr	r3, [sp, #32]
    1694:	9a06      	ldr	r2, [sp, #24]
    1696:	681b      	ldr	r3, [r3, #0]
    1698:	801a      	strh	r2, [r3, #0]
    169a:	e73e      	b.n	151a <__vfprintf+0x246>
    169c:	9f08      	ldr	r7, [sp, #32]
    169e:	cf08      	ldmia	r7!, {r3}
    16a0:	9338      	str	r3, [sp, #224]	; 0xe0
    16a2:	2b00      	cmp	r3, #0
    16a4:	d101      	bne.n	16aa <__vfprintf+0x3d6>
    16a6:	4bc6      	ldr	r3, [pc, #792]	; (19c0 <__vfprintf+0x6ec>)
    16a8:	9338      	str	r3, [sp, #224]	; 0xe0
    16aa:	9838      	ldr	r0, [sp, #224]	; 0xe0
    16ac:	f000 fd4e 	bl	214c <strlen>
    16b0:	0006      	movs	r6, r0
    16b2:	06eb      	lsls	r3, r5, #27
    16b4:	d503      	bpl.n	16be <__vfprintf+0x3ea>
    16b6:	9b0c      	ldr	r3, [sp, #48]	; 0x30
    16b8:	4298      	cmp	r0, r3
    16ba:	dd00      	ble.n	16be <__vfprintf+0x3ea>
    16bc:	001e      	movs	r6, r3
    16be:	9b14      	ldr	r3, [sp, #80]	; 0x50
    16c0:	002a      	movs	r2, r5
    16c2:	1b9b      	subs	r3, r3, r6
    16c4:	9308      	str	r3, [sp, #32]
    16c6:	2301      	movs	r3, #1
    16c8:	401a      	ands	r2, r3
    16ca:	9214      	str	r2, [sp, #80]	; 0x50
    16cc:	421d      	tst	r5, r3
    16ce:	d118      	bne.n	1702 <__vfprintf+0x42e>
    16d0:	332f      	adds	r3, #47	; 0x2f
    16d2:	930c      	str	r3, [sp, #48]	; 0x30
    16d4:	05ab      	lsls	r3, r5, #22
    16d6:	d401      	bmi.n	16dc <__vfprintf+0x408>
    16d8:	2320      	movs	r3, #32
    16da:	930c      	str	r3, [sp, #48]	; 0x30
    16dc:	9b06      	ldr	r3, [sp, #24]
    16de:	9d08      	ldr	r5, [sp, #32]
    16e0:	931e      	str	r3, [sp, #120]	; 0x78
    16e2:	17db      	asrs	r3, r3, #31
    16e4:	931f      	str	r3, [sp, #124]	; 0x7c
    16e6:	3d01      	subs	r5, #1
    16e8:	d52c      	bpl.n	1744 <__vfprintf+0x470>
    16ea:	9b08      	ldr	r3, [sp, #32]
    16ec:	9a08      	ldr	r2, [sp, #32]
    16ee:	43db      	mvns	r3, r3
    16f0:	17db      	asrs	r3, r3, #31
    16f2:	4013      	ands	r3, r2
    16f4:	9a06      	ldr	r2, [sp, #24]
    16f6:	18d2      	adds	r2, r2, r3
    16f8:	9206      	str	r2, [sp, #24]
    16fa:	9a08      	ldr	r2, [sp, #32]
    16fc:	3a01      	subs	r2, #1
    16fe:	1ad3      	subs	r3, r2, r3
    1700:	9308      	str	r3, [sp, #32]
    1702:	2500      	movs	r5, #0
    1704:	9b06      	ldr	r3, [sp, #24]
    1706:	9324      	str	r3, [sp, #144]	; 0x90
    1708:	17db      	asrs	r3, r3, #31
    170a:	9325      	str	r3, [sp, #148]	; 0x94
    170c:	42b5      	cmp	r5, r6
    170e:	db3a      	blt.n	1786 <__vfprintf+0x4b2>
    1710:	43f0      	mvns	r0, r6
    1712:	9b06      	ldr	r3, [sp, #24]
    1714:	17c0      	asrs	r0, r0, #31
    1716:	4006      	ands	r6, r0
    1718:	199b      	adds	r3, r3, r6
    171a:	9306      	str	r3, [sp, #24]
    171c:	9b14      	ldr	r3, [sp, #80]	; 0x50
    171e:	2b00      	cmp	r3, #0
    1720:	d100      	bne.n	1724 <__vfprintf+0x450>
    1722:	e6fa      	b.n	151a <__vfprintf+0x246>
    1724:	9b06      	ldr	r3, [sp, #24]
    1726:	9d08      	ldr	r5, [sp, #32]
    1728:	9328      	str	r3, [sp, #160]	; 0xa0
    172a:	17db      	asrs	r3, r3, #31
    172c:	9329      	str	r3, [sp, #164]	; 0xa4
    172e:	3d01      	subs	r5, #1
    1730:	d54d      	bpl.n	17ce <__vfprintf+0x4fa>
    1732:	9b08      	ldr	r3, [sp, #32]
    1734:	9a08      	ldr	r2, [sp, #32]
    1736:	43db      	mvns	r3, r3
    1738:	17db      	asrs	r3, r3, #31
    173a:	4013      	ands	r3, r2
    173c:	9a06      	ldr	r2, [sp, #24]
    173e:	18d3      	adds	r3, r2, r3
    1740:	9306      	str	r3, [sp, #24]
    1742:	e6ea      	b.n	151a <__vfprintf+0x246>
    1744:	9b0b      	ldr	r3, [sp, #44]	; 0x2c
    1746:	9a1f      	ldr	r2, [sp, #124]	; 0x7c
    1748:	4293      	cmp	r3, r2
    174a:	dc04      	bgt.n	1756 <__vfprintf+0x482>
    174c:	d10d      	bne.n	176a <__vfprintf+0x496>
    174e:	9b0a      	ldr	r3, [sp, #40]	; 0x28
    1750:	9a1e      	ldr	r2, [sp, #120]	; 0x78
    1752:	4293      	cmp	r3, r2
    1754:	d909      	bls.n	176a <__vfprintf+0x496>
    1756:	68a3      	ldr	r3, [r4, #8]
    1758:	3b01      	subs	r3, #1
    175a:	60a3      	str	r3, [r4, #8]
    175c:	2b00      	cmp	r3, #0
    175e:	db0d      	blt.n	177c <__vfprintf+0x4a8>
    1760:	6823      	ldr	r3, [r4, #0]
    1762:	1c5a      	adds	r2, r3, #1
    1764:	6022      	str	r2, [r4, #0]
    1766:	9a0c      	ldr	r2, [sp, #48]	; 0x30
    1768:	701a      	strb	r2, [r3, #0]
    176a:	2001      	movs	r0, #1
    176c:	9a1e      	ldr	r2, [sp, #120]	; 0x78
    176e:	9b1f      	ldr	r3, [sp, #124]	; 0x7c
    1770:	2100      	movs	r1, #0
    1772:	1812      	adds	r2, r2, r0
    1774:	414b      	adcs	r3, r1
    1776:	921e      	str	r2, [sp, #120]	; 0x78
    1778:	931f      	str	r3, [sp, #124]	; 0x7c
    177a:	e7b4      	b.n	16e6 <__vfprintf+0x412>
    177c:	0021      	movs	r1, r4
    177e:	980c      	ldr	r0, [sp, #48]	; 0x30
    1780:	f000 fd30 	bl	21e4 <__flsbuf>
    1784:	e7f1      	b.n	176a <__vfprintf+0x496>
    1786:	9b0b      	ldr	r3, [sp, #44]	; 0x2c
    1788:	9a25      	ldr	r2, [sp, #148]	; 0x94
    178a:	4293      	cmp	r3, r2
    178c:	dc04      	bgt.n	1798 <__vfprintf+0x4c4>
    178e:	d10e      	bne.n	17ae <__vfprintf+0x4da>
    1790:	9b0a      	ldr	r3, [sp, #40]	; 0x28
    1792:	9a24      	ldr	r2, [sp, #144]	; 0x90
    1794:	4293      	cmp	r3, r2
    1796:	d90a      	bls.n	17ae <__vfprintf+0x4da>
    1798:	68a3      	ldr	r3, [r4, #8]
    179a:	3b01      	subs	r3, #1
    179c:	60a3      	str	r3, [r4, #8]
    179e:	2b00      	cmp	r3, #0
    17a0:	db0f      	blt.n	17c2 <__vfprintf+0x4ee>
    17a2:	6823      	ldr	r3, [r4, #0]
    17a4:	1c5a      	adds	r2, r3, #1
    17a6:	6022      	str	r2, [r4, #0]
    17a8:	9a38      	ldr	r2, [sp, #224]	; 0xe0
    17aa:	5d52      	ldrb	r2, [r2, r5]
    17ac:	701a      	strb	r2, [r3, #0]
    17ae:	2001      	movs	r0, #1
    17b0:	9a24      	ldr	r2, [sp, #144]	; 0x90
    17b2:	9b25      	ldr	r3, [sp, #148]	; 0x94
    17b4:	2100      	movs	r1, #0
    17b6:	1812      	adds	r2, r2, r0
    17b8:	414b      	adcs	r3, r1
    17ba:	3501      	adds	r5, #1
    17bc:	9224      	str	r2, [sp, #144]	; 0x90
    17be:	9325      	str	r3, [sp, #148]	; 0x94
    17c0:	e7a4      	b.n	170c <__vfprintf+0x438>
    17c2:	9b38      	ldr	r3, [sp, #224]	; 0xe0
    17c4:	0021      	movs	r1, r4
    17c6:	5d58      	ldrb	r0, [r3, r5]
    17c8:	f000 fd0c 	bl	21e4 <__flsbuf>
    17cc:	e7ef      	b.n	17ae <__vfprintf+0x4da>
    17ce:	9b0b      	ldr	r3, [sp, #44]	; 0x2c
    17d0:	9a29      	ldr	r2, [sp, #164]	; 0xa4
    17d2:	4293      	cmp	r3, r2
    17d4:	dc04      	bgt.n	17e0 <__vfprintf+0x50c>
    17d6:	d10d      	bne.n	17f4 <__vfprintf+0x520>
    17d8:	9b0a      	ldr	r3, [sp, #40]	; 0x28
    17da:	9a28      	ldr	r2, [sp, #160]	; 0xa0
    17dc:	4293      	cmp	r3, r2
    17de:	d909      	bls.n	17f4 <__vfprintf+0x520>
    17e0:	68a3      	ldr	r3, [r4, #8]
    17e2:	3b01      	subs	r3, #1
    17e4:	60a3      	str	r3, [r4, #8]
    17e6:	2b00      	cmp	r3, #0
    17e8:	db0d      	blt.n	1806 <__vfprintf+0x532>
    17ea:	6823      	ldr	r3, [r4, #0]
    17ec:	1c5a      	adds	r2, r3, #1
    17ee:	6022      	str	r2, [r4, #0]
    17f0:	2220      	movs	r2, #32
    17f2:	701a      	strb	r2, [r3, #0]
    17f4:	2001      	movs	r0, #1
    17f6:	9a28      	ldr	r2, [sp, #160]	; 0xa0
    17f8:	9b29      	ldr	r3, [sp, #164]	; 0xa4
    17fa:	2100      	movs	r1, #0
    17fc:	1812      	adds	r2, r2, r0
    17fe:	414b      	adcs	r3, r1
    1800:	9228      	str	r2, [sp, #160]	; 0xa0
    1802:	9329      	str	r3, [sp, #164]	; 0xa4
    1804:	e793      	b.n	172e <__vfprintf+0x45a>
    1806:	0021      	movs	r1, r4
    1808:	2020      	movs	r0, #32
    180a:	f000 fceb 	bl	21e4 <__flsbuf>
    180e:	e7f1      	b.n	17f4 <__vfprintf+0x520>
    1810:	2340      	movs	r3, #64	; 0x40
    1812:	002a      	movs	r2, r5
    1814:	9f08      	ldr	r7, [sp, #32]
    1816:	401a      	ands	r2, r3
    1818:	421d      	tst	r5, r3
    181a:	d01d      	beq.n	1858 <__vfprintf+0x584>
    181c:	2207      	movs	r2, #7
    181e:	3707      	adds	r7, #7
    1820:	4397      	bics	r7, r2
    1822:	cf0c      	ldmia	r7!, {r2, r3}
    1824:	9204      	str	r2, [sp, #16]
    1826:	9305      	str	r3, [sp, #20]
    1828:	2380      	movs	r3, #128	; 0x80
    182a:	002a      	movs	r2, r5
    182c:	401a      	ands	r2, r3
    182e:	421d      	tst	r5, r3
    1830:	d016      	beq.n	1860 <__vfprintf+0x58c>
    1832:	466b      	mov	r3, sp
    1834:	8a1b      	ldrh	r3, [r3, #16]
    1836:	9304      	str	r3, [sp, #16]
    1838:	2300      	movs	r3, #0
    183a:	9305      	str	r3, [sp, #20]
    183c:	4b61      	ldr	r3, [pc, #388]	; (19c4 <__vfprintf+0x6f0>)
    183e:	469c      	mov	ip, r3
    1840:	072b      	lsls	r3, r5, #28
    1842:	d401      	bmi.n	1848 <__vfprintf+0x574>
    1844:	4b60      	ldr	r3, [pc, #384]	; (19c8 <__vfprintf+0x6f4>)
    1846:	469c      	mov	ip, r3
    1848:	4b60      	ldr	r3, [pc, #384]	; (19cc <__vfprintf+0x6f8>)
    184a:	9338      	str	r3, [sp, #224]	; 0xe0
    184c:	06eb      	lsls	r3, r5, #27
    184e:	d400      	bmi.n	1852 <__vfprintf+0x57e>
    1850:	e08a      	b.n	1968 <__vfprintf+0x694>
    1852:	495f      	ldr	r1, [pc, #380]	; (19d0 <__vfprintf+0x6fc>)
    1854:	400d      	ands	r5, r1
    1856:	e087      	b.n	1968 <__vfprintf+0x694>
    1858:	cf08      	ldmia	r7!, {r3}
    185a:	9205      	str	r2, [sp, #20]
    185c:	9304      	str	r3, [sp, #16]
    185e:	e7e3      	b.n	1828 <__vfprintf+0x554>
    1860:	05eb      	lsls	r3, r5, #23
    1862:	d5eb      	bpl.n	183c <__vfprintf+0x568>
    1864:	466b      	mov	r3, sp
    1866:	7c1b      	ldrb	r3, [r3, #16]
    1868:	9205      	str	r2, [sp, #20]
    186a:	9304      	str	r3, [sp, #16]
    186c:	e7e6      	b.n	183c <__vfprintf+0x568>
    186e:	2340      	movs	r3, #64	; 0x40
    1870:	002a      	movs	r2, r5
    1872:	9f08      	ldr	r7, [sp, #32]
    1874:	401a      	ands	r2, r3
    1876:	421d      	tst	r5, r3
    1878:	d017      	beq.n	18aa <__vfprintf+0x5d6>
    187a:	2207      	movs	r2, #7
    187c:	3707      	adds	r7, #7
    187e:	4397      	bics	r7, r2
    1880:	cf0c      	ldmia	r7!, {r2, r3}
    1882:	9204      	str	r2, [sp, #16]
    1884:	9305      	str	r3, [sp, #20]
    1886:	2380      	movs	r3, #128	; 0x80
    1888:	002a      	movs	r2, r5
    188a:	401a      	ands	r2, r3
    188c:	421d      	tst	r5, r3
    188e:	d010      	beq.n	18b2 <__vfprintf+0x5de>
    1890:	466b      	mov	r3, sp
    1892:	8a1b      	ldrh	r3, [r3, #16]
    1894:	9304      	str	r3, [sp, #16]
    1896:	2300      	movs	r3, #0
    1898:	9305      	str	r3, [sp, #20]
    189a:	4b4e      	ldr	r3, [pc, #312]	; (19d4 <__vfprintf+0x700>)
    189c:	469c      	mov	ip, r3
    189e:	072b      	lsls	r3, r5, #28
    18a0:	d401      	bmi.n	18a6 <__vfprintf+0x5d2>
    18a2:	4b49      	ldr	r3, [pc, #292]	; (19c8 <__vfprintf+0x6f4>)
    18a4:	469c      	mov	ip, r3
    18a6:	4b4c      	ldr	r3, [pc, #304]	; (19d8 <__vfprintf+0x704>)
    18a8:	e7cf      	b.n	184a <__vfprintf+0x576>
    18aa:	cf08      	ldmia	r7!, {r3}
    18ac:	9205      	str	r2, [sp, #20]
    18ae:	9304      	str	r3, [sp, #16]
    18b0:	e7e9      	b.n	1886 <__vfprintf+0x5b2>
    18b2:	05eb      	lsls	r3, r5, #23
    18b4:	d5f1      	bpl.n	189a <__vfprintf+0x5c6>
    18b6:	466b      	mov	r3, sp
    18b8:	7c1b      	ldrb	r3, [r3, #16]
    18ba:	9205      	str	r2, [sp, #20]
    18bc:	9304      	str	r3, [sp, #16]
    18be:	e7ec      	b.n	189a <__vfprintf+0x5c6>
    18c0:	9f08      	ldr	r7, [sp, #32]
    18c2:	cf08      	ldmia	r7!, {r3}
    18c4:	9304      	str	r3, [sp, #16]
    18c6:	2300      	movs	r3, #0
    18c8:	9305      	str	r3, [sp, #20]
    18ca:	4b43      	ldr	r3, [pc, #268]	; (19d8 <__vfprintf+0x704>)
    18cc:	9338      	str	r3, [sp, #224]	; 0xe0
    18ce:	4b41      	ldr	r3, [pc, #260]	; (19d4 <__vfprintf+0x700>)
    18d0:	469c      	mov	ip, r3
    18d2:	e049      	b.n	1968 <__vfprintf+0x694>
    18d4:	2340      	movs	r3, #64	; 0x40
    18d6:	002a      	movs	r2, r5
    18d8:	9f08      	ldr	r7, [sp, #32]
    18da:	401a      	ands	r2, r3
    18dc:	421d      	tst	r5, r3
    18de:	d016      	beq.n	190e <__vfprintf+0x63a>
    18e0:	2207      	movs	r2, #7
    18e2:	3707      	adds	r7, #7
    18e4:	4397      	bics	r7, r2
    18e6:	cf0c      	ldmia	r7!, {r2, r3}
    18e8:	9204      	str	r2, [sp, #16]
    18ea:	9305      	str	r3, [sp, #20]
    18ec:	2380      	movs	r3, #128	; 0x80
    18ee:	002a      	movs	r2, r5
    18f0:	401a      	ands	r2, r3
    18f2:	421d      	tst	r5, r3
    18f4:	d00f      	beq.n	1916 <__vfprintf+0x642>
    18f6:	466b      	mov	r3, sp
    18f8:	8a1b      	ldrh	r3, [r3, #16]
    18fa:	9304      	str	r3, [sp, #16]
    18fc:	2300      	movs	r3, #0
    18fe:	9305      	str	r3, [sp, #20]
    1900:	4b36      	ldr	r3, [pc, #216]	; (19dc <__vfprintf+0x708>)
    1902:	469c      	mov	ip, r3
    1904:	072b      	lsls	r3, r5, #28
    1906:	d500      	bpl.n	190a <__vfprintf+0x636>
    1908:	e0ad      	b.n	1a66 <__vfprintf+0x792>
    190a:	4b2f      	ldr	r3, [pc, #188]	; (19c8 <__vfprintf+0x6f4>)
    190c:	e08f      	b.n	1a2e <__vfprintf+0x75a>
    190e:	cf08      	ldmia	r7!, {r3}
    1910:	9205      	str	r2, [sp, #20]
    1912:	9304      	str	r3, [sp, #16]
    1914:	e7ea      	b.n	18ec <__vfprintf+0x618>
    1916:	05eb      	lsls	r3, r5, #23
    1918:	d5f2      	bpl.n	1900 <__vfprintf+0x62c>
    191a:	466b      	mov	r3, sp
    191c:	7c1b      	ldrb	r3, [r3, #16]
    191e:	9205      	str	r2, [sp, #20]
    1920:	9304      	str	r3, [sp, #16]
    1922:	e7ed      	b.n	1900 <__vfprintf+0x62c>
    1924:	2340      	movs	r3, #64	; 0x40
    1926:	002a      	movs	r2, r5
    1928:	9f08      	ldr	r7, [sp, #32]
    192a:	401a      	ands	r2, r3
    192c:	421d      	tst	r5, r3
    192e:	d057      	beq.n	19e0 <__vfprintf+0x70c>
    1930:	2207      	movs	r2, #7
    1932:	3707      	adds	r7, #7
    1934:	4397      	bics	r7, r2
    1936:	cf0c      	ldmia	r7!, {r2, r3}
    1938:	9204      	str	r2, [sp, #16]
    193a:	9305      	str	r3, [sp, #20]
    193c:	2380      	movs	r3, #128	; 0x80
    193e:	002a      	movs	r2, r5
    1940:	401a      	ands	r2, r3
    1942:	421d      	tst	r5, r3
    1944:	d050      	beq.n	19e8 <__vfprintf+0x714>
    1946:	466b      	mov	r3, sp
    1948:	8a1b      	ldrh	r3, [r3, #16]
    194a:	9304      	str	r3, [sp, #16]
    194c:	2300      	movs	r3, #0
    194e:	9305      	str	r3, [sp, #20]
    1950:	2110      	movs	r1, #16
    1952:	002b      	movs	r3, r5
    1954:	481c      	ldr	r0, [pc, #112]	; (19c8 <__vfprintf+0x6f4>)
    1956:	400b      	ands	r3, r1
    1958:	4684      	mov	ip, r0
    195a:	9338      	str	r3, [sp, #224]	; 0xe0
    195c:	420d      	tst	r5, r1
    195e:	d003      	beq.n	1968 <__vfprintf+0x694>
    1960:	4b1b      	ldr	r3, [pc, #108]	; (19d0 <__vfprintf+0x6fc>)
    1962:	401d      	ands	r5, r3
    1964:	2300      	movs	r3, #0
    1966:	9338      	str	r3, [sp, #224]	; 0xe0
    1968:	9b06      	ldr	r3, [sp, #24]
    196a:	980a      	ldr	r0, [sp, #40]	; 0x28
    196c:	990b      	ldr	r1, [sp, #44]	; 0x2c
    196e:	933e      	str	r3, [sp, #248]	; 0xf8
    1970:	17db      	asrs	r3, r3, #31
    1972:	933f      	str	r3, [sp, #252]	; 0xfc
    1974:	9a3e      	ldr	r2, [sp, #248]	; 0xf8
    1976:	9b3f      	ldr	r3, [sp, #252]	; 0xfc
    1978:	1a80      	subs	r0, r0, r2
    197a:	4199      	sbcs	r1, r3
    197c:	2201      	movs	r2, #1
    197e:	9b0c      	ldr	r3, [sp, #48]	; 0x30
    1980:	4252      	negs	r2, r2
    1982:	9340      	str	r3, [sp, #256]	; 0x100
    1984:	4663      	mov	r3, ip
    1986:	9008      	str	r0, [sp, #32]
    1988:	9109      	str	r1, [sp, #36]	; 0x24
    198a:	9242      	str	r2, [sp, #264]	; 0x108
    198c:	9243      	str	r2, [sp, #268]	; 0x10c
    198e:	2055      	movs	r0, #85	; 0x55
    1990:	2200      	movs	r2, #0
    1992:	9341      	str	r3, [sp, #260]	; 0x104
    1994:	a946      	add	r1, sp, #280	; 0x118
    1996:	5450      	strb	r0, [r2, r1]
    1998:	3201      	adds	r2, #1
    199a:	2a20      	cmp	r2, #32
    199c:	d1fb      	bne.n	1996 <__vfprintf+0x6c2>
    199e:	2282      	movs	r2, #130	; 0x82
    19a0:	00d2      	lsls	r2, r2, #3
    19a2:	4215      	tst	r5, r2
    19a4:	d101      	bne.n	19aa <__vfprintf+0x6d6>
    19a6:	2201      	movs	r2, #1
    19a8:	9240      	str	r2, [sp, #256]	; 0x100
    19aa:	2e6e      	cmp	r6, #110	; 0x6e
    19ac:	dc65      	bgt.n	1a7a <__vfprintf+0x7a6>
    19ae:	2e47      	cmp	r6, #71	; 0x47
    19b0:	dd00      	ble.n	19b4 <__vfprintf+0x6e0>
    19b2:	e092      	b.n	1ada <__vfprintf+0x806>
    19b4:	2e40      	cmp	r6, #64	; 0x40
    19b6:	dd00      	ble.n	19ba <__vfprintf+0x6e6>
    19b8:	e083      	b.n	1ac2 <__vfprintf+0x7ee>
    19ba:	2300      	movs	r3, #0
    19bc:	930c      	str	r3, [sp, #48]	; 0x30
    19be:	e092      	b.n	1ae6 <__vfprintf+0x812>
    19c0:	00003705 	.word	0x00003705
    19c4:	0000370c 	.word	0x0000370c
    19c8:	00002ef1 	.word	0x00002ef1
    19cc:	00003718 	.word	0x00003718
    19d0:	fffffdff 	.word	0xfffffdff
    19d4:	0000370f 	.word	0x0000370f
    19d8:	00003729 	.word	0x00003729
    19dc:	0000359a 	.word	0x0000359a
    19e0:	cf08      	ldmia	r7!, {r3}
    19e2:	9205      	str	r2, [sp, #20]
    19e4:	9304      	str	r3, [sp, #16]
    19e6:	e7a9      	b.n	193c <__vfprintf+0x668>
    19e8:	05eb      	lsls	r3, r5, #23
    19ea:	d5b1      	bpl.n	1950 <__vfprintf+0x67c>
    19ec:	466b      	mov	r3, sp
    19ee:	7c1b      	ldrb	r3, [r3, #16]
    19f0:	9205      	str	r2, [sp, #20]
    19f2:	9304      	str	r3, [sp, #16]
    19f4:	e7ac      	b.n	1950 <__vfprintf+0x67c>
    19f6:	9f08      	ldr	r7, [sp, #32]
    19f8:	066b      	lsls	r3, r5, #25
    19fa:	d51a      	bpl.n	1a32 <__vfprintf+0x75e>
    19fc:	2207      	movs	r2, #7
    19fe:	3707      	adds	r7, #7
    1a00:	4397      	bics	r7, r2
    1a02:	cf0c      	ldmia	r7!, {r2, r3}
    1a04:	920e      	str	r2, [sp, #56]	; 0x38
    1a06:	930f      	str	r3, [sp, #60]	; 0x3c
    1a08:	062b      	lsls	r3, r5, #24
    1a0a:	d517      	bpl.n	1a3c <__vfprintf+0x768>
    1a0c:	466b      	mov	r3, sp
    1a0e:	2238      	movs	r2, #56	; 0x38
    1a10:	5e9b      	ldrsh	r3, [r3, r2]
    1a12:	930e      	str	r3, [sp, #56]	; 0x38
    1a14:	17db      	asrs	r3, r3, #31
    1a16:	930f      	str	r3, [sp, #60]	; 0x3c
    1a18:	9b0f      	ldr	r3, [sp, #60]	; 0x3c
    1a1a:	2b00      	cmp	r3, #0
    1a1c:	da16      	bge.n	1a4c <__vfprintf+0x778>
    1a1e:	980e      	ldr	r0, [sp, #56]	; 0x38
    1a20:	990f      	ldr	r1, [sp, #60]	; 0x3c
    1a22:	2300      	movs	r3, #0
    1a24:	4242      	negs	r2, r0
    1a26:	418b      	sbcs	r3, r1
    1a28:	9204      	str	r2, [sp, #16]
    1a2a:	9305      	str	r3, [sp, #20]
    1a2c:	4bc5      	ldr	r3, [pc, #788]	; (1d44 <__vfprintf+0xa70>)
    1a2e:	469c      	mov	ip, r3
    1a30:	e019      	b.n	1a66 <__vfprintf+0x792>
    1a32:	cf08      	ldmia	r7!, {r3}
    1a34:	930e      	str	r3, [sp, #56]	; 0x38
    1a36:	17db      	asrs	r3, r3, #31
    1a38:	930f      	str	r3, [sp, #60]	; 0x3c
    1a3a:	e7e5      	b.n	1a08 <__vfprintf+0x734>
    1a3c:	05eb      	lsls	r3, r5, #23
    1a3e:	d5eb      	bpl.n	1a18 <__vfprintf+0x744>
    1a40:	466b      	mov	r3, sp
    1a42:	2238      	movs	r2, #56	; 0x38
    1a44:	189b      	adds	r3, r3, r2
    1a46:	781b      	ldrb	r3, [r3, #0]
    1a48:	b25b      	sxtb	r3, r3
    1a4a:	e7e2      	b.n	1a12 <__vfprintf+0x73e>
    1a4c:	9a0e      	ldr	r2, [sp, #56]	; 0x38
    1a4e:	9b0f      	ldr	r3, [sp, #60]	; 0x3c
    1a50:	9204      	str	r2, [sp, #16]
    1a52:	9305      	str	r3, [sp, #20]
    1a54:	4bbc      	ldr	r3, [pc, #752]	; (1d48 <__vfprintf+0xa74>)
    1a56:	469c      	mov	ip, r3
    1a58:	07ab      	lsls	r3, r5, #30
    1a5a:	d404      	bmi.n	1a66 <__vfprintf+0x792>
    1a5c:	4bbb      	ldr	r3, [pc, #748]	; (1d4c <__vfprintf+0xa78>)
    1a5e:	469c      	mov	ip, r3
    1a60:	076b      	lsls	r3, r5, #29
    1a62:	d400      	bmi.n	1a66 <__vfprintf+0x792>
    1a64:	e751      	b.n	190a <__vfprintf+0x636>
    1a66:	2300      	movs	r3, #0
    1a68:	e6ef      	b.n	184a <__vfprintf+0x576>
    1a6a:	2310      	movs	r3, #16
    1a6c:	421d      	tst	r5, r3
    1a6e:	d000      	beq.n	1a72 <__vfprintf+0x79e>
    1a70:	e58f      	b.n	1592 <__vfprintf+0x2be>
    1a72:	431d      	orrs	r5, r3
    1a74:	3b03      	subs	r3, #3
    1a76:	930c      	str	r3, [sp, #48]	; 0x30
    1a78:	e58b      	b.n	1592 <__vfprintf+0x2be>
    1a7a:	0030      	movs	r0, r6
    1a7c:	386f      	subs	r0, #111	; 0x6f
    1a7e:	2809      	cmp	r0, #9
    1a80:	d89b      	bhi.n	19ba <__vfprintf+0x6e6>
    1a82:	f001 f8e3 	bl	2c4c <__gnu_thumb1_case_shi>
    1a86:	00cc      	.short	0x00cc
    1a88:	ff9a00b2 	.word	0xff9a00b2
    1a8c:	ff9aff9a 	.word	0xff9aff9a
    1a90:	0147ff9a 	.word	0x0147ff9a
    1a94:	ff9aff9a 	.word	0xff9aff9a
    1a98:	00b2      	.short	0x00b2
    1a9a:	f001 f8d7 	bl	2c4c <__gnu_thumb1_case_shi>
    1a9e:	00a6      	.short	0x00a6
    1aa0:	ff8eff8e 	.word	0xff8eff8e
    1aa4:	ff8eff8e 	.word	0xff8eff8e
    1aa8:	ff8eff8e 	.word	0xff8eff8e
    1aac:	ff8eff8e 	.word	0xff8eff8e
    1ab0:	ff8e013d 	.word	0xff8e013d
    1ab4:	013bff8e 	.word	0x013bff8e
    1ab8:	013d013d 	.word	0x013d013d
    1abc:	ff8e013d 	.word	0xff8e013d
    1ac0:	013b      	.short	0x013b
    1ac2:	0032      	movs	r2, r6
    1ac4:	2301      	movs	r3, #1
    1ac6:	3a41      	subs	r2, #65	; 0x41
    1ac8:	4093      	lsls	r3, r2
    1aca:	2251      	movs	r2, #81	; 0x51
    1acc:	0018      	movs	r0, r3
    1ace:	4010      	ands	r0, r2
    1ad0:	4213      	tst	r3, r2
    1ad2:	d000      	beq.n	1ad6 <__vfprintf+0x802>
    1ad4:	e120      	b.n	1d18 <__vfprintf+0xa44>
    1ad6:	900c      	str	r0, [sp, #48]	; 0x30
    1ad8:	e005      	b.n	1ae6 <__vfprintf+0x812>
    1ada:	0030      	movs	r0, r6
    1adc:	2300      	movs	r3, #0
    1ade:	3858      	subs	r0, #88	; 0x58
    1ae0:	930c      	str	r3, [sp, #48]	; 0x30
    1ae2:	2811      	cmp	r0, #17
    1ae4:	d9d9      	bls.n	1a9a <__vfprintf+0x7c6>
    1ae6:	2380      	movs	r3, #128	; 0x80
    1ae8:	002a      	movs	r2, r5
    1aea:	00db      	lsls	r3, r3, #3
    1aec:	401a      	ands	r2, r3
    1aee:	923a      	str	r2, [sp, #232]	; 0xe8
    1af0:	421d      	tst	r5, r3
    1af2:	d100      	bne.n	1af6 <__vfprintf+0x822>
    1af4:	e11f      	b.n	1d36 <__vfprintf+0xa62>
    1af6:	2300      	movs	r3, #0
    1af8:	9340      	str	r3, [sp, #256]	; 0x100
    1afa:	9b42      	ldr	r3, [sp, #264]	; 0x108
    1afc:	2b00      	cmp	r3, #0
    1afe:	dd01      	ble.n	1b04 <__vfprintf+0x830>
    1b00:	3b01      	subs	r3, #1
    1b02:	9340      	str	r3, [sp, #256]	; 0x100
    1b04:	9b43      	ldr	r3, [sp, #268]	; 0x10c
    1b06:	2b00      	cmp	r3, #0
    1b08:	dd03      	ble.n	1b12 <__vfprintf+0x83e>
    1b0a:	9a40      	ldr	r2, [sp, #256]	; 0x100
    1b0c:	3b01      	subs	r3, #1
    1b0e:	18d3      	adds	r3, r2, r3
    1b10:	9340      	str	r3, [sp, #256]	; 0x100
    1b12:	9b0c      	ldr	r3, [sp, #48]	; 0x30
    1b14:	9a40      	ldr	r2, [sp, #256]	; 0x100
    1b16:	9841      	ldr	r0, [sp, #260]	; 0x104
    1b18:	189e      	adds	r6, r3, r2
    1b1a:	f000 fb17 	bl	214c <strlen>
    1b1e:	9b14      	ldr	r3, [sp, #80]	; 0x50
    1b20:	1b9e      	subs	r6, r3, r6
    1b22:	1a33      	subs	r3, r6, r0
    1b24:	9338      	str	r3, [sp, #224]	; 0xe0
    1b26:	2301      	movs	r3, #1
    1b28:	402b      	ands	r3, r5
    1b2a:	933b      	str	r3, [sp, #236]	; 0xec
    1b2c:	4b88      	ldr	r3, [pc, #544]	; (1d50 <__vfprintf+0xa7c>)
    1b2e:	421d      	tst	r5, r3
    1b30:	d100      	bne.n	1b34 <__vfprintf+0x860>
    1b32:	e13c      	b.n	1dae <__vfprintf+0xada>
    1b34:	2300      	movs	r3, #0
    1b36:	9312      	str	r3, [sp, #72]	; 0x48
    1b38:	17db      	asrs	r3, r3, #31
    1b3a:	9313      	str	r3, [sp, #76]	; 0x4c
    1b3c:	9b41      	ldr	r3, [sp, #260]	; 0x104
    1b3e:	9e12      	ldr	r6, [sp, #72]	; 0x48
    1b40:	1c5a      	adds	r2, r3, #1
    1b42:	9241      	str	r2, [sp, #260]	; 0x104
    1b44:	781b      	ldrb	r3, [r3, #0]
    1b46:	9314      	str	r3, [sp, #80]	; 0x50
    1b48:	2b00      	cmp	r3, #0
    1b4a:	d000      	beq.n	1b4e <__vfprintf+0x87a>
    1b4c:	e132      	b.n	1db4 <__vfprintf+0xae0>
    1b4e:	9b3b      	ldr	r3, [sp, #236]	; 0xec
    1b50:	2b00      	cmp	r3, #0
    1b52:	d115      	bne.n	1b80 <__vfprintf+0x8ac>
    1b54:	3330      	adds	r3, #48	; 0x30
    1b56:	9339      	str	r3, [sp, #228]	; 0xe4
    1b58:	05ab      	lsls	r3, r5, #22
    1b5a:	d401      	bmi.n	1b60 <__vfprintf+0x88c>
    1b5c:	2320      	movs	r3, #32
    1b5e:	9339      	str	r3, [sp, #228]	; 0xe4
    1b60:	17f3      	asrs	r3, r6, #31
    1b62:	9d38      	ldr	r5, [sp, #224]	; 0xe0
    1b64:	961a      	str	r6, [sp, #104]	; 0x68
    1b66:	931b      	str	r3, [sp, #108]	; 0x6c
    1b68:	3d01      	subs	r5, #1
    1b6a:	d400      	bmi.n	1b6e <__vfprintf+0x89a>
    1b6c:	e143      	b.n	1df6 <__vfprintf+0xb22>
    1b6e:	9b38      	ldr	r3, [sp, #224]	; 0xe0
    1b70:	9938      	ldr	r1, [sp, #224]	; 0xe0
    1b72:	1e5a      	subs	r2, r3, #1
    1b74:	43db      	mvns	r3, r3
    1b76:	17db      	asrs	r3, r3, #31
    1b78:	400b      	ands	r3, r1
    1b7a:	1ad2      	subs	r2, r2, r3
    1b7c:	9238      	str	r2, [sp, #224]	; 0xe0
    1b7e:	18f6      	adds	r6, r6, r3
    1b80:	9b3a      	ldr	r3, [sp, #232]	; 0xe8
    1b82:	2b00      	cmp	r3, #0
    1b84:	d000      	beq.n	1b88 <__vfprintf+0x8b4>
    1b86:	e18f      	b.n	1ea8 <__vfprintf+0xbd4>
    1b88:	17f3      	asrs	r3, r6, #31
    1b8a:	9610      	str	r6, [sp, #64]	; 0x40
    1b8c:	9311      	str	r3, [sp, #68]	; 0x44
    1b8e:	9b40      	ldr	r3, [sp, #256]	; 0x100
    1b90:	9e10      	ldr	r6, [sp, #64]	; 0x40
    1b92:	3b01      	subs	r3, #1
    1b94:	9340      	str	r3, [sp, #256]	; 0x100
    1b96:	2b00      	cmp	r3, #0
    1b98:	db00      	blt.n	1b9c <__vfprintf+0x8c8>
    1b9a:	e1d7      	b.n	1f4c <__vfprintf+0xc78>
    1b9c:	17f3      	asrs	r3, r6, #31
    1b9e:	931d      	str	r3, [sp, #116]	; 0x74
    1ba0:	9b0c      	ldr	r3, [sp, #48]	; 0x30
    1ba2:	961c      	str	r6, [sp, #112]	; 0x70
    1ba4:	1e5d      	subs	r5, r3, #1
    1ba6:	2b00      	cmp	r3, #0
    1ba8:	dd00      	ble.n	1bac <__vfprintf+0x8d8>
    1baa:	e1f0      	b.n	1f8e <__vfprintf+0xcba>
    1bac:	9b0c      	ldr	r3, [sp, #48]	; 0x30
    1bae:	43d8      	mvns	r0, r3
    1bb0:	17c0      	asrs	r0, r0, #31
    1bb2:	4018      	ands	r0, r3
    1bb4:	1986      	adds	r6, r0, r6
    1bb6:	e17b      	b.n	1eb0 <__vfprintf+0xbdc>
    1bb8:	230f      	movs	r3, #15
    1bba:	9e04      	ldr	r6, [sp, #16]
    1bbc:	401e      	ands	r6, r3
    1bbe:	9b38      	ldr	r3, [sp, #224]	; 0xe0
    1bc0:	5d9e      	ldrb	r6, [r3, r6]
    1bc2:	9b05      	ldr	r3, [sp, #20]
    1bc4:	5456      	strb	r6, [r2, r1]
    1bc6:	071b      	lsls	r3, r3, #28
    1bc8:	469c      	mov	ip, r3
    1bca:	9b04      	ldr	r3, [sp, #16]
    1bcc:	3201      	adds	r2, #1
    1bce:	091b      	lsrs	r3, r3, #4
    1bd0:	0018      	movs	r0, r3
    1bd2:	9b05      	ldr	r3, [sp, #20]
    1bd4:	091e      	lsrs	r6, r3, #4
    1bd6:	4663      	mov	r3, ip
    1bd8:	4303      	orrs	r3, r0
    1bda:	9304      	str	r3, [sp, #16]
    1bdc:	9605      	str	r6, [sp, #20]
    1bde:	9e04      	ldr	r6, [sp, #16]
    1be0:	9b05      	ldr	r3, [sp, #20]
    1be2:	920c      	str	r2, [sp, #48]	; 0x30
    1be4:	431e      	orrs	r6, r3
    1be6:	d1e7      	bne.n	1bb8 <__vfprintf+0x8e4>
    1be8:	e77d      	b.n	1ae6 <__vfprintf+0x812>
    1bea:	2200      	movs	r2, #0
    1bec:	a946      	add	r1, sp, #280	; 0x118
    1bee:	e7f6      	b.n	1bde <__vfprintf+0x90a>
    1bf0:	2107      	movs	r1, #7
    1bf2:	9804      	ldr	r0, [sp, #16]
    1bf4:	4008      	ands	r0, r1
    1bf6:	9905      	ldr	r1, [sp, #20]
    1bf8:	3030      	adds	r0, #48	; 0x30
    1bfa:	0749      	lsls	r1, r1, #29
    1bfc:	468c      	mov	ip, r1
    1bfe:	9904      	ldr	r1, [sp, #16]
    1c00:	5498      	strb	r0, [r3, r2]
    1c02:	08ce      	lsrs	r6, r1, #3
    1c04:	9905      	ldr	r1, [sp, #20]
    1c06:	3301      	adds	r3, #1
    1c08:	08c8      	lsrs	r0, r1, #3
    1c0a:	4661      	mov	r1, ip
    1c0c:	4331      	orrs	r1, r6
    1c0e:	9104      	str	r1, [sp, #16]
    1c10:	9005      	str	r0, [sp, #20]
    1c12:	9804      	ldr	r0, [sp, #16]
    1c14:	9905      	ldr	r1, [sp, #20]
    1c16:	930c      	str	r3, [sp, #48]	; 0x30
    1c18:	4308      	orrs	r0, r1
    1c1a:	d1e9      	bne.n	1bf0 <__vfprintf+0x91c>
    1c1c:	e763      	b.n	1ae6 <__vfprintf+0x812>
    1c1e:	2300      	movs	r3, #0
    1c20:	aa46      	add	r2, sp, #280	; 0x118
    1c22:	e7f6      	b.n	1c12 <__vfprintf+0x93e>
    1c24:	9b05      	ldr	r3, [sp, #20]
    1c26:	9a04      	ldr	r2, [sp, #16]
    1c28:	07db      	lsls	r3, r3, #31
    1c2a:	0852      	lsrs	r2, r2, #1
    1c2c:	431a      	orrs	r2, r3
    1c2e:	9b05      	ldr	r3, [sp, #20]
    1c30:	9232      	str	r2, [sp, #200]	; 0xc8
    1c32:	085b      	lsrs	r3, r3, #1
    1c34:	9333      	str	r3, [sp, #204]	; 0xcc
    1c36:	9a04      	ldr	r2, [sp, #16]
    1c38:	9b05      	ldr	r3, [sp, #20]
    1c3a:	0892      	lsrs	r2, r2, #2
    1c3c:	079b      	lsls	r3, r3, #30
    1c3e:	431a      	orrs	r2, r3
    1c40:	9b05      	ldr	r3, [sp, #20]
    1c42:	9234      	str	r2, [sp, #208]	; 0xd0
    1c44:	089b      	lsrs	r3, r3, #2
    1c46:	9335      	str	r3, [sp, #212]	; 0xd4
    1c48:	9834      	ldr	r0, [sp, #208]	; 0xd0
    1c4a:	9935      	ldr	r1, [sp, #212]	; 0xd4
    1c4c:	9a32      	ldr	r2, [sp, #200]	; 0xc8
    1c4e:	9b33      	ldr	r3, [sp, #204]	; 0xcc
    1c50:	1812      	adds	r2, r2, r0
    1c52:	414b      	adcs	r3, r1
    1c54:	0719      	lsls	r1, r3, #28
    1c56:	0910      	lsrs	r0, r2, #4
    1c58:	4308      	orrs	r0, r1
    1c5a:	0919      	lsrs	r1, r3, #4
    1c5c:	902c      	str	r0, [sp, #176]	; 0xb0
    1c5e:	912d      	str	r1, [sp, #180]	; 0xb4
    1c60:	982c      	ldr	r0, [sp, #176]	; 0xb0
    1c62:	992d      	ldr	r1, [sp, #180]	; 0xb4
    1c64:	1812      	adds	r2, r2, r0
    1c66:	414b      	adcs	r3, r1
    1c68:	0619      	lsls	r1, r3, #24
    1c6a:	0a10      	lsrs	r0, r2, #8
    1c6c:	4308      	orrs	r0, r1
    1c6e:	0a19      	lsrs	r1, r3, #8
    1c70:	902e      	str	r0, [sp, #184]	; 0xb8
    1c72:	912f      	str	r1, [sp, #188]	; 0xbc
    1c74:	982e      	ldr	r0, [sp, #184]	; 0xb8
    1c76:	992f      	ldr	r1, [sp, #188]	; 0xbc
    1c78:	1812      	adds	r2, r2, r0
    1c7a:	414b      	adcs	r3, r1
    1c7c:	0419      	lsls	r1, r3, #16
    1c7e:	0c10      	lsrs	r0, r2, #16
    1c80:	4308      	orrs	r0, r1
    1c82:	0c19      	lsrs	r1, r3, #16
    1c84:	9030      	str	r0, [sp, #192]	; 0xc0
    1c86:	9131      	str	r1, [sp, #196]	; 0xc4
    1c88:	9830      	ldr	r0, [sp, #192]	; 0xc0
    1c8a:	9931      	ldr	r1, [sp, #196]	; 0xc4
    1c8c:	1812      	adds	r2, r2, r0
    1c8e:	414b      	adcs	r3, r1
    1c90:	2100      	movs	r1, #0
    1c92:	933c      	str	r3, [sp, #240]	; 0xf0
    1c94:	913d      	str	r1, [sp, #244]	; 0xf4
    1c96:	983c      	ldr	r0, [sp, #240]	; 0xf0
    1c98:	993d      	ldr	r1, [sp, #244]	; 0xf4
    1c9a:	1812      	adds	r2, r2, r0
    1c9c:	414b      	adcs	r3, r1
    1c9e:	0759      	lsls	r1, r3, #29
    1ca0:	08d0      	lsrs	r0, r2, #3
    1ca2:	4308      	orrs	r0, r1
    1ca4:	902a      	str	r0, [sp, #168]	; 0xa8
    1ca6:	2100      	movs	r1, #0
    1ca8:	2006      	movs	r0, #6
    1caa:	08db      	lsrs	r3, r3, #3
    1cac:	932b      	str	r3, [sp, #172]	; 0xac
    1cae:	9a04      	ldr	r2, [sp, #16]
    1cb0:	9b05      	ldr	r3, [sp, #20]
    1cb2:	1812      	adds	r2, r2, r0
    1cb4:	414b      	adcs	r3, r1
    1cb6:	982a      	ldr	r0, [sp, #168]	; 0xa8
    1cb8:	992b      	ldr	r1, [sp, #172]	; 0xac
    1cba:	920c      	str	r2, [sp, #48]	; 0x30
    1cbc:	930d      	str	r3, [sp, #52]	; 0x34
    1cbe:	220a      	movs	r2, #10
    1cc0:	2300      	movs	r3, #0
    1cc2:	f000 ff81 	bl	2bc8 <__aeabi_lmul>
    1cc6:	9a0c      	ldr	r2, [sp, #48]	; 0x30
    1cc8:	9b0d      	ldr	r3, [sp, #52]	; 0x34
    1cca:	1a12      	subs	r2, r2, r0
    1ccc:	418b      	sbcs	r3, r1
    1cce:	0010      	movs	r0, r2
    1cd0:	0019      	movs	r1, r3
    1cd2:	0902      	lsrs	r2, r0, #4
    1cd4:	071b      	lsls	r3, r3, #28
    1cd6:	431a      	orrs	r2, r3
    1cd8:	090b      	lsrs	r3, r1, #4
    1cda:	9236      	str	r2, [sp, #216]	; 0xd8
    1cdc:	9337      	str	r3, [sp, #220]	; 0xdc
    1cde:	9836      	ldr	r0, [sp, #216]	; 0xd8
    1ce0:	9937      	ldr	r1, [sp, #220]	; 0xdc
    1ce2:	9a2a      	ldr	r2, [sp, #168]	; 0xa8
    1ce4:	9b2b      	ldr	r3, [sp, #172]	; 0xac
    1ce6:	1880      	adds	r0, r0, r2
    1ce8:	4159      	adcs	r1, r3
    1cea:	220a      	movs	r2, #10
    1cec:	4342      	muls	r2, r0
    1cee:	9b04      	ldr	r3, [sp, #16]
    1cf0:	9004      	str	r0, [sp, #16]
    1cf2:	9105      	str	r1, [sp, #20]
    1cf4:	3330      	adds	r3, #48	; 0x30
    1cf6:	1a9b      	subs	r3, r3, r2
    1cf8:	469c      	mov	ip, r3
    1cfa:	2328      	movs	r3, #40	; 0x28
    1cfc:	aa3c      	add	r2, sp, #240	; 0xf0
    1cfe:	18d2      	adds	r2, r2, r3
    1d00:	4663      	mov	r3, ip
    1d02:	5593      	strb	r3, [r2, r6]
    1d04:	3601      	adds	r6, #1
    1d06:	9b04      	ldr	r3, [sp, #16]
    1d08:	9a05      	ldr	r2, [sp, #20]
    1d0a:	960c      	str	r6, [sp, #48]	; 0x30
    1d0c:	4313      	orrs	r3, r2
    1d0e:	d000      	beq.n	1d12 <__vfprintf+0xa3e>
    1d10:	e788      	b.n	1c24 <__vfprintf+0x950>
    1d12:	e6e8      	b.n	1ae6 <__vfprintf+0x812>
    1d14:	2600      	movs	r6, #0
    1d16:	e7f6      	b.n	1d06 <__vfprintf+0xa32>
    1d18:	ab43      	add	r3, sp, #268	; 0x10c
    1d1a:	9303      	str	r3, [sp, #12]
    1d1c:	ab42      	add	r3, sp, #264	; 0x108
    1d1e:	9302      	str	r3, [sp, #8]
    1d20:	ab40      	add	r3, sp, #256	; 0x100
    1d22:	9301      	str	r3, [sp, #4]
    1d24:	ab41      	add	r3, sp, #260	; 0x104
    1d26:	9300      	str	r3, [sp, #0]
    1d28:	0030      	movs	r0, r6
    1d2a:	002b      	movs	r3, r5
    1d2c:	9e56      	ldr	r6, [sp, #344]	; 0x158
    1d2e:	aa46      	add	r2, sp, #280	; 0x118
    1d30:	a944      	add	r1, sp, #272	; 0x110
    1d32:	47b0      	blx	r6
    1d34:	e6cf      	b.n	1ad6 <__vfprintf+0x802>
    1d36:	9b40      	ldr	r3, [sp, #256]	; 0x100
    1d38:	9a0c      	ldr	r2, [sp, #48]	; 0x30
    1d3a:	1a9b      	subs	r3, r3, r2
    1d3c:	d400      	bmi.n	1d40 <__vfprintf+0xa6c>
    1d3e:	e6e7      	b.n	1b10 <__vfprintf+0x83c>
    1d40:	9b3a      	ldr	r3, [sp, #232]	; 0xe8
    1d42:	e6e5      	b.n	1b10 <__vfprintf+0x83c>
    1d44:	00003712 	.word	0x00003712
    1d48:	00003716 	.word	0x00003716
    1d4c:	00003714 	.word	0x00003714
    1d50:	00000201 	.word	0x00000201
    1d54:	9b09      	ldr	r3, [sp, #36]	; 0x24
    1d56:	9a15      	ldr	r2, [sp, #84]	; 0x54
    1d58:	4293      	cmp	r3, r2
    1d5a:	dc04      	bgt.n	1d66 <__vfprintf+0xa92>
    1d5c:	d10d      	bne.n	1d7a <__vfprintf+0xaa6>
    1d5e:	9b08      	ldr	r3, [sp, #32]
    1d60:	9a14      	ldr	r2, [sp, #80]	; 0x50
    1d62:	4293      	cmp	r3, r2
    1d64:	d909      	bls.n	1d7a <__vfprintf+0xaa6>
    1d66:	68a3      	ldr	r3, [r4, #8]
    1d68:	3b01      	subs	r3, #1
    1d6a:	60a3      	str	r3, [r4, #8]
    1d6c:	2b00      	cmp	r3, #0
    1d6e:	db19      	blt.n	1da4 <__vfprintf+0xad0>
    1d70:	6823      	ldr	r3, [r4, #0]
    1d72:	1c5a      	adds	r2, r3, #1
    1d74:	6022      	str	r2, [r4, #0]
    1d76:	2220      	movs	r2, #32
    1d78:	701a      	strb	r2, [r3, #0]
    1d7a:	2001      	movs	r0, #1
    1d7c:	9a14      	ldr	r2, [sp, #80]	; 0x50
    1d7e:	9b15      	ldr	r3, [sp, #84]	; 0x54
    1d80:	2100      	movs	r1, #0
    1d82:	1812      	adds	r2, r2, r0
    1d84:	414b      	adcs	r3, r1
    1d86:	9214      	str	r2, [sp, #80]	; 0x50
    1d88:	9315      	str	r3, [sp, #84]	; 0x54
    1d8a:	9b38      	ldr	r3, [sp, #224]	; 0xe0
    1d8c:	1e5a      	subs	r2, r3, #1
    1d8e:	9b14      	ldr	r3, [sp, #80]	; 0x50
    1d90:	1ad3      	subs	r3, r2, r3
    1d92:	d5df      	bpl.n	1d54 <__vfprintf+0xa80>
    1d94:	9b38      	ldr	r3, [sp, #224]	; 0xe0
    1d96:	9938      	ldr	r1, [sp, #224]	; 0xe0
    1d98:	43db      	mvns	r3, r3
    1d9a:	17db      	asrs	r3, r3, #31
    1d9c:	400b      	ands	r3, r1
    1d9e:	1ad2      	subs	r2, r2, r3
    1da0:	9238      	str	r2, [sp, #224]	; 0xe0
    1da2:	e6c8      	b.n	1b36 <__vfprintf+0x862>
    1da4:	0021      	movs	r1, r4
    1da6:	2020      	movs	r0, #32
    1da8:	f000 fa1c 	bl	21e4 <__flsbuf>
    1dac:	e7e5      	b.n	1d7a <__vfprintf+0xaa6>
    1dae:	2200      	movs	r2, #0
    1db0:	2300      	movs	r3, #0
    1db2:	e7e8      	b.n	1d86 <__vfprintf+0xab2>
    1db4:	9b09      	ldr	r3, [sp, #36]	; 0x24
    1db6:	9a13      	ldr	r2, [sp, #76]	; 0x4c
    1db8:	4293      	cmp	r3, r2
    1dba:	dc04      	bgt.n	1dc6 <__vfprintf+0xaf2>
    1dbc:	d10d      	bne.n	1dda <__vfprintf+0xb06>
    1dbe:	9b08      	ldr	r3, [sp, #32]
    1dc0:	9a12      	ldr	r2, [sp, #72]	; 0x48
    1dc2:	4293      	cmp	r3, r2
    1dc4:	d909      	bls.n	1dda <__vfprintf+0xb06>
    1dc6:	68a3      	ldr	r3, [r4, #8]
    1dc8:	3b01      	subs	r3, #1
    1dca:	60a3      	str	r3, [r4, #8]
    1dcc:	2b00      	cmp	r3, #0
    1dce:	db0d      	blt.n	1dec <__vfprintf+0xb18>
    1dd0:	6823      	ldr	r3, [r4, #0]
    1dd2:	1c5a      	adds	r2, r3, #1
    1dd4:	6022      	str	r2, [r4, #0]
    1dd6:	9a14      	ldr	r2, [sp, #80]	; 0x50
    1dd8:	701a      	strb	r2, [r3, #0]
    1dda:	2001      	movs	r0, #1
    1ddc:	9a12      	ldr	r2, [sp, #72]	; 0x48
    1dde:	9b13      	ldr	r3, [sp, #76]	; 0x4c
    1de0:	2100      	movs	r1, #0
    1de2:	1812      	adds	r2, r2, r0
    1de4:	414b      	adcs	r3, r1
    1de6:	9212      	str	r2, [sp, #72]	; 0x48
    1de8:	9313      	str	r3, [sp, #76]	; 0x4c
    1dea:	e6a7      	b.n	1b3c <__vfprintf+0x868>
    1dec:	0021      	movs	r1, r4
    1dee:	9814      	ldr	r0, [sp, #80]	; 0x50
    1df0:	f000 f9f8 	bl	21e4 <__flsbuf>
    1df4:	e7f1      	b.n	1dda <__vfprintf+0xb06>
    1df6:	9b09      	ldr	r3, [sp, #36]	; 0x24
    1df8:	9a1b      	ldr	r2, [sp, #108]	; 0x6c
    1dfa:	4293      	cmp	r3, r2
    1dfc:	dc04      	bgt.n	1e08 <__vfprintf+0xb34>
    1dfe:	d10d      	bne.n	1e1c <__vfprintf+0xb48>
    1e00:	9b08      	ldr	r3, [sp, #32]
    1e02:	9a1a      	ldr	r2, [sp, #104]	; 0x68
    1e04:	4293      	cmp	r3, r2
    1e06:	d909      	bls.n	1e1c <__vfprintf+0xb48>
    1e08:	68a3      	ldr	r3, [r4, #8]
    1e0a:	3b01      	subs	r3, #1
    1e0c:	60a3      	str	r3, [r4, #8]
    1e0e:	2b00      	cmp	r3, #0
    1e10:	db0d      	blt.n	1e2e <__vfprintf+0xb5a>
    1e12:	6823      	ldr	r3, [r4, #0]
    1e14:	1c5a      	adds	r2, r3, #1
    1e16:	6022      	str	r2, [r4, #0]
    1e18:	9a39      	ldr	r2, [sp, #228]	; 0xe4
    1e1a:	701a      	strb	r2, [r3, #0]
    1e1c:	2001      	movs	r0, #1
    1e1e:	9a1a      	ldr	r2, [sp, #104]	; 0x68
    1e20:	9b1b      	ldr	r3, [sp, #108]	; 0x6c
    1e22:	2100      	movs	r1, #0
    1e24:	1812      	adds	r2, r2, r0
    1e26:	414b      	adcs	r3, r1
    1e28:	921a      	str	r2, [sp, #104]	; 0x68
    1e2a:	931b      	str	r3, [sp, #108]	; 0x6c
    1e2c:	e69c      	b.n	1b68 <__vfprintf+0x894>
    1e2e:	0021      	movs	r1, r4
    1e30:	9839      	ldr	r0, [sp, #228]	; 0xe4
    1e32:	f000 f9d7 	bl	21e4 <__flsbuf>
    1e36:	e7f1      	b.n	1e1c <__vfprintf+0xb48>
    1e38:	9a14      	ldr	r2, [sp, #80]	; 0x50
    1e3a:	ab46      	add	r3, sp, #280	; 0x118
    1e3c:	5cd0      	ldrb	r0, [r2, r3]
    1e3e:	17f3      	asrs	r3, r6, #31
    1e40:	283c      	cmp	r0, #60	; 0x3c
    1e42:	d025      	beq.n	1e90 <__vfprintf+0xbbc>
    1e44:	283e      	cmp	r0, #62	; 0x3e
    1e46:	d16b      	bne.n	1f20 <__vfprintf+0xc4c>
    1e48:	9616      	str	r6, [sp, #88]	; 0x58
    1e4a:	9317      	str	r3, [sp, #92]	; 0x5c
    1e4c:	9b43      	ldr	r3, [sp, #268]	; 0x10c
    1e4e:	9d16      	ldr	r5, [sp, #88]	; 0x58
    1e50:	3b01      	subs	r3, #1
    1e52:	9343      	str	r3, [sp, #268]	; 0x10c
    1e54:	2b00      	cmp	r3, #0
    1e56:	db23      	blt.n	1ea0 <__vfprintf+0xbcc>
    1e58:	9b09      	ldr	r3, [sp, #36]	; 0x24
    1e5a:	9a17      	ldr	r2, [sp, #92]	; 0x5c
    1e5c:	4293      	cmp	r3, r2
    1e5e:	dc04      	bgt.n	1e6a <__vfprintf+0xb96>
    1e60:	d10d      	bne.n	1e7e <__vfprintf+0xbaa>
    1e62:	9b08      	ldr	r3, [sp, #32]
    1e64:	9a16      	ldr	r2, [sp, #88]	; 0x58
    1e66:	4293      	cmp	r3, r2
    1e68:	d909      	bls.n	1e7e <__vfprintf+0xbaa>
    1e6a:	68a3      	ldr	r3, [r4, #8]
    1e6c:	3b01      	subs	r3, #1
    1e6e:	60a3      	str	r3, [r4, #8]
    1e70:	2b00      	cmp	r3, #0
    1e72:	db50      	blt.n	1f16 <__vfprintf+0xc42>
    1e74:	6823      	ldr	r3, [r4, #0]
    1e76:	1c5a      	adds	r2, r3, #1
    1e78:	6022      	str	r2, [r4, #0]
    1e7a:	2230      	movs	r2, #48	; 0x30
    1e7c:	701a      	strb	r2, [r3, #0]
    1e7e:	2001      	movs	r0, #1
    1e80:	9a16      	ldr	r2, [sp, #88]	; 0x58
    1e82:	9b17      	ldr	r3, [sp, #92]	; 0x5c
    1e84:	2100      	movs	r1, #0
    1e86:	1812      	adds	r2, r2, r0
    1e88:	414b      	adcs	r3, r1
    1e8a:	9216      	str	r2, [sp, #88]	; 0x58
    1e8c:	9317      	str	r3, [sp, #92]	; 0x5c
    1e8e:	e7dd      	b.n	1e4c <__vfprintf+0xb78>
    1e90:	9618      	str	r6, [sp, #96]	; 0x60
    1e92:	9319      	str	r3, [sp, #100]	; 0x64
    1e94:	9b42      	ldr	r3, [sp, #264]	; 0x108
    1e96:	9d18      	ldr	r5, [sp, #96]	; 0x60
    1e98:	3b01      	subs	r3, #1
    1e9a:	9342      	str	r3, [sp, #264]	; 0x108
    1e9c:	2b00      	cmp	r3, #0
    1e9e:	da19      	bge.n	1ed4 <__vfprintf+0xc00>
    1ea0:	002e      	movs	r6, r5
    1ea2:	9b14      	ldr	r3, [sp, #80]	; 0x50
    1ea4:	3301      	adds	r3, #1
    1ea6:	9314      	str	r3, [sp, #80]	; 0x50
    1ea8:	9b0c      	ldr	r3, [sp, #48]	; 0x30
    1eaa:	9a14      	ldr	r2, [sp, #80]	; 0x50
    1eac:	4293      	cmp	r3, r2
    1eae:	dcc3      	bgt.n	1e38 <__vfprintf+0xb64>
    1eb0:	9b3b      	ldr	r3, [sp, #236]	; 0xec
    1eb2:	2b00      	cmp	r3, #0
    1eb4:	d00b      	beq.n	1ece <__vfprintf+0xbfa>
    1eb6:	17f3      	asrs	r3, r6, #31
    1eb8:	9d38      	ldr	r5, [sp, #224]	; 0xe0
    1eba:	9626      	str	r6, [sp, #152]	; 0x98
    1ebc:	9327      	str	r3, [sp, #156]	; 0x9c
    1ebe:	3d01      	subs	r5, #1
    1ec0:	d400      	bmi.n	1ec4 <__vfprintf+0xbf0>
    1ec2:	e086      	b.n	1fd2 <__vfprintf+0xcfe>
    1ec4:	9b38      	ldr	r3, [sp, #224]	; 0xe0
    1ec6:	43d8      	mvns	r0, r3
    1ec8:	17c0      	asrs	r0, r0, #31
    1eca:	4018      	ands	r0, r3
    1ecc:	1836      	adds	r6, r6, r0
    1ece:	9b06      	ldr	r3, [sp, #24]
    1ed0:	199b      	adds	r3, r3, r6
    1ed2:	e435      	b.n	1740 <__vfprintf+0x46c>
    1ed4:	9b09      	ldr	r3, [sp, #36]	; 0x24
    1ed6:	9a19      	ldr	r2, [sp, #100]	; 0x64
    1ed8:	4293      	cmp	r3, r2
    1eda:	dc04      	bgt.n	1ee6 <__vfprintf+0xc12>
    1edc:	d10d      	bne.n	1efa <__vfprintf+0xc26>
    1ede:	9b08      	ldr	r3, [sp, #32]
    1ee0:	9a18      	ldr	r2, [sp, #96]	; 0x60
    1ee2:	4293      	cmp	r3, r2
    1ee4:	d909      	bls.n	1efa <__vfprintf+0xc26>
    1ee6:	68a3      	ldr	r3, [r4, #8]
    1ee8:	3b01      	subs	r3, #1
    1eea:	60a3      	str	r3, [r4, #8]
    1eec:	2b00      	cmp	r3, #0
    1eee:	db0d      	blt.n	1f0c <__vfprintf+0xc38>
    1ef0:	6823      	ldr	r3, [r4, #0]
    1ef2:	1c5a      	adds	r2, r3, #1
    1ef4:	6022      	str	r2, [r4, #0]
    1ef6:	2230      	movs	r2, #48	; 0x30
    1ef8:	701a      	strb	r2, [r3, #0]
    1efa:	2001      	movs	r0, #1
    1efc:	9a18      	ldr	r2, [sp, #96]	; 0x60
    1efe:	9b19      	ldr	r3, [sp, #100]	; 0x64
    1f00:	2100      	movs	r1, #0
    1f02:	1812      	adds	r2, r2, r0
    1f04:	414b      	adcs	r3, r1
    1f06:	9218      	str	r2, [sp, #96]	; 0x60
    1f08:	9319      	str	r3, [sp, #100]	; 0x64
    1f0a:	e7c3      	b.n	1e94 <__vfprintf+0xbc0>
    1f0c:	0021      	movs	r1, r4
    1f0e:	2030      	movs	r0, #48	; 0x30
    1f10:	f000 f968 	bl	21e4 <__flsbuf>
    1f14:	e7f1      	b.n	1efa <__vfprintf+0xc26>
    1f16:	0021      	movs	r1, r4
    1f18:	2030      	movs	r0, #48	; 0x30
    1f1a:	f000 f963 	bl	21e4 <__flsbuf>
    1f1e:	e7ae      	b.n	1e7e <__vfprintf+0xbaa>
    1f20:	9a09      	ldr	r2, [sp, #36]	; 0x24
    1f22:	1c75      	adds	r5, r6, #1
    1f24:	4293      	cmp	r3, r2
    1f26:	db03      	blt.n	1f30 <__vfprintf+0xc5c>
    1f28:	d1ba      	bne.n	1ea0 <__vfprintf+0xbcc>
    1f2a:	9b08      	ldr	r3, [sp, #32]
    1f2c:	42b3      	cmp	r3, r6
    1f2e:	d9b7      	bls.n	1ea0 <__vfprintf+0xbcc>
    1f30:	68a3      	ldr	r3, [r4, #8]
    1f32:	3b01      	subs	r3, #1
    1f34:	60a3      	str	r3, [r4, #8]
    1f36:	2b00      	cmp	r3, #0
    1f38:	db04      	blt.n	1f44 <__vfprintf+0xc70>
    1f3a:	6823      	ldr	r3, [r4, #0]
    1f3c:	1c5a      	adds	r2, r3, #1
    1f3e:	6022      	str	r2, [r4, #0]
    1f40:	7018      	strb	r0, [r3, #0]
    1f42:	e7ad      	b.n	1ea0 <__vfprintf+0xbcc>
    1f44:	0021      	movs	r1, r4
    1f46:	f000 f94d 	bl	21e4 <__flsbuf>
    1f4a:	e7a9      	b.n	1ea0 <__vfprintf+0xbcc>
    1f4c:	9b09      	ldr	r3, [sp, #36]	; 0x24
    1f4e:	9a11      	ldr	r2, [sp, #68]	; 0x44
    1f50:	4293      	cmp	r3, r2
    1f52:	dc04      	bgt.n	1f5e <__vfprintf+0xc8a>
    1f54:	d10d      	bne.n	1f72 <__vfprintf+0xc9e>
    1f56:	9b08      	ldr	r3, [sp, #32]
    1f58:	9a10      	ldr	r2, [sp, #64]	; 0x40
    1f5a:	4293      	cmp	r3, r2
    1f5c:	d909      	bls.n	1f72 <__vfprintf+0xc9e>
    1f5e:	68a3      	ldr	r3, [r4, #8]
    1f60:	3b01      	subs	r3, #1
    1f62:	60a3      	str	r3, [r4, #8]
    1f64:	2b00      	cmp	r3, #0
    1f66:	db0d      	blt.n	1f84 <__vfprintf+0xcb0>
    1f68:	6823      	ldr	r3, [r4, #0]
    1f6a:	1c5a      	adds	r2, r3, #1
    1f6c:	6022      	str	r2, [r4, #0]
    1f6e:	2230      	movs	r2, #48	; 0x30
    1f70:	701a      	strb	r2, [r3, #0]
    1f72:	2001      	movs	r0, #1
    1f74:	9a10      	ldr	r2, [sp, #64]	; 0x40
    1f76:	9b11      	ldr	r3, [sp, #68]	; 0x44
    1f78:	2100      	movs	r1, #0
    1f7a:	1812      	adds	r2, r2, r0
    1f7c:	414b      	adcs	r3, r1
    1f7e:	9210      	str	r2, [sp, #64]	; 0x40
    1f80:	9311      	str	r3, [sp, #68]	; 0x44
    1f82:	e604      	b.n	1b8e <__vfprintf+0x8ba>
    1f84:	0021      	movs	r1, r4
    1f86:	2030      	movs	r0, #48	; 0x30
    1f88:	f000 f92c 	bl	21e4 <__flsbuf>
    1f8c:	e7f1      	b.n	1f72 <__vfprintf+0xc9e>
    1f8e:	9b09      	ldr	r3, [sp, #36]	; 0x24
    1f90:	9a1d      	ldr	r2, [sp, #116]	; 0x74
    1f92:	4293      	cmp	r3, r2
    1f94:	dc04      	bgt.n	1fa0 <__vfprintf+0xccc>
    1f96:	d10e      	bne.n	1fb6 <__vfprintf+0xce2>
    1f98:	9b08      	ldr	r3, [sp, #32]
    1f9a:	9a1c      	ldr	r2, [sp, #112]	; 0x70
    1f9c:	4293      	cmp	r3, r2
    1f9e:	d90a      	bls.n	1fb6 <__vfprintf+0xce2>
    1fa0:	68a3      	ldr	r3, [r4, #8]
    1fa2:	aa46      	add	r2, sp, #280	; 0x118
    1fa4:	3b01      	subs	r3, #1
    1fa6:	5d50      	ldrb	r0, [r2, r5]
    1fa8:	60a3      	str	r3, [r4, #8]
    1faa:	2b00      	cmp	r3, #0
    1fac:	db0d      	blt.n	1fca <__vfprintf+0xcf6>
    1fae:	6823      	ldr	r3, [r4, #0]
    1fb0:	1c5a      	adds	r2, r3, #1
    1fb2:	6022      	str	r2, [r4, #0]
    1fb4:	7018      	strb	r0, [r3, #0]
    1fb6:	2001      	movs	r0, #1
    1fb8:	9a1c      	ldr	r2, [sp, #112]	; 0x70
    1fba:	9b1d      	ldr	r3, [sp, #116]	; 0x74
    1fbc:	2100      	movs	r1, #0
    1fbe:	1812      	adds	r2, r2, r0
    1fc0:	414b      	adcs	r3, r1
    1fc2:	921c      	str	r2, [sp, #112]	; 0x70
    1fc4:	931d      	str	r3, [sp, #116]	; 0x74
    1fc6:	002b      	movs	r3, r5
    1fc8:	e5ec      	b.n	1ba4 <__vfprintf+0x8d0>
    1fca:	0021      	movs	r1, r4
    1fcc:	f000 f90a 	bl	21e4 <__flsbuf>
    1fd0:	e7f1      	b.n	1fb6 <__vfprintf+0xce2>
    1fd2:	9b09      	ldr	r3, [sp, #36]	; 0x24
    1fd4:	9a27      	ldr	r2, [sp, #156]	; 0x9c
    1fd6:	4293      	cmp	r3, r2
    1fd8:	dc04      	bgt.n	1fe4 <__vfprintf+0xd10>
    1fda:	d10d      	bne.n	1ff8 <__vfprintf+0xd24>
    1fdc:	9b08      	ldr	r3, [sp, #32]
    1fde:	9a26      	ldr	r2, [sp, #152]	; 0x98
    1fe0:	4293      	cmp	r3, r2
    1fe2:	d909      	bls.n	1ff8 <__vfprintf+0xd24>
    1fe4:	68a3      	ldr	r3, [r4, #8]
    1fe6:	3b01      	subs	r3, #1
    1fe8:	60a3      	str	r3, [r4, #8]
    1fea:	2b00      	cmp	r3, #0
    1fec:	db0d      	blt.n	200a <__vfprintf+0xd36>
    1fee:	6823      	ldr	r3, [r4, #0]
    1ff0:	1c5a      	adds	r2, r3, #1
    1ff2:	6022      	str	r2, [r4, #0]
    1ff4:	2220      	movs	r2, #32
    1ff6:	701a      	strb	r2, [r3, #0]
    1ff8:	2001      	movs	r0, #1
    1ffa:	9a26      	ldr	r2, [sp, #152]	; 0x98
    1ffc:	9b27      	ldr	r3, [sp, #156]	; 0x9c
    1ffe:	2100      	movs	r1, #0
    2000:	1812      	adds	r2, r2, r0
    2002:	414b      	adcs	r3, r1
    2004:	9226      	str	r2, [sp, #152]	; 0x98
    2006:	9327      	str	r3, [sp, #156]	; 0x9c
    2008:	e759      	b.n	1ebe <__vfprintf+0xbea>
    200a:	0021      	movs	r1, r4
    200c:	2020      	movs	r0, #32
    200e:	f000 f8e9 	bl	21e4 <__flsbuf>
    2012:	e7f1      	b.n	1ff8 <__vfprintf+0xd24>

00002014 <_vsnprintf>:
    2014:	b5f0      	push	{r4, r5, r6, r7, lr}
    2016:	0007      	movs	r7, r0
    2018:	000c      	movs	r4, r1
    201a:	0015      	movs	r5, r2
    201c:	001e      	movs	r6, r3
    201e:	b097      	sub	sp, #92	; 0x5c
    2020:	2800      	cmp	r0, #0
    2022:	d103      	bne.n	202c <_vsnprintf+0x18>
    2024:	2900      	cmp	r1, #0
    2026:	d126      	bne.n	2076 <_vsnprintf+0x62>
    2028:	3401      	adds	r4, #1
    202a:	af06      	add	r7, sp, #24
    202c:	223c      	movs	r2, #60	; 0x3c
    202e:	2100      	movs	r1, #0
    2030:	a807      	add	r0, sp, #28
    2032:	f000 fd67 	bl	2b04 <memset>
    2036:	230a      	movs	r3, #10
    2038:	1e62      	subs	r2, r4, #1
    203a:	2400      	movs	r4, #0
    203c:	930a      	str	r3, [sp, #40]	; 0x28
    203e:	4b0f      	ldr	r3, [pc, #60]	; (207c <_vsnprintf+0x68>)
    2040:	9500      	str	r5, [sp, #0]
    2042:	9309      	str	r3, [sp, #36]	; 0x24
    2044:	4b0e      	ldr	r3, [pc, #56]	; (2080 <_vsnprintf+0x6c>)
    2046:	9601      	str	r6, [sp, #4]
    2048:	9302      	str	r3, [sp, #8]
    204a:	a807      	add	r0, sp, #28
    204c:	0023      	movs	r3, r4
    204e:	9707      	str	r7, [sp, #28]
    2050:	f7ff f940 	bl	12d4 <__vfprintf>
    2054:	9b09      	ldr	r3, [sp, #36]	; 0x24
    2056:	0005      	movs	r5, r0
    2058:	9305      	str	r3, [sp, #20]
    205a:	3b01      	subs	r3, #1
    205c:	9309      	str	r3, [sp, #36]	; 0x24
    205e:	42a3      	cmp	r3, r4
    2060:	db04      	blt.n	206c <_vsnprintf+0x58>
    2062:	9b07      	ldr	r3, [sp, #28]
    2064:	701c      	strb	r4, [r3, #0]
    2066:	0028      	movs	r0, r5
    2068:	b017      	add	sp, #92	; 0x5c
    206a:	bdf0      	pop	{r4, r5, r6, r7, pc}
    206c:	0020      	movs	r0, r4
    206e:	a907      	add	r1, sp, #28
    2070:	f000 f8b8 	bl	21e4 <__flsbuf>
    2074:	e7f7      	b.n	2066 <_vsnprintf+0x52>
    2076:	2501      	movs	r5, #1
    2078:	426d      	negs	r5, r5
    207a:	e7f4      	b.n	2066 <_vsnprintf+0x52>
    207c:	7fffffff 	.word	0x7fffffff
    2080:	00002b0d 	.word	0x00002b0d

00002084 <_printf>:
    2084:	b40f      	push	{r0, r1, r2, r3}
    2086:	b573      	push	{r0, r1, r4, r5, r6, lr}
    2088:	ab06      	add	r3, sp, #24
    208a:	cb40      	ldmia	r3!, {r6}
    208c:	2101      	movs	r1, #1
    208e:	0032      	movs	r2, r6
    2090:	4668      	mov	r0, sp
    2092:	9301      	str	r3, [sp, #4]
    2094:	f7ff ffbe 	bl	2014 <_vsnprintf>
    2098:	1e04      	subs	r4, r0, #0
    209a:	dd14      	ble.n	20c6 <_printf+0x42>
    209c:	1c45      	adds	r5, r0, #1
    209e:	0028      	movs	r0, r5
    20a0:	f000 f9e6 	bl	2470 <malloc>
    20a4:	9000      	str	r0, [sp, #0]
    20a6:	2800      	cmp	r0, #0
    20a8:	d00d      	beq.n	20c6 <_printf+0x42>
    20aa:	0032      	movs	r2, r6
    20ac:	0029      	movs	r1, r5
    20ae:	9b01      	ldr	r3, [sp, #4]
    20b0:	f7ff ffb0 	bl	2014 <_vsnprintf>
    20b4:	4b06      	ldr	r3, [pc, #24]	; (20d0 <_printf+0x4c>)
    20b6:	0022      	movs	r2, r4
    20b8:	9900      	ldr	r1, [sp, #0]
    20ba:	6d18      	ldr	r0, [r3, #80]	; 0x50
    20bc:	f7fe f9f6 	bl	4ac <__sys_write>
    20c0:	9800      	ldr	r0, [sp, #0]
    20c2:	f000 fd25 	bl	2b10 <free>
    20c6:	0020      	movs	r0, r4
    20c8:	bc76      	pop	{r1, r2, r4, r5, r6}
    20ca:	bc08      	pop	{r3}
    20cc:	b004      	add	sp, #16
    20ce:	4718      	bx	r3
    20d0:	1ffff150 	.word	0x1ffff150

000020d4 <setvbuf>:
    20d4:	b5f0      	push	{r4, r5, r6, r7, lr}
    20d6:	68c5      	ldr	r5, [r0, #12]
    20d8:	0004      	movs	r4, r0
    20da:	2001      	movs	r0, #1
    20dc:	07ae      	lsls	r6, r5, #30
    20de:	d00c      	beq.n	20fa <setvbuf+0x26>
    20e0:	2080      	movs	r0, #128	; 0x80
    20e2:	0080      	lsls	r0, r0, #2
    20e4:	4282      	cmp	r2, r0
    20e6:	d013      	beq.n	2110 <setvbuf+0x3c>
    20e8:	2080      	movs	r0, #128	; 0x80
    20ea:	00c0      	lsls	r0, r0, #3
    20ec:	4282      	cmp	r2, r0
    20ee:	d005      	beq.n	20fc <setvbuf+0x28>
    20f0:	2080      	movs	r0, #128	; 0x80
    20f2:	0040      	lsls	r0, r0, #1
    20f4:	4282      	cmp	r2, r0
    20f6:	d00b      	beq.n	2110 <setvbuf+0x3c>
    20f8:	38ff      	subs	r0, #255	; 0xff
    20fa:	bdf0      	pop	{r4, r5, r6, r7, pc}
    20fc:	0021      	movs	r1, r4
    20fe:	2301      	movs	r3, #1
    2100:	3124      	adds	r1, #36	; 0x24
    2102:	432a      	orrs	r2, r5
    2104:	2000      	movs	r0, #0
    2106:	6121      	str	r1, [r4, #16]
    2108:	6021      	str	r1, [r4, #0]
    210a:	61e3      	str	r3, [r4, #28]
    210c:	60e2      	str	r2, [r4, #12]
    210e:	e7f4      	b.n	20fa <setvbuf+0x26>
    2110:	4f02      	ldr	r7, [pc, #8]	; (211c <setvbuf+0x48>)
    2112:	1e5e      	subs	r6, r3, #1
    2114:	2001      	movs	r0, #1
    2116:	42be      	cmp	r6, r7
    2118:	d9f3      	bls.n	2102 <setvbuf+0x2e>
    211a:	e7ee      	b.n	20fa <setvbuf+0x26>
    211c:	00fffffe 	.word	0x00fffffe

00002120 <exit>:
    2120:	b510      	push	{r4, lr}
    2122:	4a08      	ldr	r2, [pc, #32]	; (2144 <exit+0x24>)
    2124:	6813      	ldr	r3, [r2, #0]
    2126:	2b00      	cmp	r3, #0
    2128:	d104      	bne.n	2134 <exit+0x14>
    212a:	f7ff f8ab 	bl	1284 <_terminateio>
    212e:	f000 fb53 	bl	27d8 <__exit>
    2132:	bd10      	pop	{r4, pc}
    2134:	3b01      	subs	r3, #1
    2136:	6013      	str	r3, [r2, #0]
    2138:	4a03      	ldr	r2, [pc, #12]	; (2148 <exit+0x28>)
    213a:	009b      	lsls	r3, r3, #2
    213c:	589b      	ldr	r3, [r3, r2]
    213e:	4798      	blx	r3
    2140:	e7ef      	b.n	2122 <exit+0x2>
    2142:	46c0      	nop			; (mov r8, r8)
    2144:	1ffff140 	.word	0x1ffff140
    2148:	1ffff0bc 	.word	0x1ffff0bc

0000214c <strlen>:
    214c:	2303      	movs	r3, #3
    214e:	b510      	push	{r4, lr}
    2150:	1c41      	adds	r1, r0, #1
    2152:	0002      	movs	r2, r0
    2154:	4218      	tst	r0, r3
    2156:	d117      	bne.n	2188 <strlen+0x3c>
    2158:	4c10      	ldr	r4, [pc, #64]	; (219c <strlen+0x50>)
    215a:	6813      	ldr	r3, [r2, #0]
    215c:	4810      	ldr	r0, [pc, #64]	; (21a0 <strlen+0x54>)
    215e:	1818      	adds	r0, r3, r0
    2160:	4398      	bics	r0, r3
    2162:	4220      	tst	r0, r4
    2164:	d017      	beq.n	2196 <strlen+0x4a>
    2166:	b2dc      	uxtb	r4, r3
    2168:	1c50      	adds	r0, r2, #1
    216a:	2c00      	cmp	r4, #0
    216c:	d011      	beq.n	2192 <strlen+0x46>
    216e:	24ff      	movs	r4, #255	; 0xff
    2170:	0224      	lsls	r4, r4, #8
    2172:	1c90      	adds	r0, r2, #2
    2174:	4223      	tst	r3, r4
    2176:	d00c      	beq.n	2192 <strlen+0x46>
    2178:	20ff      	movs	r0, #255	; 0xff
    217a:	0400      	lsls	r0, r0, #16
    217c:	4003      	ands	r3, r0
    217e:	1e58      	subs	r0, r3, #1
    2180:	4183      	sbcs	r3, r0
    2182:	18d3      	adds	r3, r2, r3
    2184:	1cd8      	adds	r0, r3, #3
    2186:	e004      	b.n	2192 <strlen+0x46>
    2188:	3001      	adds	r0, #1
    218a:	1e42      	subs	r2, r0, #1
    218c:	7812      	ldrb	r2, [r2, #0]
    218e:	2a00      	cmp	r2, #0
    2190:	d1df      	bne.n	2152 <strlen+0x6>
    2192:	1a40      	subs	r0, r0, r1
    2194:	bd10      	pop	{r4, pc}
    2196:	3204      	adds	r2, #4
    2198:	e7df      	b.n	215a <strlen+0xe>
    219a:	46c0      	nop			; (mov r8, r8)
    219c:	80808080 	.word	0x80808080
    21a0:	fefefeff 	.word	0xfefefeff

000021a4 <_deferredlazyseek>:
    21a4:	2320      	movs	r3, #32
    21a6:	68c2      	ldr	r2, [r0, #12]
    21a8:	b510      	push	{r4, lr}
    21aa:	439a      	bics	r2, r3
    21ac:	60c2      	str	r2, [r0, #12]
    21ae:	6983      	ldr	r3, [r0, #24]
    21b0:	6a82      	ldr	r2, [r0, #40]	; 0x28
    21b2:	0004      	movs	r4, r0
    21b4:	4293      	cmp	r3, r2
    21b6:	d00c      	beq.n	21d2 <_deferredlazyseek+0x2e>
    21b8:	f000 f8f6 	bl	23a8 <_fflush>
    21bc:	68e3      	ldr	r3, [r4, #12]
    21be:	4a07      	ldr	r2, [pc, #28]	; (21dc <_deferredlazyseek+0x38>)
    21c0:	401a      	ands	r2, r3
    21c2:	2310      	movs	r3, #16
    21c4:	4313      	orrs	r3, r2
    21c6:	60e3      	str	r3, [r4, #12]
    21c8:	6aa3      	ldr	r3, [r4, #40]	; 0x28
    21ca:	61a3      	str	r3, [r4, #24]
    21cc:	6923      	ldr	r3, [r4, #16]
    21ce:	62e3      	str	r3, [r4, #44]	; 0x2c
    21d0:	6023      	str	r3, [r4, #0]
    21d2:	68e2      	ldr	r2, [r4, #12]
    21d4:	4b02      	ldr	r3, [pc, #8]	; (21e0 <_deferredlazyseek+0x3c>)
    21d6:	4013      	ands	r3, r2
    21d8:	60e3      	str	r3, [r4, #12]
    21da:	bd10      	pop	{r4, pc}
    21dc:	ffffcfef 	.word	0xffffcfef
    21e0:	ffffbfbf 	.word	0xffffbfbf

000021e4 <__flsbuf>:
    21e4:	b5f8      	push	{r3, r4, r5, r6, r7, lr}
    21e6:	68ca      	ldr	r2, [r1, #12]
    21e8:	4b4f      	ldr	r3, [pc, #316]	; (2328 <__flsbuf+0x144>)
    21ea:	0005      	movs	r5, r0
    21ec:	4013      	ands	r3, r2
    21ee:	000c      	movs	r4, r1
    21f0:	60cb      	str	r3, [r1, #12]
    21f2:	0693      	lsls	r3, r2, #26
    21f4:	d502      	bpl.n	21fc <__flsbuf+0x18>
    21f6:	0008      	movs	r0, r1
    21f8:	f7ff ffd4 	bl	21a4 <_deferredlazyseek>
    21fc:	68a2      	ldr	r2, [r4, #8]
    21fe:	68e6      	ldr	r6, [r4, #12]
    2200:	1c53      	adds	r3, r2, #1
    2202:	da0f      	bge.n	2224 <__flsbuf+0x40>
    2204:	05b3      	lsls	r3, r6, #22
    2206:	d40d      	bmi.n	2224 <__flsbuf+0x40>
    2208:	2302      	movs	r3, #2
    220a:	425b      	negs	r3, r3
    220c:	1a9b      	subs	r3, r3, r2
    220e:	60a3      	str	r3, [r4, #8]
    2210:	2390      	movs	r3, #144	; 0x90
    2212:	025b      	lsls	r3, r3, #9
    2214:	431e      	orrs	r6, r3
    2216:	6823      	ldr	r3, [r4, #0]
    2218:	60e6      	str	r6, [r4, #12]
    221a:	1c5a      	adds	r2, r3, #1
    221c:	6022      	str	r2, [r4, #0]
    221e:	701d      	strb	r5, [r3, #0]
    2220:	b2e8      	uxtb	r0, r5
    2222:	e00a      	b.n	223a <__flsbuf+0x56>
    2224:	4a41      	ldr	r2, [pc, #260]	; (232c <__flsbuf+0x148>)
    2226:	4032      	ands	r2, r6
    2228:	2a02      	cmp	r2, #2
    222a:	d007      	beq.n	223c <__flsbuf+0x58>
    222c:	2300      	movs	r3, #0
    222e:	60a3      	str	r3, [r4, #8]
    2230:	3380      	adds	r3, #128	; 0x80
    2232:	431e      	orrs	r6, r3
    2234:	60e6      	str	r6, [r4, #12]
    2236:	2001      	movs	r0, #1
    2238:	4240      	negs	r0, r0
    223a:	bdf8      	pop	{r3, r4, r5, r6, r7, pc}
    223c:	2180      	movs	r1, #128	; 0x80
    223e:	4b3c      	ldr	r3, [pc, #240]	; (2330 <__flsbuf+0x14c>)
    2240:	0209      	lsls	r1, r1, #8
    2242:	4033      	ands	r3, r6
    2244:	428b      	cmp	r3, r1
    2246:	d10a      	bne.n	225e <__flsbuf+0x7a>
    2248:	2100      	movs	r1, #0
    224a:	0020      	movs	r0, r4
    224c:	f000 f9d6 	bl	25fc <fseek>
    2250:	68e3      	ldr	r3, [r4, #12]
    2252:	069b      	lsls	r3, r3, #26
    2254:	d502      	bpl.n	225c <__flsbuf+0x78>
    2256:	0020      	movs	r0, r4
    2258:	f7ff ffa4 	bl	21a4 <_deferredlazyseek>
    225c:	68e6      	ldr	r6, [r4, #12]
    225e:	2390      	movs	r3, #144	; 0x90
    2260:	22f0      	movs	r2, #240	; 0xf0
    2262:	025b      	lsls	r3, r3, #9
    2264:	4333      	orrs	r3, r6
    2266:	0112      	lsls	r2, r2, #4
    2268:	60e3      	str	r3, [r4, #12]
    226a:	4216      	tst	r6, r2
    226c:	d110      	bne.n	2290 <__flsbuf+0xac>
    226e:	6960      	ldr	r0, [r4, #20]
    2270:	f000 fd00 	bl	2c74 <__sys_istty>
    2274:	2800      	cmp	r0, #0
    2276:	d021      	beq.n	22bc <__flsbuf+0xd8>
    2278:	0573      	lsls	r3, r6, #21
    227a:	d51f      	bpl.n	22bc <__flsbuf+0xd8>
    227c:	0023      	movs	r3, r4
    227e:	3324      	adds	r3, #36	; 0x24
    2280:	6123      	str	r3, [r4, #16]
    2282:	6023      	str	r3, [r4, #0]
    2284:	2301      	movs	r3, #1
    2286:	61e3      	str	r3, [r4, #28]
    2288:	2392      	movs	r3, #146	; 0x92
    228a:	025b      	lsls	r3, r3, #9
    228c:	4333      	orrs	r3, r6
    228e:	60e3      	str	r3, [r4, #12]
    2290:	2190      	movs	r1, #144	; 0x90
    2292:	0109      	lsls	r1, r1, #4
    2294:	6822      	ldr	r2, [r4, #0]
    2296:	6926      	ldr	r6, [r4, #16]
    2298:	420b      	tst	r3, r1
    229a:	d025      	beq.n	22e8 <__flsbuf+0x104>
    229c:	6ae3      	ldr	r3, [r4, #44]	; 0x2c
    229e:	429a      	cmp	r2, r3
    22a0:	d900      	bls.n	22a4 <__flsbuf+0xc0>
    22a2:	0013      	movs	r3, r2
    22a4:	1b99      	subs	r1, r3, r6
    22a6:	42b3      	cmp	r3, r6
    22a8:	d117      	bne.n	22da <__flsbuf+0xf6>
    22aa:	1c73      	adds	r3, r6, #1
    22ac:	62e3      	str	r3, [r4, #44]	; 0x2c
    22ae:	6023      	str	r3, [r4, #0]
    22b0:	69e3      	ldr	r3, [r4, #28]
    22b2:	1e5a      	subs	r2, r3, #1
    22b4:	60a2      	str	r2, [r4, #8]
    22b6:	6323      	str	r3, [r4, #48]	; 0x30
    22b8:	7035      	strb	r5, [r6, #0]
    22ba:	e7b1      	b.n	2220 <__flsbuf+0x3c>
    22bc:	2780      	movs	r7, #128	; 0x80
    22be:	007f      	lsls	r7, r7, #1
    22c0:	0038      	movs	r0, r7
    22c2:	f000 f93b 	bl	253c <_Csys_alloc>
    22c6:	2394      	movs	r3, #148	; 0x94
    22c8:	68e2      	ldr	r2, [r4, #12]
    22ca:	025b      	lsls	r3, r3, #9
    22cc:	4333      	orrs	r3, r6
    22ce:	431a      	orrs	r2, r3
    22d0:	6120      	str	r0, [r4, #16]
    22d2:	6020      	str	r0, [r4, #0]
    22d4:	61e7      	str	r7, [r4, #28]
    22d6:	60e2      	str	r2, [r4, #12]
    22d8:	e7da      	b.n	2290 <__flsbuf+0xac>
    22da:	0022      	movs	r2, r4
    22dc:	0030      	movs	r0, r6
    22de:	f000 f893 	bl	2408 <_Cwritebuf>
    22e2:	2800      	cmp	r0, #0
    22e4:	d0e1      	beq.n	22aa <__flsbuf+0xc6>
    22e6:	e7a6      	b.n	2236 <__flsbuf+0x52>
    22e8:	1c51      	adds	r1, r2, #1
    22ea:	b2e8      	uxtb	r0, r5
    22ec:	6021      	str	r1, [r4, #0]
    22ee:	7010      	strb	r0, [r2, #0]
    22f0:	6ae2      	ldr	r2, [r4, #44]	; 0x2c
    22f2:	6821      	ldr	r1, [r4, #0]
    22f4:	428a      	cmp	r2, r1
    22f6:	d900      	bls.n	22fa <__flsbuf+0x116>
    22f8:	0011      	movs	r1, r2
    22fa:	69e2      	ldr	r2, [r4, #28]
    22fc:	1b89      	subs	r1, r1, r6
    22fe:	6322      	str	r2, [r4, #48]	; 0x30
    2300:	055b      	lsls	r3, r3, #21
    2302:	d404      	bmi.n	230e <__flsbuf+0x12a>
    2304:	280a      	cmp	r0, #10
    2306:	d002      	beq.n	230e <__flsbuf+0x12a>
    2308:	428a      	cmp	r2, r1
    230a:	dd00      	ble.n	230e <__flsbuf+0x12a>
    230c:	e788      	b.n	2220 <__flsbuf+0x3c>
    230e:	2300      	movs	r3, #0
    2310:	0022      	movs	r2, r4
    2312:	0030      	movs	r0, r6
    2314:	62e6      	str	r6, [r4, #44]	; 0x2c
    2316:	6026      	str	r6, [r4, #0]
    2318:	60a3      	str	r3, [r4, #8]
    231a:	f000 f875 	bl	2408 <_Cwritebuf>
    231e:	2800      	cmp	r0, #0
    2320:	d000      	beq.n	2324 <__flsbuf+0x140>
    2322:	e788      	b.n	2236 <__flsbuf+0x52>
    2324:	e77c      	b.n	2220 <__flsbuf+0x3c>
    2326:	46c0      	nop			; (mov r8, r8)
    2328:	fff7ffff 	.word	0xfff7ffff
    232c:	0000108a 	.word	0x0000108a
    2330:	0000a010 	.word	0x0000a010

00002334 <_fdopen>:
    2334:	b5f7      	push	{r0, r1, r2, r4, r5, r6, r7, lr}
    2336:	000d      	movs	r5, r1
    2338:	9001      	str	r0, [sp, #4]
    233a:	0010      	movs	r0, r2
    233c:	0014      	movs	r4, r2
    233e:	f000 f90d 	bl	255c <fclose>
    2342:	782b      	ldrb	r3, [r5, #0]
    2344:	2b72      	cmp	r3, #114	; 0x72
    2346:	d01c      	beq.n	2382 <_fdopen+0x4e>
    2348:	2b77      	cmp	r3, #119	; 0x77
    234a:	d01d      	beq.n	2388 <_fdopen+0x54>
    234c:	2b61      	cmp	r3, #97	; 0x61
    234e:	d126      	bne.n	239e <_fdopen+0x6a>
    2350:	4a14      	ldr	r2, [pc, #80]	; (23a4 <_fdopen+0x70>)
    2352:	3b59      	subs	r3, #89	; 0x59
    2354:	2002      	movs	r0, #2
    2356:	1c69      	adds	r1, r5, #1
    2358:	2703      	movs	r7, #3
    235a:	4684      	mov	ip, r0
    235c:	2604      	movs	r6, #4
    235e:	2501      	movs	r5, #1
    2360:	7808      	ldrb	r0, [r1, #0]
    2362:	282b      	cmp	r0, #43	; 0x2b
    2364:	d013      	beq.n	238e <_fdopen+0x5a>
    2366:	2862      	cmp	r0, #98	; 0x62
    2368:	d016      	beq.n	2398 <_fdopen+0x64>
    236a:	60e2      	str	r2, [r4, #12]
    236c:	9a01      	ldr	r2, [sp, #4]
    236e:	6162      	str	r2, [r4, #20]
    2370:	071b      	lsls	r3, r3, #28
    2372:	d504      	bpl.n	237e <_fdopen+0x4a>
    2374:	2202      	movs	r2, #2
    2376:	2100      	movs	r1, #0
    2378:	0020      	movs	r0, r4
    237a:	f000 f93f 	bl	25fc <fseek>
    237e:	0020      	movs	r0, r4
    2380:	bdfe      	pop	{r1, r2, r3, r4, r5, r6, r7, pc}
    2382:	2300      	movs	r3, #0
    2384:	2201      	movs	r2, #1
    2386:	e7e5      	b.n	2354 <_fdopen+0x20>
    2388:	2304      	movs	r3, #4
    238a:	2202      	movs	r2, #2
    238c:	e7e2      	b.n	2354 <_fdopen+0x20>
    238e:	4660      	mov	r0, ip
    2390:	433a      	orrs	r2, r7
    2392:	4303      	orrs	r3, r0
    2394:	3101      	adds	r1, #1
    2396:	e7e3      	b.n	2360 <_fdopen+0x2c>
    2398:	4332      	orrs	r2, r6
    239a:	432b      	orrs	r3, r5
    239c:	e7fa      	b.n	2394 <_fdopen+0x60>
    239e:	2400      	movs	r4, #0
    23a0:	e7ed      	b.n	237e <_fdopen+0x4a>
    23a2:	46c0      	nop			; (mov r8, r8)
    23a4:	00008002 	.word	0x00008002

000023a8 <_fflush>:
    23a8:	68c3      	ldr	r3, [r0, #12]
    23aa:	4a15      	ldr	r2, [pc, #84]	; (2400 <_fflush+0x58>)
    23ac:	b570      	push	{r4, r5, r6, lr}
    23ae:	401a      	ands	r2, r3
    23b0:	60c2      	str	r2, [r0, #12]
    23b2:	2282      	movs	r2, #130	; 0x82
    23b4:	0004      	movs	r4, r0
    23b6:	6905      	ldr	r5, [r0, #16]
    23b8:	6801      	ldr	r1, [r0, #0]
    23ba:	6ac6      	ldr	r6, [r0, #44]	; 0x2c
    23bc:	401a      	ands	r2, r3
    23be:	2a02      	cmp	r2, #2
    23c0:	d002      	beq.n	23c8 <_fflush+0x20>
    23c2:	2001      	movs	r0, #1
    23c4:	4240      	negs	r0, r0
    23c6:	bd70      	pop	{r4, r5, r6, pc}
    23c8:	2280      	movs	r2, #128	; 0x80
    23ca:	0018      	movs	r0, r3
    23cc:	0252      	lsls	r2, r2, #9
    23ce:	4010      	ands	r0, r2
    23d0:	4213      	tst	r3, r2
    23d2:	d0f8      	beq.n	23c6 <_fflush+0x1e>
    23d4:	42b1      	cmp	r1, r6
    23d6:	d200      	bcs.n	23da <_fflush+0x32>
    23d8:	0031      	movs	r1, r6
    23da:	428d      	cmp	r5, r1
    23dc:	d108      	bne.n	23f0 <_fflush+0x48>
    23de:	2000      	movs	r0, #0
    23e0:	68e2      	ldr	r2, [r4, #12]
    23e2:	4b08      	ldr	r3, [pc, #32]	; (2404 <_fflush+0x5c>)
    23e4:	62e5      	str	r5, [r4, #44]	; 0x2c
    23e6:	4013      	ands	r3, r2
    23e8:	6025      	str	r5, [r4, #0]
    23ea:	60a0      	str	r0, [r4, #8]
    23ec:	60e3      	str	r3, [r4, #12]
    23ee:	e7ea      	b.n	23c6 <_fflush+0x1e>
    23f0:	0022      	movs	r2, r4
    23f2:	0028      	movs	r0, r5
    23f4:	1b49      	subs	r1, r1, r5
    23f6:	f000 f807 	bl	2408 <_Cwritebuf>
    23fa:	2800      	cmp	r0, #0
    23fc:	d0ef      	beq.n	23de <_fflush+0x36>
    23fe:	e7e0      	b.n	23c2 <_fflush+0x1a>
    2400:	fff7ffff 	.word	0xfff7ffff
    2404:	fffeffff 	.word	0xfffeffff

00002408 <_Cwritebuf>:
    2408:	b5f7      	push	{r0, r1, r2, r4, r5, r6, r7, lr}
    240a:	68d5      	ldr	r5, [r2, #12]
    240c:	000f      	movs	r7, r1
    240e:	0014      	movs	r4, r2
    2410:	6956      	ldr	r6, [r2, #20]
    2412:	9001      	str	r0, [sp, #4]
    2414:	02eb      	lsls	r3, r5, #11
    2416:	d505      	bpl.n	2424 <_Cwritebuf+0x1c>
    2418:	2310      	movs	r3, #16
    241a:	0030      	movs	r0, r6
    241c:	431d      	orrs	r5, r3
    241e:	f000 fc23 	bl	2c68 <__sys_flen>
    2422:	61a0      	str	r0, [r4, #24]
    2424:	4b10      	ldr	r3, [pc, #64]	; (2468 <_Cwritebuf+0x60>)
    2426:	421d      	tst	r5, r3
    2428:	d00f      	beq.n	244a <_Cwritebuf+0x42>
    242a:	0030      	movs	r0, r6
    242c:	69a1      	ldr	r1, [r4, #24]
    242e:	f000 fc2d 	bl	2c8c <__sys_seek>
    2432:	2800      	cmp	r0, #0
    2434:	da06      	bge.n	2444 <_Cwritebuf+0x3c>
    2436:	2380      	movs	r3, #128	; 0x80
    2438:	2001      	movs	r0, #1
    243a:	68e2      	ldr	r2, [r4, #12]
    243c:	4240      	negs	r0, r0
    243e:	4313      	orrs	r3, r2
    2440:	60e3      	str	r3, [r4, #12]
    2442:	e00f      	b.n	2464 <_Cwritebuf+0x5c>
    2444:	4b09      	ldr	r3, [pc, #36]	; (246c <_Cwritebuf+0x64>)
    2446:	401d      	ands	r5, r3
    2448:	60e5      	str	r5, [r4, #12]
    244a:	9901      	ldr	r1, [sp, #4]
    244c:	003a      	movs	r2, r7
    244e:	0030      	movs	r0, r6
    2450:	f7fe f82c 	bl	4ac <__sys_write>
    2454:	0041      	lsls	r1, r0, #1
    2456:	69a3      	ldr	r3, [r4, #24]
    2458:	0849      	lsrs	r1, r1, #1
    245a:	1a79      	subs	r1, r7, r1
    245c:	1859      	adds	r1, r3, r1
    245e:	61a1      	str	r1, [r4, #24]
    2460:	2800      	cmp	r0, #0
    2462:	d1e8      	bne.n	2436 <_Cwritebuf+0x2e>
    2464:	bdfe      	pop	{r1, r2, r3, r4, r5, r6, r7, pc}
    2466:	46c0      	nop			; (mov r8, r8)
    2468:	00020010 	.word	0x00020010
    246c:	fffdffef 	.word	0xfffdffef

00002470 <malloc>:
    2470:	b5f7      	push	{r0, r1, r2, r4, r5, r6, r7, lr}
    2472:	2700      	movs	r7, #0
    2474:	4b30      	ldr	r3, [pc, #192]	; (2538 <malloc+0xc8>)
    2476:	1cc2      	adds	r2, r0, #3
    2478:	681c      	ldr	r4, [r3, #0]
    247a:	0895      	lsrs	r5, r2, #2
    247c:	42b8      	cmp	r0, r7
    247e:	d017      	beq.n	24b0 <malloc+0x40>
    2480:	002b      	movs	r3, r5
    2482:	330a      	adds	r3, #10
    2484:	2180      	movs	r1, #128	; 0x80
    2486:	9301      	str	r3, [sp, #4]
    2488:	1ceb      	adds	r3, r5, #3
    248a:	469c      	mov	ip, r3
    248c:	0549      	lsls	r1, r1, #21
    248e:	2c00      	cmp	r4, #0
    2490:	d110      	bne.n	24b4 <malloc+0x44>
    2492:	300c      	adds	r0, #12
    2494:	f000 f94e 	bl	2734 <_sbrk>
    2498:	1c43      	adds	r3, r0, #1
    249a:	d009      	beq.n	24b0 <malloc+0x40>
    249c:	2380      	movs	r3, #128	; 0x80
    249e:	059b      	lsls	r3, r3, #22
    24a0:	6003      	str	r3, [r0, #0]
    24a2:	6045      	str	r5, [r0, #4]
    24a4:	6084      	str	r4, [r0, #8]
    24a6:	2f00      	cmp	r7, #0
    24a8:	d144      	bne.n	2534 <malloc+0xc4>
    24aa:	4b23      	ldr	r3, [pc, #140]	; (2538 <malloc+0xc8>)
    24ac:	6018      	str	r0, [r3, #0]
    24ae:	e01a      	b.n	24e6 <malloc+0x76>
    24b0:	2000      	movs	r0, #0
    24b2:	bdfe      	pop	{r1, r2, r3, r4, r5, r6, r7, pc}
    24b4:	6823      	ldr	r3, [r4, #0]
    24b6:	428b      	cmp	r3, r1
    24b8:	d139      	bne.n	252e <malloc+0xbe>
    24ba:	68a7      	ldr	r7, [r4, #8]
    24bc:	6863      	ldr	r3, [r4, #4]
    24be:	2f00      	cmp	r7, #0
    24c0:	d009      	beq.n	24d6 <malloc+0x66>
    24c2:	683e      	ldr	r6, [r7, #0]
    24c4:	428e      	cmp	r6, r1
    24c6:	d106      	bne.n	24d6 <malloc+0x66>
    24c8:	687e      	ldr	r6, [r7, #4]
    24ca:	3303      	adds	r3, #3
    24cc:	18f3      	adds	r3, r6, r3
    24ce:	6063      	str	r3, [r4, #4]
    24d0:	68bb      	ldr	r3, [r7, #8]
    24d2:	60a3      	str	r3, [r4, #8]
    24d4:	e7f1      	b.n	24ba <malloc+0x4a>
    24d6:	42ab      	cmp	r3, r5
    24d8:	db07      	blt.n	24ea <malloc+0x7a>
    24da:	4563      	cmp	r3, ip
    24dc:	dc05      	bgt.n	24ea <malloc+0x7a>
    24de:	2380      	movs	r3, #128	; 0x80
    24e0:	059b      	lsls	r3, r3, #22
    24e2:	6023      	str	r3, [r4, #0]
    24e4:	0020      	movs	r0, r4
    24e6:	300c      	adds	r0, #12
    24e8:	e7e3      	b.n	24b2 <malloc+0x42>
    24ea:	9e01      	ldr	r6, [sp, #4]
    24ec:	42b3      	cmp	r3, r6
    24ee:	d911      	bls.n	2514 <malloc+0xa4>
    24f0:	2180      	movs	r1, #128	; 0x80
    24f2:	0589      	lsls	r1, r1, #22
    24f4:	6021      	str	r1, [r4, #0]
    24f6:	2103      	movs	r1, #3
    24f8:	0020      	movs	r0, r4
    24fa:	438a      	bics	r2, r1
    24fc:	2180      	movs	r1, #128	; 0x80
    24fe:	300c      	adds	r0, #12
    2500:	1b5b      	subs	r3, r3, r5
    2502:	1882      	adds	r2, r0, r2
    2504:	0549      	lsls	r1, r1, #21
    2506:	3b03      	subs	r3, #3
    2508:	6065      	str	r5, [r4, #4]
    250a:	60a2      	str	r2, [r4, #8]
    250c:	6011      	str	r1, [r2, #0]
    250e:	6053      	str	r3, [r2, #4]
    2510:	6097      	str	r7, [r2, #8]
    2512:	e7ce      	b.n	24b2 <malloc+0x42>
    2514:	2f00      	cmp	r7, #0
    2516:	d10a      	bne.n	252e <malloc+0xbe>
    2518:	009b      	lsls	r3, r3, #2
    251a:	1ac0      	subs	r0, r0, r3
    251c:	f000 f90a 	bl	2734 <_sbrk>
    2520:	1c43      	adds	r3, r0, #1
    2522:	d0c5      	beq.n	24b0 <malloc+0x40>
    2524:	2380      	movs	r3, #128	; 0x80
    2526:	059b      	lsls	r3, r3, #22
    2528:	6023      	str	r3, [r4, #0]
    252a:	6065      	str	r5, [r4, #4]
    252c:	e7da      	b.n	24e4 <malloc+0x74>
    252e:	0027      	movs	r7, r4
    2530:	68a4      	ldr	r4, [r4, #8]
    2532:	e7ac      	b.n	248e <malloc+0x1e>
    2534:	60b8      	str	r0, [r7, #8]
    2536:	e7d6      	b.n	24e6 <malloc+0x76>
    2538:	1ffff148 	.word	0x1ffff148

0000253c <_Csys_alloc>:
    253c:	b510      	push	{r4, lr}
    253e:	f7ff ff97 	bl	2470 <malloc>
    2542:	1e04      	subs	r4, r0, #0
    2544:	d105      	bne.n	2552 <_Csys_alloc+0x16>
    2546:	2217      	movs	r2, #23
    2548:	4903      	ldr	r1, [pc, #12]	; (2558 <_Csys_alloc+0x1c>)
    254a:	f7fd ffaf 	bl	4ac <__sys_write>
    254e:	f000 f943 	bl	27d8 <__exit>
    2552:	0020      	movs	r0, r4
    2554:	bd10      	pop	{r4, pc}
    2556:	46c0      	nop			; (mov r8, r8)
    2558:	0000373a 	.word	0x0000373a

0000255c <fclose>:
    255c:	b5f0      	push	{r4, r5, r6, r7, lr}
    255e:	68c5      	ldr	r5, [r0, #12]
    2560:	0004      	movs	r4, r0
    2562:	b089      	sub	sp, #36	; 0x24
    2564:	07ab      	lsls	r3, r5, #30
    2566:	d022      	beq.n	25ae <fclose+0x52>
    2568:	072b      	lsls	r3, r5, #28
    256a:	d418      	bmi.n	259e <fclose+0x42>
    256c:	6947      	ldr	r7, [r0, #20]
    256e:	6906      	ldr	r6, [r0, #16]
    2570:	f000 f822 	bl	25b8 <fflush>
    2574:	0038      	movs	r0, r7
    2576:	f000 fb71 	bl	2c5c <__sys_close>
    257a:	052b      	lsls	r3, r5, #20
    257c:	d502      	bpl.n	2584 <fclose+0x28>
    257e:	0030      	movs	r0, r6
    2580:	f000 fac6 	bl	2b10 <free>
    2584:	4b0b      	ldr	r3, [pc, #44]	; (25b4 <fclose+0x58>)
    2586:	0dad      	lsrs	r5, r5, #22
    2588:	05ad      	lsls	r5, r5, #22
    258a:	429d      	cmp	r5, r3
    258c:	d107      	bne.n	259e <fclose+0x42>
    258e:	2220      	movs	r2, #32
    2590:	4668      	mov	r0, sp
    2592:	6a21      	ldr	r1, [r4, #32]
    2594:	f000 fb80 	bl	2c98 <__sys_tmpnam>
    2598:	4668      	mov	r0, sp
    259a:	f000 facf 	bl	2b3c <remove>
    259e:	223c      	movs	r2, #60	; 0x3c
    25a0:	2100      	movs	r1, #0
    25a2:	0020      	movs	r0, r4
    25a4:	f000 faae 	bl	2b04 <memset>
    25a8:	2000      	movs	r0, #0
    25aa:	b009      	add	sp, #36	; 0x24
    25ac:	bdf0      	pop	{r4, r5, r6, r7, pc}
    25ae:	2001      	movs	r0, #1
    25b0:	4240      	negs	r0, r0
    25b2:	e7fa      	b.n	25aa <fclose+0x4e>
    25b4:	ad800000 	.word	0xad800000

000025b8 <fflush>:
    25b8:	b573      	push	{r0, r1, r4, r5, r6, lr}
    25ba:	2800      	cmp	r0, #0
    25bc:	d013      	beq.n	25e6 <fflush+0x2e>
    25be:	f000 f8db 	bl	2778 <_do_fflush>
    25c2:	0005      	movs	r5, r0
    25c4:	0028      	movs	r0, r5
    25c6:	bd76      	pop	{r1, r2, r4, r5, r6, pc}
    25c8:	0030      	movs	r0, r6
    25ca:	4360      	muls	r0, r4
    25cc:	4b09      	ldr	r3, [pc, #36]	; (25f4 <fflush+0x3c>)
    25ce:	18c0      	adds	r0, r0, r3
    25d0:	f000 f8d2 	bl	2778 <_do_fflush>
    25d4:	2800      	cmp	r0, #0
    25d6:	d001      	beq.n	25dc <fflush+0x24>
    25d8:	2501      	movs	r5, #1
    25da:	426d      	negs	r5, r5
    25dc:	3401      	adds	r4, #1
    25de:	9b01      	ldr	r3, [sp, #4]
    25e0:	42a3      	cmp	r3, r4
    25e2:	dcf1      	bgt.n	25c8 <fflush+0x10>
    25e4:	e7ee      	b.n	25c4 <fflush+0xc>
    25e6:	4b04      	ldr	r3, [pc, #16]	; (25f8 <fflush+0x40>)
    25e8:	0004      	movs	r4, r0
    25ea:	681b      	ldr	r3, [r3, #0]
    25ec:	0005      	movs	r5, r0
    25ee:	263c      	movs	r6, #60	; 0x3c
    25f0:	9301      	str	r3, [sp, #4]
    25f2:	e7f4      	b.n	25de <fflush+0x26>
    25f4:	1ffff150 	.word	0x1ffff150
    25f8:	00002de0 	.word	0x00002de0

000025fc <fseek>:
    25fc:	b5f7      	push	{r0, r1, r2, r4, r5, r6, r7, lr}
    25fe:	4b39      	ldr	r3, [pc, #228]	; (26e4 <fseek+0xe8>)
    2600:	68c6      	ldr	r6, [r0, #12]
    2602:	0004      	movs	r4, r0
    2604:	000d      	movs	r5, r1
    2606:	9200      	str	r2, [sp, #0]
    2608:	421e      	tst	r6, r3
    260a:	d102      	bne.n	2612 <fseek+0x16>
    260c:	2702      	movs	r7, #2
    260e:	0038      	movs	r0, r7
    2610:	bdfe      	pop	{r1, r2, r3, r4, r5, r6, r7, pc}
    2612:	6943      	ldr	r3, [r0, #20]
    2614:	0018      	movs	r0, r3
    2616:	9301      	str	r3, [sp, #4]
    2618:	f000 fb2c 	bl	2c74 <__sys_istty>
    261c:	1e07      	subs	r7, r0, #0
    261e:	d1f5      	bne.n	260c <fseek+0x10>
    2620:	9b00      	ldr	r3, [sp, #0]
    2622:	2b01      	cmp	r3, #1
    2624:	d005      	beq.n	2632 <fseek+0x36>
    2626:	2b02      	cmp	r3, #2
    2628:	d02c      	beq.n	2684 <fseek+0x88>
    262a:	2b00      	cmp	r3, #0
    262c:	d005      	beq.n	263a <fseek+0x3e>
    262e:	3702      	adds	r7, #2
    2630:	e7ed      	b.n	260e <fseek+0x12>
    2632:	0020      	movs	r0, r4
    2634:	f000 f85a 	bl	26ec <ftell>
    2638:	182d      	adds	r5, r5, r0
    263a:	2d00      	cmp	r5, #0
    263c:	dbe6      	blt.n	260c <fseek+0x10>
    263e:	04b3      	lsls	r3, r6, #18
    2640:	d504      	bpl.n	264c <fseek+0x50>
    2642:	6823      	ldr	r3, [r4, #0]
    2644:	6ae2      	ldr	r2, [r4, #44]	; 0x2c
    2646:	429a      	cmp	r2, r3
    2648:	d200      	bcs.n	264c <fseek+0x50>
    264a:	62e3      	str	r3, [r4, #44]	; 0x2c
    264c:	69a1      	ldr	r1, [r4, #24]
    264e:	42a9      	cmp	r1, r5
    2650:	dc0e      	bgt.n	2670 <fseek+0x74>
    2652:	6ae2      	ldr	r2, [r4, #44]	; 0x2c
    2654:	6823      	ldr	r3, [r4, #0]
    2656:	4293      	cmp	r3, r2
    2658:	d200      	bcs.n	265c <fseek+0x60>
    265a:	0013      	movs	r3, r2
    265c:	6922      	ldr	r2, [r4, #16]
    265e:	1858      	adds	r0, r3, r1
    2660:	9200      	str	r2, [sp, #0]
    2662:	1a80      	subs	r0, r0, r2
    2664:	42a8      	cmp	r0, r5
    2666:	db03      	blt.n	2670 <fseek+0x74>
    2668:	6b20      	ldr	r0, [r4, #48]	; 0x30
    266a:	180a      	adds	r2, r1, r0
    266c:	42aa      	cmp	r2, r5
    266e:	dc28      	bgt.n	26c2 <fseek+0xc6>
    2670:	2320      	movs	r3, #32
    2672:	431e      	orrs	r6, r3
    2674:	2300      	movs	r3, #0
    2676:	62a5      	str	r5, [r4, #40]	; 0x28
    2678:	60a3      	str	r3, [r4, #8]
    267a:	6063      	str	r3, [r4, #4]
    267c:	4b1a      	ldr	r3, [pc, #104]	; (26e8 <fseek+0xec>)
    267e:	401e      	ands	r6, r3
    2680:	60e6      	str	r6, [r4, #12]
    2682:	e7c4      	b.n	260e <fseek+0x12>
    2684:	9801      	ldr	r0, [sp, #4]
    2686:	f000 faef 	bl	2c68 <__sys_flen>
    268a:	68e2      	ldr	r2, [r4, #12]
    268c:	2800      	cmp	r0, #0
    268e:	da04      	bge.n	269a <fseek+0x9e>
    2690:	2380      	movs	r3, #128	; 0x80
    2692:	4313      	orrs	r3, r2
    2694:	2701      	movs	r7, #1
    2696:	60e3      	str	r3, [r4, #12]
    2698:	e7b9      	b.n	260e <fseek+0x12>
    269a:	6ae1      	ldr	r1, [r4, #44]	; 0x2c
    269c:	6823      	ldr	r3, [r4, #0]
    269e:	4299      	cmp	r1, r3
    26a0:	d900      	bls.n	26a4 <fseek+0xa8>
    26a2:	000b      	movs	r3, r1
    26a4:	69a1      	ldr	r1, [r4, #24]
    26a6:	185b      	adds	r3, r3, r1
    26a8:	6921      	ldr	r1, [r4, #16]
    26aa:	1a5b      	subs	r3, r3, r1
    26ac:	0692      	lsls	r2, r2, #26
    26ae:	d503      	bpl.n	26b8 <fseek+0xbc>
    26b0:	6aa2      	ldr	r2, [r4, #40]	; 0x28
    26b2:	4293      	cmp	r3, r2
    26b4:	da00      	bge.n	26b8 <fseek+0xbc>
    26b6:	0013      	movs	r3, r2
    26b8:	4283      	cmp	r3, r0
    26ba:	da00      	bge.n	26be <fseek+0xc2>
    26bc:	0003      	movs	r3, r0
    26be:	18ed      	adds	r5, r5, r3
    26c0:	e7bb      	b.n	263a <fseek+0x3e>
    26c2:	1a6d      	subs	r5, r5, r1
    26c4:	07b2      	lsls	r2, r6, #30
    26c6:	d501      	bpl.n	26cc <fseek+0xd0>
    26c8:	1a28      	subs	r0, r5, r0
    26ca:	60a0      	str	r0, [r4, #8]
    26cc:	07f2      	lsls	r2, r6, #31
    26ce:	d503      	bpl.n	26d8 <fseek+0xdc>
    26d0:	9a00      	ldr	r2, [sp, #0]
    26d2:	1a9b      	subs	r3, r3, r2
    26d4:	1aeb      	subs	r3, r5, r3
    26d6:	6063      	str	r3, [r4, #4]
    26d8:	9b00      	ldr	r3, [sp, #0]
    26da:	195d      	adds	r5, r3, r5
    26dc:	2320      	movs	r3, #32
    26de:	6025      	str	r5, [r4, #0]
    26e0:	439e      	bics	r6, r3
    26e2:	e7cb      	b.n	267c <fseek+0x80>
    26e4:	00100003 	.word	0x00100003
    26e8:	fff7cfbf 	.word	0xfff7cfbf

000026ec <ftell>:
    26ec:	68c2      	ldr	r2, [r0, #12]
    26ee:	0793      	lsls	r3, r2, #30
    26f0:	d105      	bne.n	26fe <ftell+0x12>
    26f2:	2221      	movs	r2, #33	; 0x21
    26f4:	2001      	movs	r0, #1
    26f6:	4b0e      	ldr	r3, [pc, #56]	; (2730 <ftell+0x44>)
    26f8:	4240      	negs	r0, r0
    26fa:	601a      	str	r2, [r3, #0]
    26fc:	4770      	bx	lr
    26fe:	2320      	movs	r3, #32
    2700:	4013      	ands	r3, r2
    2702:	0312      	lsls	r2, r2, #12
    2704:	d50a      	bpl.n	271c <ftell+0x30>
    2706:	2b00      	cmp	r3, #0
    2708:	d002      	beq.n	2710 <ftell+0x24>
    270a:	6a80      	ldr	r0, [r0, #40]	; 0x28
    270c:	3801      	subs	r0, #1
    270e:	e7f5      	b.n	26fc <ftell+0x10>
    2710:	6803      	ldr	r3, [r0, #0]
    2712:	6982      	ldr	r2, [r0, #24]
    2714:	6900      	ldr	r0, [r0, #16]
    2716:	189b      	adds	r3, r3, r2
    2718:	1a18      	subs	r0, r3, r0
    271a:	e7f7      	b.n	270c <ftell+0x20>
    271c:	2b00      	cmp	r3, #0
    271e:	d001      	beq.n	2724 <ftell+0x38>
    2720:	6a80      	ldr	r0, [r0, #40]	; 0x28
    2722:	e7eb      	b.n	26fc <ftell+0x10>
    2724:	6803      	ldr	r3, [r0, #0]
    2726:	6982      	ldr	r2, [r0, #24]
    2728:	6900      	ldr	r0, [r0, #16]
    272a:	189b      	adds	r3, r3, r2
    272c:	1a18      	subs	r0, r3, r0
    272e:	e7e5      	b.n	26fc <ftell+0x10>
    2730:	1ffff14c 	.word	0x1ffff14c

00002734 <_sbrk>:
    2734:	b570      	push	{r4, r5, r6, lr}
    2736:	4d0d      	ldr	r5, [pc, #52]	; (276c <_sbrk+0x38>)
    2738:	0004      	movs	r4, r0
    273a:	682b      	ldr	r3, [r5, #0]
    273c:	2b00      	cmp	r3, #0
    273e:	d101      	bne.n	2744 <_sbrk+0x10>
    2740:	4b0b      	ldr	r3, [pc, #44]	; (2770 <_sbrk+0x3c>)
    2742:	602b      	str	r3, [r5, #0]
    2744:	2303      	movs	r3, #3
    2746:	682e      	ldr	r6, [r5, #0]
    2748:	3403      	adds	r4, #3
    274a:	439c      	bics	r4, r3
    274c:	1934      	adds	r4, r6, r4
    274e:	0020      	movs	r0, r4
    2750:	f000 f836 	bl	27c0 <__check_heap_overflow>
    2754:	2800      	cmp	r0, #0
    2756:	d102      	bne.n	275e <_sbrk+0x2a>
    2758:	602c      	str	r4, [r5, #0]
    275a:	0030      	movs	r0, r6
    275c:	bd70      	pop	{r4, r5, r6, pc}
    275e:	220c      	movs	r2, #12
    2760:	2601      	movs	r6, #1
    2762:	4b04      	ldr	r3, [pc, #16]	; (2774 <_sbrk+0x40>)
    2764:	4276      	negs	r6, r6
    2766:	601a      	str	r2, [r3, #0]
    2768:	e7f7      	b.n	275a <_sbrk+0x26>
    276a:	46c0      	nop			; (mov r8, r8)
    276c:	1ffff144 	.word	0x1ffff144
    2770:	20000404 	.word	0x20000404
    2774:	1ffff14c 	.word	0x1ffff14c

00002778 <_do_fflush>:
    2778:	68c3      	ldr	r3, [r0, #12]
    277a:	b570      	push	{r4, r5, r6, lr}
    277c:	2203      	movs	r2, #3
    277e:	001e      	movs	r6, r3
    2780:	0004      	movs	r4, r0
    2782:	4016      	ands	r6, r2
    2784:	4213      	tst	r3, r2
    2786:	d011      	beq.n	27ac <_do_fflush+0x34>
    2788:	069b      	lsls	r3, r3, #26
    278a:	d511      	bpl.n	27b0 <_do_fflush+0x38>
    278c:	6a85      	ldr	r5, [r0, #40]	; 0x28
    278e:	f7ff fd09 	bl	21a4 <_deferredlazyseek>
    2792:	68e2      	ldr	r2, [r4, #12]
    2794:	4b09      	ldr	r3, [pc, #36]	; (27bc <_do_fflush+0x44>)
    2796:	0020      	movs	r0, r4
    2798:	4013      	ands	r3, r2
    279a:	60e3      	str	r3, [r4, #12]
    279c:	f7ff fe04 	bl	23a8 <_fflush>
    27a0:	2200      	movs	r2, #0
    27a2:	0006      	movs	r6, r0
    27a4:	0029      	movs	r1, r5
    27a6:	0020      	movs	r0, r4
    27a8:	f7ff ff28 	bl	25fc <fseek>
    27ac:	0030      	movs	r0, r6
    27ae:	bd70      	pop	{r4, r5, r6, pc}
    27b0:	6803      	ldr	r3, [r0, #0]
    27b2:	6982      	ldr	r2, [r0, #24]
    27b4:	189d      	adds	r5, r3, r2
    27b6:	6903      	ldr	r3, [r0, #16]
    27b8:	1aed      	subs	r5, r5, r3
    27ba:	e7ea      	b.n	2792 <_do_fflush+0x1a>
    27bc:	ffffcfff 	.word	0xffffcfff

000027c0 <__check_heap_overflow>:
    27c0:	0003      	movs	r3, r0
    27c2:	4804      	ldr	r0, [pc, #16]	; (27d4 <__check_heap_overflow+0x14>)
    27c4:	2800      	cmp	r0, #0
    27c6:	d003      	beq.n	27d0 <__check_heap_overflow+0x10>
    27c8:	2200      	movs	r2, #0
    27ca:	4283      	cmp	r3, r0
    27cc:	4152      	adcs	r2, r2
    27ce:	0010      	movs	r0, r2
    27d0:	4770      	bx	lr
    27d2:	46c0      	nop			; (mov r8, r8)
    27d4:	20000804 	.word	0x20000804

000027d8 <__exit>:
    27d8:	2018      	movs	r0, #24
    27da:	4901      	ldr	r1, [pc, #4]	; (27e0 <__exit+0x8>)
    27dc:	beab      	bkpt	0x00ab
    27de:	4770      	bx	lr
    27e0:	00020026 	.word	0x00020026

000027e4 <ISHAProcessMessageBlock>:
    27e4:	b5f0      	push	{r4, r5, r6, r7, lr}
    27e6:	6803      	ldr	r3, [r0, #0]
    27e8:	b089      	sub	sp, #36	; 0x24
    27ea:	9300      	str	r3, [sp, #0]
    27ec:	6843      	ldr	r3, [r0, #4]
    27ee:	0002      	movs	r2, r0
    27f0:	9301      	str	r3, [sp, #4]
    27f2:	6883      	ldr	r3, [r0, #8]
    27f4:	9e01      	ldr	r6, [sp, #4]
    27f6:	9302      	str	r3, [sp, #8]
    27f8:	68c3      	ldr	r3, [r0, #12]
    27fa:	9d02      	ldr	r5, [sp, #8]
    27fc:	9303      	str	r3, [sp, #12]
    27fe:	6903      	ldr	r3, [r0, #16]
    2800:	9c03      	ldr	r4, [sp, #12]
    2802:	469c      	mov	ip, r3
    2804:	0003      	movs	r3, r0
    2806:	3358      	adds	r3, #88	; 0x58
    2808:	9305      	str	r3, [sp, #20]
    280a:	4663      	mov	r3, ip
    280c:	9304      	str	r3, [sp, #16]
    280e:	9b00      	ldr	r3, [sp, #0]
    2810:	3218      	adds	r2, #24
    2812:	001f      	movs	r7, r3
    2814:	7811      	ldrb	r1, [r2, #0]
    2816:	7853      	ldrb	r3, [r2, #1]
    2818:	0609      	lsls	r1, r1, #24
    281a:	041b      	lsls	r3, r3, #16
    281c:	430b      	orrs	r3, r1
    281e:	78d1      	ldrb	r1, [r2, #3]
    2820:	430b      	orrs	r3, r1
    2822:	7891      	ldrb	r1, [r2, #2]
    2824:	3204      	adds	r2, #4
    2826:	0209      	lsls	r1, r1, #8
    2828:	430b      	orrs	r3, r1
    282a:	0029      	movs	r1, r5
    282c:	4061      	eors	r1, r4
    282e:	4031      	ands	r1, r6
    2830:	4061      	eors	r1, r4
    2832:	9306      	str	r3, [sp, #24]
    2834:	9107      	str	r1, [sp, #28]
    2836:	003b      	movs	r3, r7
    2838:	211b      	movs	r1, #27
    283a:	41cb      	rors	r3, r1
    283c:	9907      	ldr	r1, [sp, #28]
    283e:	18c9      	adds	r1, r1, r3
    2840:	9b06      	ldr	r3, [sp, #24]
    2842:	185b      	adds	r3, r3, r1
    2844:	9904      	ldr	r1, [sp, #16]
    2846:	9404      	str	r4, [sp, #16]
    2848:	185b      	adds	r3, r3, r1
    284a:	0031      	movs	r1, r6
    284c:	2602      	movs	r6, #2
    284e:	41f1      	rors	r1, r6
    2850:	003e      	movs	r6, r7
    2852:	9f05      	ldr	r7, [sp, #20]
    2854:	4297      	cmp	r7, r2
    2856:	d111      	bne.n	287c <ISHAProcessMessageBlock+0x98>
    2858:	9a00      	ldr	r2, [sp, #0]
    285a:	4464      	add	r4, ip
    285c:	18d3      	adds	r3, r2, r3
    285e:	6003      	str	r3, [r0, #0]
    2860:	9b01      	ldr	r3, [sp, #4]
    2862:	6104      	str	r4, [r0, #16]
    2864:	199e      	adds	r6, r3, r6
    2866:	9b02      	ldr	r3, [sp, #8]
    2868:	6046      	str	r6, [r0, #4]
    286a:	1859      	adds	r1, r3, r1
    286c:	9b03      	ldr	r3, [sp, #12]
    286e:	6081      	str	r1, [r0, #8]
    2870:	195d      	adds	r5, r3, r5
    2872:	2300      	movs	r3, #0
    2874:	60c5      	str	r5, [r0, #12]
    2876:	6583      	str	r3, [r0, #88]	; 0x58
    2878:	b009      	add	sp, #36	; 0x24
    287a:	bdf0      	pop	{r4, r5, r6, r7, pc}
    287c:	002c      	movs	r4, r5
    287e:	000d      	movs	r5, r1
    2880:	e7c7      	b.n	2812 <ISHAProcessMessageBlock+0x2e>

00002882 <ISHAResult>:
    2882:	b5f8      	push	{r3, r4, r5, r6, r7, lr}
    2884:	6e03      	ldr	r3, [r0, #96]	; 0x60
    2886:	0004      	movs	r4, r0
    2888:	000d      	movs	r5, r1
    288a:	2b00      	cmp	r3, #0
    288c:	d15b      	bne.n	2946 <ISHAResult+0xc4>
    288e:	6dc6      	ldr	r6, [r0, #92]	; 0x5c
    2890:	2e00      	cmp	r6, #0
    2892:	d122      	bne.n	28da <ISHAResult+0x58>
    2894:	6d83      	ldr	r3, [r0, #88]	; 0x58
    2896:	0007      	movs	r7, r0
    2898:	1c5a      	adds	r2, r3, #1
    289a:	18e1      	adds	r1, r4, r3
    289c:	2380      	movs	r3, #128	; 0x80
    289e:	469c      	mov	ip, r3
    28a0:	6da3      	ldr	r3, [r4, #88]	; 0x58
    28a2:	3718      	adds	r7, #24
    28a4:	18b8      	adds	r0, r7, r2
    28a6:	65a2      	str	r2, [r4, #88]	; 0x58
    28a8:	2b37      	cmp	r3, #55	; 0x37
    28aa:	dd4d      	ble.n	2948 <ISHAResult+0xc6>
    28ac:	4663      	mov	r3, ip
    28ae:	760b      	strb	r3, [r1, #24]
    28b0:	3b40      	subs	r3, #64	; 0x40
    28b2:	0031      	movs	r1, r6
    28b4:	1a9a      	subs	r2, r3, r2
    28b6:	f000 f925 	bl	2b04 <memset>
    28ba:	0020      	movs	r0, r4
    28bc:	f7ff ff92 	bl	27e4 <ISHAProcessMessageBlock>
    28c0:	223a      	movs	r2, #58	; 0x3a
    28c2:	0031      	movs	r1, r6
    28c4:	0038      	movs	r0, r7
    28c6:	f000 f91d 	bl	2b04 <memset>
    28ca:	6963      	ldr	r3, [r4, #20]
    28cc:	0020      	movs	r0, r4
    28ce:	ba1b      	rev	r3, r3
    28d0:	6563      	str	r3, [r4, #84]	; 0x54
    28d2:	f7ff ff87 	bl	27e4 <ISHAProcessMessageBlock>
    28d6:	2301      	movs	r3, #1
    28d8:	65e3      	str	r3, [r4, #92]	; 0x5c
    28da:	6862      	ldr	r2, [r4, #4]
    28dc:	6823      	ldr	r3, [r4, #0]
    28de:	ba12      	rev	r2, r2
    28e0:	6062      	str	r2, [r4, #4]
    28e2:	68a2      	ldr	r2, [r4, #8]
    28e4:	ba1b      	rev	r3, r3
    28e6:	ba12      	rev	r2, r2
    28e8:	60a2      	str	r2, [r4, #8]
    28ea:	68e2      	ldr	r2, [r4, #12]
    28ec:	6023      	str	r3, [r4, #0]
    28ee:	ba12      	rev	r2, r2
    28f0:	60e2      	str	r2, [r4, #12]
    28f2:	6922      	ldr	r2, [r4, #16]
    28f4:	ba12      	rev	r2, r2
    28f6:	6122      	str	r2, [r4, #16]
    28f8:	702b      	strb	r3, [r5, #0]
    28fa:	7863      	ldrb	r3, [r4, #1]
    28fc:	706b      	strb	r3, [r5, #1]
    28fe:	78a3      	ldrb	r3, [r4, #2]
    2900:	70ab      	strb	r3, [r5, #2]
    2902:	78e3      	ldrb	r3, [r4, #3]
    2904:	70eb      	strb	r3, [r5, #3]
    2906:	7923      	ldrb	r3, [r4, #4]
    2908:	712b      	strb	r3, [r5, #4]
    290a:	7963      	ldrb	r3, [r4, #5]
    290c:	716b      	strb	r3, [r5, #5]
    290e:	79a3      	ldrb	r3, [r4, #6]
    2910:	71ab      	strb	r3, [r5, #6]
    2912:	79e3      	ldrb	r3, [r4, #7]
    2914:	71eb      	strb	r3, [r5, #7]
    2916:	7a23      	ldrb	r3, [r4, #8]
    2918:	722b      	strb	r3, [r5, #8]
    291a:	7a63      	ldrb	r3, [r4, #9]
    291c:	726b      	strb	r3, [r5, #9]
    291e:	7aa3      	ldrb	r3, [r4, #10]
    2920:	72ab      	strb	r3, [r5, #10]
    2922:	7ae3      	ldrb	r3, [r4, #11]
    2924:	72eb      	strb	r3, [r5, #11]
    2926:	7b23      	ldrb	r3, [r4, #12]
    2928:	732b      	strb	r3, [r5, #12]
    292a:	7b63      	ldrb	r3, [r4, #13]
    292c:	736b      	strb	r3, [r5, #13]
    292e:	7ba3      	ldrb	r3, [r4, #14]
    2930:	73ab      	strb	r3, [r5, #14]
    2932:	7be3      	ldrb	r3, [r4, #15]
    2934:	73eb      	strb	r3, [r5, #15]
    2936:	7c23      	ldrb	r3, [r4, #16]
    2938:	742b      	strb	r3, [r5, #16]
    293a:	7c63      	ldrb	r3, [r4, #17]
    293c:	746b      	strb	r3, [r5, #17]
    293e:	7ca3      	ldrb	r3, [r4, #18]
    2940:	74ab      	strb	r3, [r5, #18]
    2942:	7ce3      	ldrb	r3, [r4, #19]
    2944:	74eb      	strb	r3, [r5, #19]
    2946:	bdf8      	pop	{r3, r4, r5, r6, r7, pc}
    2948:	4663      	mov	r3, ip
    294a:	760b      	strb	r3, [r1, #24]
    294c:	233c      	movs	r3, #60	; 0x3c
    294e:	0031      	movs	r1, r6
    2950:	1a9a      	subs	r2, r3, r2
    2952:	e7b8      	b.n	28c6 <ISHAResult+0x44>

00002954 <ISHAInput>:
    2954:	b5f8      	push	{r3, r4, r5, r6, r7, lr}
    2956:	0004      	movs	r4, r0
    2958:	000e      	movs	r6, r1
    295a:	00d3      	lsls	r3, r2, #3
    295c:	0015      	movs	r5, r2
    295e:	6942      	ldr	r2, [r0, #20]
    2960:	18d3      	adds	r3, r2, r3
    2962:	6143      	str	r3, [r0, #20]
    2964:	2d00      	cmp	r5, #0
    2966:	d100      	bne.n	296a <ISHAInput+0x16>
    2968:	bdf8      	pop	{r3, r4, r5, r6, r7, pc}
    296a:	2140      	movs	r1, #64	; 0x40
    296c:	6da3      	ldr	r3, [r4, #88]	; 0x58
    296e:	195a      	adds	r2, r3, r5
    2970:	1acf      	subs	r7, r1, r3
    2972:	428a      	cmp	r2, r1
    2974:	d800      	bhi.n	2978 <ISHAInput+0x24>
    2976:	002f      	movs	r7, r5
    2978:	0020      	movs	r0, r4
    297a:	3018      	adds	r0, #24
    297c:	0031      	movs	r1, r6
    297e:	18c0      	adds	r0, r0, r3
    2980:	003a      	movs	r2, r7
    2982:	f000 f8bb 	bl	2afc <memcpy>
    2986:	6da3      	ldr	r3, [r4, #88]	; 0x58
    2988:	19f6      	adds	r6, r6, r7
    298a:	18fb      	adds	r3, r7, r3
    298c:	65a3      	str	r3, [r4, #88]	; 0x58
    298e:	1bed      	subs	r5, r5, r7
    2990:	2b40      	cmp	r3, #64	; 0x40
    2992:	d1e7      	bne.n	2964 <ISHAInput+0x10>
    2994:	0020      	movs	r0, r4
    2996:	f7ff ff25 	bl	27e4 <ISHAProcessMessageBlock>
    299a:	e7e3      	b.n	2964 <ISHAInput+0x10>

0000299c <hmac_isha>:
    299c:	b5f0      	push	{r4, r5, r6, r7, lr}
    299e:	001e      	movs	r6, r3
    29a0:	2340      	movs	r3, #64	; 0x40
    29a2:	b0d1      	sub	sp, #324	; 0x144
    29a4:	0005      	movs	r5, r0
    29a6:	000c      	movs	r4, r1
    29a8:	9201      	str	r2, [sp, #4]
    29aa:	af07      	add	r7, sp, #28
    29ac:	4299      	cmp	r1, r3
    29ae:	d93e      	bls.n	2a2e <hmac_isha+0x92>
    29b0:	a837      	add	r0, sp, #220	; 0xdc
    29b2:	f7fd fd8f 	bl	4d4 <ISHAReset>
    29b6:	0029      	movs	r1, r5
    29b8:	a837      	add	r0, sp, #220	; 0xdc
    29ba:	0022      	movs	r2, r4
    29bc:	f7ff ffca 	bl	2954 <ISHAInput>
    29c0:	a927      	add	r1, sp, #156	; 0x9c
    29c2:	a837      	add	r0, sp, #220	; 0xdc
    29c4:	f7ff ff5d 	bl	2882 <ISHAResult>
    29c8:	a837      	add	r0, sp, #220	; 0xdc
    29ca:	f7fd fd83 	bl	4d4 <ISHAReset>
    29ce:	0039      	movs	r1, r7
    29d0:	a837      	add	r0, sp, #220	; 0xdc
    29d2:	2240      	movs	r2, #64	; 0x40
    29d4:	f7ff ffbe 	bl	2954 <ISHAInput>
    29d8:	0032      	movs	r2, r6
    29da:	9901      	ldr	r1, [sp, #4]
    29dc:	a837      	add	r0, sp, #220	; 0xdc
    29de:	f7ff ffb9 	bl	2954 <ISHAInput>
    29e2:	a902      	add	r1, sp, #8
    29e4:	a837      	add	r0, sp, #220	; 0xdc
    29e6:	f7ff ff4c 	bl	2882 <ISHAResult>
    29ea:	a837      	add	r0, sp, #220	; 0xdc
    29ec:	f7fd fd72 	bl	4d4 <ISHAReset>
    29f0:	a917      	add	r1, sp, #92	; 0x5c
    29f2:	a837      	add	r0, sp, #220	; 0xdc
    29f4:	2240      	movs	r2, #64	; 0x40
    29f6:	f7ff ffad 	bl	2954 <ISHAInput>
    29fa:	2214      	movs	r2, #20
    29fc:	a902      	add	r1, sp, #8
    29fe:	a837      	add	r0, sp, #220	; 0xdc
    2a00:	f7ff ffa8 	bl	2954 <ISHAInput>
    2a04:	9956      	ldr	r1, [sp, #344]	; 0x158
    2a06:	a837      	add	r0, sp, #220	; 0xdc
    2a08:	f7ff ff3b 	bl	2882 <ISHAResult>
    2a0c:	b051      	add	sp, #324	; 0x144
    2a0e:	bdf0      	pop	{r4, r5, r6, r7, pc}
    2a10:	2200      	movs	r2, #0
    2a12:	429c      	cmp	r4, r3
    2a14:	d900      	bls.n	2a18 <hmac_isha+0x7c>
    2a16:	5cea      	ldrb	r2, [r5, r3]
    2a18:	2194      	movs	r1, #148	; 0x94
    2a1a:	a802      	add	r0, sp, #8
    2a1c:	1840      	adds	r0, r0, r1
    2a1e:	54c2      	strb	r2, [r0, r3]
    2a20:	215c      	movs	r1, #92	; 0x5c
    2a22:	2036      	movs	r0, #54	; 0x36
    2a24:	4050      	eors	r0, r2
    2a26:	404a      	eors	r2, r1
    2a28:	a917      	add	r1, sp, #92	; 0x5c
    2a2a:	54f8      	strb	r0, [r7, r3]
    2a2c:	545a      	strb	r2, [r3, r1]
    2a2e:	3b01      	subs	r3, #1
    2a30:	d2ee      	bcs.n	2a10 <hmac_isha+0x74>
    2a32:	e7c9      	b.n	29c8 <hmac_isha+0x2c>

00002a34 <hexdigit_to_int>:
    2a34:	0003      	movs	r3, r0
    2a36:	3b61      	subs	r3, #97	; 0x61
    2a38:	2b05      	cmp	r3, #5
    2a3a:	d802      	bhi.n	2a42 <hexdigit_to_int+0xe>
    2a3c:	3857      	subs	r0, #87	; 0x57
    2a3e:	b2c0      	uxtb	r0, r0
    2a40:	4770      	bx	lr
    2a42:	0003      	movs	r3, r0
    2a44:	3b41      	subs	r3, #65	; 0x41
    2a46:	2b05      	cmp	r3, #5
    2a48:	d801      	bhi.n	2a4e <hexdigit_to_int+0x1a>
    2a4a:	3837      	subs	r0, #55	; 0x37
    2a4c:	e7f7      	b.n	2a3e <hexdigit_to_int+0xa>
    2a4e:	3830      	subs	r0, #48	; 0x30
    2a50:	e7f5      	b.n	2a3e <hexdigit_to_int+0xa>

00002a52 <cmp_bin>:
    2a52:	2300      	movs	r3, #0
    2a54:	b530      	push	{r4, r5, lr}
    2a56:	4293      	cmp	r3, r2
    2a58:	d101      	bne.n	2a5e <cmp_bin+0xc>
    2a5a:	2001      	movs	r0, #1
    2a5c:	bd30      	pop	{r4, r5, pc}
    2a5e:	5cc5      	ldrb	r5, [r0, r3]
    2a60:	5ccc      	ldrb	r4, [r1, r3]
    2a62:	42a5      	cmp	r5, r4
    2a64:	d101      	bne.n	2a6a <cmp_bin+0x18>
    2a66:	3301      	adds	r3, #1
    2a68:	e7f5      	b.n	2a56 <cmp_bin+0x4>
    2a6a:	2000      	movs	r0, #0
    2a6c:	e7f6      	b.n	2a5c <cmp_bin+0xa>

00002a6e <hexstr_to_bytes>:
    2a6e:	b5f8      	push	{r3, r4, r5, r6, r7, lr}
    2a70:	000e      	movs	r6, r1
    2a72:	0004      	movs	r4, r0
    2a74:	1887      	adds	r7, r0, r2
    2a76:	42bc      	cmp	r4, r7
    2a78:	d100      	bne.n	2a7c <hexstr_to_bytes+0xe>
    2a7a:	bdf8      	pop	{r3, r4, r5, r6, r7, pc}
    2a7c:	7830      	ldrb	r0, [r6, #0]
    2a7e:	f7ff ffd9 	bl	2a34 <hexdigit_to_int>
    2a82:	0005      	movs	r5, r0
    2a84:	7870      	ldrb	r0, [r6, #1]
    2a86:	f7ff ffd5 	bl	2a34 <hexdigit_to_int>
    2a8a:	012d      	lsls	r5, r5, #4
    2a8c:	4305      	orrs	r5, r0
    2a8e:	7025      	strb	r5, [r4, #0]
    2a90:	3602      	adds	r6, #2
    2a92:	3401      	adds	r4, #1
    2a94:	e7ef      	b.n	2a76 <hexstr_to_bytes+0x8>

00002a96 <LPSCI_GetDefaultConfig>:
    2a96:	23e1      	movs	r3, #225	; 0xe1
    2a98:	025b      	lsls	r3, r3, #9
    2a9a:	6003      	str	r3, [r0, #0]
    2a9c:	2300      	movs	r3, #0
    2a9e:	6043      	str	r3, [r0, #4]
    2aa0:	4770      	bx	lr

00002aa2 <LPSCI_WriteBlocking>:
    2aa2:	188a      	adds	r2, r1, r2
    2aa4:	4291      	cmp	r1, r2
    2aa6:	d100      	bne.n	2aaa <LPSCI_WriteBlocking+0x8>
    2aa8:	4770      	bx	lr
    2aaa:	7903      	ldrb	r3, [r0, #4]
    2aac:	b25b      	sxtb	r3, r3
    2aae:	2b00      	cmp	r3, #0
    2ab0:	dafb      	bge.n	2aaa <LPSCI_WriteBlocking+0x8>
    2ab2:	780b      	ldrb	r3, [r1, #0]
    2ab4:	3101      	adds	r1, #1
    2ab6:	71c3      	strb	r3, [r0, #7]
    2ab8:	e7f4      	b.n	2aa4 <LPSCI_WriteBlocking+0x2>

00002aba <UART_GetDefaultConfig>:
    2aba:	23e1      	movs	r3, #225	; 0xe1
    2abc:	025b      	lsls	r3, r3, #9
    2abe:	6003      	str	r3, [r0, #0]
    2ac0:	2300      	movs	r3, #0
    2ac2:	6043      	str	r3, [r0, #4]
    2ac4:	4770      	bx	lr

00002ac6 <UART_WriteBlocking>:
    2ac6:	188a      	adds	r2, r1, r2
    2ac8:	4291      	cmp	r1, r2
    2aca:	d100      	bne.n	2ace <UART_WriteBlocking+0x8>
    2acc:	4770      	bx	lr
    2ace:	7903      	ldrb	r3, [r0, #4]
    2ad0:	b25b      	sxtb	r3, r3
    2ad2:	2b00      	cmp	r3, #0
    2ad4:	dafb      	bge.n	2ace <UART_WriteBlocking+0x8>
    2ad6:	780b      	ldrb	r3, [r1, #0]
    2ad8:	3101      	adds	r1, #1
    2ada:	71c3      	strb	r3, [r0, #7]
    2adc:	e7f4      	b.n	2ac8 <UART_WriteBlocking+0x2>

00002ade <BOARD_InitBootClocks>:
    2ade:	b510      	push	{r4, lr}
    2ae0:	f7fe fb30 	bl	1144 <BOARD_BootClockRUN>
    2ae4:	bd10      	pop	{r4, pc}

00002ae6 <BOARD_InitBootPeripherals>:
    2ae6:	4770      	bx	lr

00002ae8 <BOARD_InitBootPins>:
    2ae8:	b510      	push	{r4, lr}
    2aea:	f7fe fb63 	bl	11b4 <BOARD_InitPins>
    2aee:	bd10      	pop	{r4, pc}

00002af0 <__main>:
    2af0:	b510      	push	{r4, lr}
    2af2:	f7fe fb89 	bl	1208 <_initio>
    2af6:	f7fd fd55 	bl	5a4 <main>
    2afa:	bd10      	pop	{r4, pc}

00002afc <memcpy>:
    2afc:	b510      	push	{r4, lr}
    2afe:	f000 f87a 	bl	2bf6 <__aeabi_memcpy>
    2b02:	bd10      	pop	{r4, pc}

00002b04 <memset>:
    2b04:	b510      	push	{r4, lr}
    2b06:	f000 f88c 	bl	2c22 <__aeabi_lowlevel_memset>
    2b0a:	bd10      	pop	{r4, pc}

00002b0c <no_fp_display>:
    2b0c:	2000      	movs	r0, #0
    2b0e:	4770      	bx	lr

00002b10 <free>:
    2b10:	b510      	push	{r4, lr}
    2b12:	2800      	cmp	r0, #0
    2b14:	d011      	beq.n	2b3a <free+0x2a>
    2b16:	2180      	movs	r1, #128	; 0x80
    2b18:	380c      	subs	r0, #12
    2b1a:	0549      	lsls	r1, r1, #21
    2b1c:	6001      	str	r1, [r0, #0]
    2b1e:	6882      	ldr	r2, [r0, #8]
    2b20:	2a00      	cmp	r2, #0
    2b22:	d00a      	beq.n	2b3a <free+0x2a>
    2b24:	6813      	ldr	r3, [r2, #0]
    2b26:	428b      	cmp	r3, r1
    2b28:	d107      	bne.n	2b3a <free+0x2a>
    2b2a:	6843      	ldr	r3, [r0, #4]
    2b2c:	6854      	ldr	r4, [r2, #4]
    2b2e:	3303      	adds	r3, #3
    2b30:	191b      	adds	r3, r3, r4
    2b32:	6043      	str	r3, [r0, #4]
    2b34:	6893      	ldr	r3, [r2, #8]
    2b36:	6083      	str	r3, [r0, #8]
    2b38:	e7f1      	b.n	2b1e <free+0xe>
    2b3a:	bd10      	pop	{r4, pc}

00002b3c <remove>:
    2b3c:	b510      	push	{r4, lr}
    2b3e:	0004      	movs	r4, r0
    2b40:	f7ff fb04 	bl	214c <strlen>
    2b44:	0001      	movs	r1, r0
    2b46:	0020      	movs	r0, r4
    2b48:	f000 f89a 	bl	2c80 <__sys_remove>
    2b4c:	bd10      	pop	{r4, pc}

00002b4e <__aeabi_idiv>:
    2b4e:	0003      	movs	r3, r0
    2b50:	430b      	orrs	r3, r1
    2b52:	d421      	bmi.n	2b98 <idiv_negative>

00002b54 <__aeabi_uidiv>:
    2b54:	2900      	cmp	r1, #0
    2b56:	d031      	beq.n	2bbc <idiv_divzero>
    2b58:	2201      	movs	r2, #1
    2b5a:	07d2      	lsls	r2, r2, #31
    2b5c:	0903      	lsrs	r3, r0, #4
    2b5e:	e001      	b.n	2b64 <div_search4a>

00002b60 <div_search4>:
    2b60:	0109      	lsls	r1, r1, #4
    2b62:	0912      	lsrs	r2, r2, #4

00002b64 <div_search4a>:
    2b64:	4299      	cmp	r1, r3
    2b66:	d9fb      	bls.n	2b60 <div_search4>
    2b68:	0843      	lsrs	r3, r0, #1
    2b6a:	e001      	b.n	2b70 <div_search1a>

00002b6c <div_search1>:
    2b6c:	0049      	lsls	r1, r1, #1
    2b6e:	0852      	lsrs	r2, r2, #1

00002b70 <div_search1a>:
    2b70:	4299      	cmp	r1, r3
    2b72:	d9fb      	bls.n	2b6c <div_search1>
    2b74:	e000      	b.n	2b78 <div_loop1a>

00002b76 <div_loop1>:
    2b76:	0849      	lsrs	r1, r1, #1

00002b78 <div_loop1a>:
    2b78:	1a40      	subs	r0, r0, r1
    2b7a:	d307      	bcc.n	2b8c <div1>

00002b7c <div2>:
    2b7c:	4152      	adcs	r2, r2
    2b7e:	d3fa      	bcc.n	2b76 <div_loop1>
    2b80:	4601      	mov	r1, r0
    2b82:	4610      	mov	r0, r2
    2b84:	4770      	bx	lr

00002b86 <div_loop2>:
    2b86:	0849      	lsrs	r1, r1, #1
    2b88:	1840      	adds	r0, r0, r1
    2b8a:	d2f7      	bcs.n	2b7c <div2>

00002b8c <div1>:
    2b8c:	1892      	adds	r2, r2, r2
    2b8e:	d3fa      	bcc.n	2b86 <div_loop2>
    2b90:	1840      	adds	r0, r0, r1
    2b92:	4601      	mov	r1, r0
    2b94:	4610      	mov	r0, r2
    2b96:	4770      	bx	lr

00002b98 <idiv_negative>:
    2b98:	0fcb      	lsrs	r3, r1, #31
    2b9a:	d000      	beq.n	2b9e <idiv_neg1>
    2b9c:	4249      	negs	r1, r1

00002b9e <idiv_neg1>:
    2b9e:	1002      	asrs	r2, r0, #32
    2ba0:	d500      	bpl.n	2ba4 <idiv_neg2>
    2ba2:	4240      	negs	r0, r0

00002ba4 <idiv_neg2>:
    2ba4:	4053      	eors	r3, r2
    2ba6:	b508      	push	{r3, lr}
    2ba8:	f7ff ffd4 	bl	2b54 <__aeabi_uidiv>
    2bac:	bc0c      	pop	{r2, r3}

00002bae <idiv_sign>:
    2bae:	1052      	asrs	r2, r2, #1
    2bb0:	d300      	bcc.n	2bb4 <idiv_sign1>
    2bb2:	4240      	negs	r0, r0

00002bb4 <idiv_sign1>:
    2bb4:	2a00      	cmp	r2, #0
    2bb6:	d500      	bpl.n	2bba <idiv_ret>
    2bb8:	4249      	negs	r1, r1

00002bba <idiv_ret>:
    2bba:	4718      	bx	r3

00002bbc <idiv_divzero>:
    2bbc:	46f4      	mov	ip, lr
    2bbe:	2000      	movs	r0, #0
    2bc0:	f000 f801 	bl	2bc6 <__aeabi_idiv0>
    2bc4:	4760      	bx	ip

00002bc6 <__aeabi_idiv0>:
    2bc6:	4770      	bx	lr

00002bc8 <__aeabi_lmul>:
    2bc8:	b510      	push	{r4, lr}
    2bca:	4343      	muls	r3, r0
    2bcc:	4351      	muls	r1, r2
    2bce:	18c9      	adds	r1, r1, r3
    2bd0:	0c04      	lsrs	r4, r0, #16
    2bd2:	0c13      	lsrs	r3, r2, #16
    2bd4:	435c      	muls	r4, r3
    2bd6:	1909      	adds	r1, r1, r4
    2bd8:	b292      	uxth	r2, r2
    2bda:	0c04      	lsrs	r4, r0, #16
    2bdc:	4354      	muls	r4, r2
    2bde:	b280      	uxth	r0, r0
    2be0:	4343      	muls	r3, r0
    2be2:	4350      	muls	r0, r2
    2be4:	0422      	lsls	r2, r4, #16
    2be6:	0c24      	lsrs	r4, r4, #16
    2be8:	1880      	adds	r0, r0, r2
    2bea:	4161      	adcs	r1, r4
    2bec:	041a      	lsls	r2, r3, #16
    2bee:	0c1b      	lsrs	r3, r3, #16
    2bf0:	1880      	adds	r0, r0, r2
    2bf2:	4159      	adcs	r1, r3
    2bf4:	bd10      	pop	{r4, pc}

00002bf6 <__aeabi_memcpy>:
    2bf6:	4684      	mov	ip, r0
    2bf8:	0783      	lsls	r3, r0, #30
    2bfa:	d108      	bne.n	2c0e <copy1_start>
    2bfc:	078b      	lsls	r3, r1, #30
    2bfe:	d106      	bne.n	2c0e <copy1_start>
    2c00:	1f13      	subs	r3, r2, #4
    2c02:	d304      	bcc.n	2c0e <copy1_start>

00002c04 <copy4>:
    2c04:	c904      	ldmia	r1!, {r2}
    2c06:	c004      	stmia	r0!, {r2}
    2c08:	3b04      	subs	r3, #4
    2c0a:	d2fb      	bcs.n	2c04 <copy4>
    2c0c:	1d1a      	adds	r2, r3, #4

00002c0e <copy1_start>:
    2c0e:	4252      	negs	r2, r2
    2c10:	d005      	beq.n	2c1e <copy1_ret>
    2c12:	1a89      	subs	r1, r1, r2
    2c14:	1a80      	subs	r0, r0, r2

00002c16 <copy1>:
    2c16:	5c8b      	ldrb	r3, [r1, r2]
    2c18:	5483      	strb	r3, [r0, r2]
    2c1a:	3201      	adds	r2, #1
    2c1c:	d1fb      	bne.n	2c16 <copy1>

00002c1e <copy1_ret>:
    2c1e:	4660      	mov	r0, ip
    2c20:	4770      	bx	lr

00002c22 <__aeabi_lowlevel_memset>:
    2c22:	4684      	mov	ip, r0
    2c24:	3a04      	subs	r2, #4
    2c26:	d309      	bcc.n	2c3c <memset1>
    2c28:	0783      	lsls	r3, r0, #30
    2c2a:	d107      	bne.n	2c3c <memset1>
    2c2c:	0609      	lsls	r1, r1, #24
    2c2e:	0a0b      	lsrs	r3, r1, #8
    2c30:	4319      	orrs	r1, r3
    2c32:	0c0b      	lsrs	r3, r1, #16
    2c34:	4319      	orrs	r1, r3

00002c36 <memset4>:
    2c36:	3a04      	subs	r2, #4
    2c38:	c002      	stmia	r0!, {r1}
    2c3a:	d2fc      	bcs.n	2c36 <memset4>

00002c3c <memset1>:
    2c3c:	3204      	adds	r2, #4
    2c3e:	d003      	beq.n	2c48 <memset1_ret>

00002c40 <memset1a>:
    2c40:	7001      	strb	r1, [r0, #0]
    2c42:	3001      	adds	r0, #1
    2c44:	3a01      	subs	r2, #1
    2c46:	d1fb      	bne.n	2c40 <memset1a>

00002c48 <memset1_ret>:
    2c48:	4660      	mov	r0, ip
    2c4a:	4770      	bx	lr

00002c4c <__gnu_thumb1_case_shi>:
    2c4c:	468c      	mov	ip, r1
    2c4e:	1e41      	subs	r1, r0, #1
    2c50:	4471      	add	r1, lr
    2c52:	5e09      	ldrsh	r1, [r1, r0]
    2c54:	0049      	lsls	r1, r1, #1
    2c56:	448e      	add	lr, r1
    2c58:	4661      	mov	r1, ip
    2c5a:	4770      	bx	lr

00002c5c <__sys_close>:
    2c5c:	b403      	push	{r0, r1}
    2c5e:	4669      	mov	r1, sp
    2c60:	2002      	movs	r0, #2
    2c62:	beab      	bkpt	0x00ab
    2c64:	b002      	add	sp, #8
    2c66:	4770      	bx	lr

00002c68 <__sys_flen>:
    2c68:	b403      	push	{r0, r1}
    2c6a:	4669      	mov	r1, sp
    2c6c:	200c      	movs	r0, #12
    2c6e:	beab      	bkpt	0x00ab
    2c70:	b002      	add	sp, #8
    2c72:	4770      	bx	lr

00002c74 <__sys_istty>:
    2c74:	b403      	push	{r0, r1}
    2c76:	4669      	mov	r1, sp
    2c78:	2009      	movs	r0, #9
    2c7a:	beab      	bkpt	0x00ab
    2c7c:	b002      	add	sp, #8
    2c7e:	4770      	bx	lr

00002c80 <__sys_remove>:
    2c80:	b403      	push	{r0, r1}
    2c82:	4669      	mov	r1, sp
    2c84:	200e      	movs	r0, #14
    2c86:	beab      	bkpt	0x00ab
    2c88:	b002      	add	sp, #8
    2c8a:	4770      	bx	lr

00002c8c <__sys_seek>:
    2c8c:	b403      	push	{r0, r1}
    2c8e:	4669      	mov	r1, sp
    2c90:	200a      	movs	r0, #10
    2c92:	beab      	bkpt	0x00ab
    2c94:	b002      	add	sp, #8
    2c96:	4770      	bx	lr

00002c98 <__sys_tmpnam>:
    2c98:	b40f      	push	{r0, r1, r2, r3}
    2c9a:	4669      	mov	r1, sp
    2c9c:	200d      	movs	r0, #13
    2c9e:	beab      	bkpt	0x00ab
    2ca0:	b004      	add	sp, #16
    2ca2:	4770      	bx	lr
    2ca4:	00002f21 	.word	0x00002f21
    2ca8:	00002f25 	.word	0x00002f25
    2cac:	00002f4e 	.word	0x00002f4e
    2cb0:	00002f87 	.word	0x00002f87
    2cb4:	00002fb0 	.word	0x00002fb0
    2cb8:	00002fd8 	.word	0x00002fd8
    2cbc:	00003001 	.word	0x00003001
    2cc0:	000030d4 	.word	0x000030d4
    2cc4:	000030fd 	.word	0x000030fd
    2cc8:	00003106 	.word	0x00003106
    2ccc:	00003115 	.word	0x00003115
    2cd0:	0000313e 	.word	0x0000313e
    2cd4:	00003143 	.word	0x00003143
    2cd8:	0000315f 	.word	0x0000315f
    2cdc:	00003188 	.word	0x00003188
    2ce0:	00003191 	.word	0x00003191
    2ce4:	000031c0 	.word	0x000031c0
    2ce8:	000031e9 	.word	0x000031e9
    2cec:	000031f2 	.word	0x000031f2
    2cf0:	00000001 	.word	0x00000001
    2cf4:	00000014 	.word	0x00000014
    2cf8:	000031f9 	.word	0x000031f9
    2cfc:	000031e9 	.word	0x000031e9
    2d00:	000031f2 	.word	0x000031f2
    2d04:	00000001 	.word	0x00000001
    2d08:	00000015 	.word	0x00000015
    2d0c:	00003222 	.word	0x00003222
    2d10:	000031e9 	.word	0x000031e9
    2d14:	000031f2 	.word	0x000031f2
    2d18:	00000001 	.word	0x00000001
    2d1c:	00000020 	.word	0x00000020
    2d20:	0000324d 	.word	0x0000324d
    2d24:	000031e9 	.word	0x000031e9
    2d28:	000031f2 	.word	0x000031f2
    2d2c:	00000001 	.word	0x00000001
    2d30:	00000040 	.word	0x00000040
    2d34:	0000328e 	.word	0x0000328e
    2d38:	000031e9 	.word	0x000031e9
    2d3c:	000031f2 	.word	0x000031f2
    2d40:	00000001 	.word	0x00000001
    2d44:	000000c8 	.word	0x000000c8
    2d48:	0000330f 	.word	0x0000330f
    2d4c:	000031e9 	.word	0x000031e9
    2d50:	000031f2 	.word	0x000031f2
    2d54:	00000002 	.word	0x00000002
    2d58:	00000014 	.word	0x00000014
    2d5c:	000034a0 	.word	0x000034a0
    2d60:	000031e9 	.word	0x000031e9
    2d64:	000031f2 	.word	0x000031f2
    2d68:	00000002 	.word	0x00000002
    2d6c:	00000040 	.word	0x00000040
    2d70:	000034c9 	.word	0x000034c9
    2d74:	000031e9 	.word	0x000031e9
    2d78:	000031f2 	.word	0x000031f2
    2d7c:	00000003 	.word	0x00000003
    2d80:	00000014 	.word	0x00000014
    2d84:	0000354a 	.word	0x0000354a
    2d88:	000031e9 	.word	0x000031e9
    2d8c:	000031f2 	.word	0x000031f2
    2d90:	00000064 	.word	0x00000064
    2d94:	00000014 	.word	0x00000014
    2d98:	00003573 	.word	0x00003573
    2d9c:	000031e9 	.word	0x000031e9
    2da0:	000031f2 	.word	0x000031f2
    2da4:	00000064 	.word	0x00000064
    2da8:	00000040 	.word	0x00000040
    2dac:	0000359c 	.word	0x0000359c
    2db0:	00002e55 	.word	0x00002e55
    2db4:	00002e5d 	.word	0x00002e5d
    2db8:	00000064 	.word	0x00000064
    2dbc:	00000040 	.word	0x00000040
    2dc0:	0000361d 	.word	0x0000361d

00002dc4 <s_uartClock>:
    2dc4:	00000000 1034000b 1034000c              ......4...4.

00002dd0 <oscConfig_BOARD_BootClockRUN>:
    2dd0:	007a1200 00800400                       ..z.....

00002dd8 <simConfig_BOARD_BootClockRUN>:
    2dd8:	00000301 10010000                       ........

00002de0 <__num_Ciob_streams>:
    2de0:	00000003                                ....

00002de4 <fllFactorTable.1>:
    2de4:	02dc0280 05b80500 08950780 0b710a00     ..............q.
    2df4:	37373537 46463542 38353042 44353931     7577B5FFB058195D
    2e04:	37393345 33373738 32373442 44323945     E3978773B472E92D
    2e14:	36313230 45333738 32413145 31303731     0216873EE1A21701
    2e24:	32433735 45343530 31344344 44383545     57C2054EDC41E58D
    2e34:	34394637 30353039 46333532 31454338     7F949050253F8CE1
    2e44:	45353544 36384236 41323645 46334445     D55E6B86E62AED3F
    2e54:	756f4200 7265646c 66754200 6f6c6166     .Boulder.Buffalo
    2e64:	25007365 25203a73 74692075 74617265     es.%s: %u iterat
    2e74:	736e6f69 6f6f7420 7525206b 65736d20     ions took %u mse
    2e84:	000a0d63 4c494146 20455255 74206e6f     c...FAILURE on t
    2e94:	64656d69 73657420 000a0d74 6e6e7552     imed test...Runn
    2ea4:	20676e69 696c6176 79746964 73657420     ing validity tes
    2eb4:	2e2e7374 000a0d2e 54534554 49414620     ts......TEST FAI
    2ec4:	4552554c 58452053 20545349 202e2e2e     LURES EXIST ... 
    2ed4:	74697865 0d676e69 6c41000a 6574206c     exiting...All te
    2ee4:	20737473 73736170 0d216465 7552000a     sts passed!...Ru
    2ef4:	6e696e6e 69742067 676e696d 73657420     nning timing tes
    2f04:	2e2e2e74                                 t......

00002f0b <__FUNCTION__.0>:
    2f0b:	656d6974 6b62705f 5f326664 63616d68     time_pbkdf2_hmac
    2f1b:	6873695f 62610061 33430063 35303830     _isha.abc.C30805
    2f2b:	36354337 31303038 42464446 35424139     7C568001FDFB9AB5
    2f3b:	41424532 38413632 30314645 44443238     2EBA26A8EF1082DD
    2f4b:	61003330 62646362 63656463 64666564     03.abcdbcdecdefd
    2f5b:	65676665 66686766 67696867 686a6968     efgefghfghighijh
    2f6b:	696b6a69 6a6c6b6a 6b6d6c6b 6c6e6d6c     ijkijkljklmklmnl
    2f7b:	6d6f6e6d 6e706f6e 0071706f 32394531     mnomnopnopq.1E92
    2f8b:	31423637 39363336 36323238 32323836     76B1636982266822
    2f9b:	34414436 38373037 45434532 46353635     6DA470782ECE565F
    2fab:	39373537 626f4e00 2079646f 70736e69     7579.Nobody insp
    2fbb:	73746365 65687420 61707320 73696d6d     ects the spammis
    2fcb:	65722068 69746570 6e6f6974 44463000     h repetition.0FD
    2fdb:	30323131 45384446 37453532 42424530     1120FD8E25E70EBB
    2feb:	34383030 43303936 31383436 46394237     0084690C64817B9F
    2ffb:	42314446 6f4e0045 69682077 696c2073     FD1BE.Now his li
    300b:	69206566 75662073 6f206c6c 6f772066     fe is full of wo
    301b:	7265646e 7475422f 73696820 61656820     nder/But his hea
    302b:	73207472 6c6c6974 6f6e6b20 73207377     rt still knows s
    303b:	20656d6f 72616566 20664f2f 69732061     ome fear/Of a si
    304b:	656c706d 69687420 202c676e 63206568     mple thing, he c
    305b:	6f6e6e61 6f632074 6572706d 646e6568     annot comprehend
    306b:	7968572f 65687420 72742079 6f742079     /Why they try to
    307b:	61657420 68742072 6f6d2065 61746e75      tear the mounta
    308b:	20736e69 6e776f64 206f542f 6e697262     ins down/To brin
    309b:	6e692067 63206120 6c70756f 6f6d2065     g in a couple mo
    30ab:	4d2f6572 2065726f 706f6570 202c656c     re/More people, 
    30bb:	65726f6d 61637320 75207372 206e6f70     more scars upon 
    30cb:	20656874 646e616c 33313600 33333839     the land.6139833
    30db:	43323036 33453534 32413033 34354646     602C45E330A2FF54
    30eb:	31433638 32464230 45423246 43414638     86C10BF2F2BE8FAC
    30fb:	6f430030 61726f6c 54006f64 20736968     0.Colorado.This 
    310b:	61207369 73657420 38440074 31333245     is a test.D8E231
    311b:	42453836 32433045 46374435 32354535     68EBE0C25D7F5E52
    312b:	34444346 44463943 31323542 36464631     FCD4C9FDB5211FF6
    313b:	4a003943 00656665 74616877 206f6420     C9.Jefe.what do 
    314b:	77206179 20746e61 20726f66 68746f6e     ya want for noth
    315b:	003f6e69 44353744 43303935 30424444     in?.D75D590CDDB0
    316b:	39343230 31334546 35414433 30323131     0249FE313DA51120
    317b:	35413337 45394246 32393635 43465200     73A5FB9E5692.RFC
    318b:	30313220 4d480034 203a4341 6579654b      2104.HMAC: Keye
    319b:	61482d64 6e696873 6f662067 654d2072     d-Hashing for Me
    31ab:	67617373 75412065 6e656874 61636974     ssage Authentica
    31bb:	6e6f6974 31364100 33413043 36324633     tion.A61C0A33F26
    31cb:	35323634 35323144 34363635 36394645     4625D1255664EF96
    31db:	35324530 33443034 31443845 61700043     0E2540D3E8D1C.pa
    31eb:	6f777373 6d006472 6c617379 42300074     ssword.mysalt.0B
    31fb:	41354436 41344345 42313042 42303245     6D5AEC4AB01BE20B
    320b:	39374236 35443534 42423037 42374542     6B7945D570BBBE7B
    321b:	36414230 30003933 35443642 34434541     0BA639.0B6D5AEC4
    322b:	31304241 30324542 37423642 44353439     AB01BE20B6B7945D
    323b:	42303735 37454242 41423042 31393336     570BBBE7B0BA6391
    324b:	42300038 41354436 41344345 42313042     8.0B6D5AEC4AB01B
    325b:	42303245 39374236 35443534 42423037     E20B6B7945D570BB
    326b:	42374542 36414230 38313933 30463945     BE7B0BA63918E9F0
    327b:	39343831 34343030 30433642 31433742     18490044B6C0B7C1
    328b:	30003731 35443642 34434541 31304241     17.0B6D5AEC4AB01
    329b:	30324542 37423642 44353439 42303735     BE20B6B7945D570B
    32ab:	37454242 41423042 31393336 46394538     BBE7B0BA63918E9F
    32bb:	34383130 34303039 43364234 43374230     018490044B6C0B7C
    32cb:	31373131 33443538 32433846 39333434     117185D3F8C24439
    32db:	45433745 39433137 35333145 35383246     E7CE71C9E135F285
    32eb:	36434144 44333232 42443434 45413335     DAC6223D44DB53AE
    32fb:	33384332 43313832 41443838 45424630     2C83281C88DA0FBE
    330b:	00454235 44364230 43454135 30424134     5BE.0B6D5AEC4AB0
    331b:	32454231 42364230 35343937 30373544     1BE20B6B7945D570
    332b:	45424242 42304237 39333641 39453831     BBBE7B0BA63918E9
    333b:	38313046 30303934 36423434 37423043     F018490044B6C0B7
    334b:	37313143 44353831 43384633 33343432     C117185D3F8C2443
    335b:	43374539 43313745 33314539 38324635     9E7CE71C9E135F28
    336b:	43414435 33323236 44343444 41333542     5DAC6223D44DB53A
    337b:	38433245 31383233 44383843 42463041     E2C83281C88DA0FB
    338b:	45423545 35364631 36343631 38333644     E5BE1F651646D638
    339b:	31343134 45324430 45354444 43343343     41410D2EDD5EC34C
    33ab:	42394243 32453542 38323245 32304333     CB9BB5E2E2283C02
    33bb:	32434535 33393238 43434632 34354435     5EC282932FCC5D54
    33cb:	36434542 39393337 31464330 45464242     BEC673990CF1BBFE
    33db:	44393537 37443130 46384241 37444238     759D01D7AB8F8BD7
    33eb:	41314245 45414443 37323335 32433938     EB1ACDAE532789C2
    33fb:	44323032 33433530 45333242 35394533     202D05C3B23E3E95
    340b:	42303639 42333245 42333130 37383634     960BE23B013B4687
    341b:	46353543 36343336 43454139 34453845     C55F63469AECE8E4
    342b:	35333632 30344135 43443642 38444535     26355A40B6DC5ED8
    343b:	38444231 43373346 37384439 39373931     1BD8F37C9D871979
    344b:	38343933 32424434 42443742 39364138     39484DB2B7DB8A69
    345b:	45463841 44383135 33443041 46454545     A8FE518DA0D3EEEF
    346b:	45304444 33443537 38463244 32353546     DD0E75D3D2F8F552
    347b:	46354535 43343646 46373731 32393146     5E5FF64C177FF192
    348b:	44433432 35384332 39353537 32414539     24CD2C8575599EA2
    349b:	45324632 42363000 36334145 43303041     2F2E.06BEA36A00C
    34ab:	33314431 36354636 43414432 32443736     1D136F562DAC67D2
    34bb:	33354341 30314538 45383242 36300042     AC538E10B28EB.06
    34cb:	33414542 30304136 31443143 35463633     BEA36A00C1D136F5
    34db:	41443236 44373643 35434132 31453833     62DAC67D2AC538E1
    34eb:	38324230 42324245 46434545 37424345     0B28EB2BEECFECB7
    34fb:	41463036 35353843 31413945 37314445     60FAC855E9A1ED17
    350b:	35443542 38333537 39363533 34363738     B5D5753835698764
    351b:	33303642 41354143 42324432 39463439     B603CA5A2D2B94F9
    352b:	38363043 43413331 46423946 45323541     C06813ACF9BFA52E
    353b:	38354332 46434331 45323337 45003234     2C581CCF732E42.E
    354b:	32423833 36374534 35303742 44394435     38B24E76B7055D9D
    355b:	42313036 31443043 43414233 42413246     601BC0D13BACF2AB
    356b:	31363736 00463631 37424536 36344445     676116F.6EB7ED46
    357b:	33343633 42414130 37333533 45324346     36430AAB3537FC2E
    358b:	35394642 37444646 31453937 30304330     BF95FFD779E10C00
    359b:	42453600 34444537 34363336 41413033     .6EB7ED4636430AA
    35ab:	33353342 32434637 39464245 44464635     B3537FC2EBF95FFD
    35bb:	45393737 30433031 31313130 32313331     779E10C001111312
    35cb:	31343738 30353533 32394532 42353139     874135502E92915B
    35db:	44313035 34304633 38333832 33444543     501D3F042838CED3
    35eb:	46414631 46413637 43323636 46364431     1FAF76AF662C1D6F
    35fb:	41313242 30393242 42464431 42374146     B21AB2901DFBFA7B
    360b:	34433241 43383931 34413431 30354134     A2C4198C14A44A50
    361b:	41440032 38394434 31433246 34393734     2.DA4D98F2C14794
    362b:	36323531 43424235 45373744 30454437     15265BBCD77E7DE0
    363b:	32344133 34313041 32364337 44313636     3A42A0147C62661D
    364b:	34414634 35344230 32304534 31393244     4FA40B454E02D291
    365b:	36424231 37424331 37343138 39414239     1BB61CB781479BA9
    366b:	37443034 31353544 42394434 36323841     40D7D5514D9BA826
    367b:	39334341 42414142 42424634 46304234     AC39BAAB4FBB4B0F
    368b:	35303143 33373033 39423246 41314341     C1053073F2B9AC1A
    369b:	25003636 65742073 25207473 73203a64     66.%s test %d: s
    36ab:	65636375 0a0d7373 20732500 74736574     uccess...%s test
    36bb:	3a642520 49414620 4552554c                %d: FAILURE...

000036ca <__FUNCTION__.0>:
    36ca:	74736574 6b62705f 5f326664 63616d68     test_pbkdf2_hmac
    36da:	6873695f                                 _isha.

000036e0 <__FUNCTION__.1>:
    36e0:	74736574 616d685f 73695f63               test_hmac_isha.

000036ef <__FUNCTION__.2>:
    36ef:	74736574 6873695f                        test_isha.

000036f9 <mcgConfig_BOARD_BootClockRUN>:
    36f9:	00000207 00000000 00770001 6c756e28     ..........w.(nul
    3709:	3000296c 78300058 20002d00 30002b00     l).0X.0x.-. .+.0
    3719:	34333231 38373635 43424139 00464544     123456789ABCDEF.
    3729:	33323130 37363534 62613938 66656463     0123456789abcdef
    3739:	2a2a2a00 73435f20 615f7379 636f6c6c     .*** _Csys_alloc
    3749:	69616620 0a64656c                         failed....
